
C:/Users/denni/OneDrive/Desktop/Aetherion-2350/build/Aetherion-v1.0.elf:     file format elf32-littlearm

Sections:
Idx Name          Size      VMA       LMA       File off  Algn
  0 .text         00007d30  10000000  10000000  00001000  2**3
                  CONTENTS, ALLOC, LOAD, READONLY, CODE
  1 .rodata       000005e0  10007d30  10007d30  00008d30  2**3
                  CONTENTS, ALLOC, LOAD, READONLY, DATA
  2 .ARM.exidx    00000008  10008310  10008310  00009310  2**2
                  CONTENTS, ALLOC, LOAD, READONLY, DATA
  3 .binary_info  00000024  10008318  10008318  00009318  2**2
                  CONTENTS, ALLOC, LOAD, READONLY, DATA
  4 .ram_vector_table 00000110  20000000  20000000  0000c000  2**2
                  ALLOC
  5 .uninitialized_data 00000000  20000110  20000110  0000be08  2**0
                  CONTENTS
  6 .data         00001ab8  20000110  1000833c  0000a110  2**3
                  CONTENTS, ALLOC, LOAD, READONLY, CODE
  7 .tdata        00000000  20001bc8  20001bc8  0000be08  2**0
                  CONTENTS, ALLOC, LOAD, DATA, THREAD_LOCAL
  8 .tbss         00000000  20001bc8  20001bc8  00000000  2**0
                  ALLOC, THREAD_LOCAL
  9 .bss          00040e10  20001bc8  10009df4  0000cbc8  2**3
                  ALLOC
 10 .heap         00000800  200429d8  200429d8  0000be08  2**2
                  CONTENTS, READONLY
 11 .scratch_x    00000000  20080000  20080000  0000c608  2**0
                  CONTENTS
 12 .scratch_y    00000000  20081000  20081000  0000c608  2**0
                  CONTENTS
 13 .stack1_dummy 00000800  20080000  20080000  0000c000  2**2
                  ALLOC
 14 .stack_dummy  00000800  20081000  20081000  0000c620  2**5
                  CONTENTS, READONLY
 15 .flash_end    00000014  10009df4  10009df4  0000bdf4  2**2
                  CONTENTS, ALLOC, LOAD, READONLY, DATA
 16 .ARM.attributes 00000034  00000000  00000000  0000ce20  2**0
                  CONTENTS, READONLY
 17 .comment      00000045  00000000  00000000  0000ce54  2**0
                  CONTENTS, READONLY
 18 .debug_info   00040564  00000000  00000000  0000ce99  2**0
                  CONTENTS, READONLY, DEBUGGING, OCTETS
 19 .debug_abbrev 0000a91f  00000000  00000000  0004d3fd  2**0
                  CONTENTS, READONLY, DEBUGGING, OCTETS
 20 .debug_loclists 0001fab1  00000000  00000000  00057d1c  2**0
                  CONTENTS, READONLY, DEBUGGING, OCTETS
 21 .debug_aranges 000016d8  00000000  00000000  000777d0  2**3
                  CONTENTS, READONLY, DEBUGGING, OCTETS
 22 .debug_rnglists 00005aef  00000000  00000000  00078ea8  2**0
                  CONTENTS, READONLY, DEBUGGING, OCTETS
 23 .debug_line   00029c03  00000000  00000000  0007e997  2**0
                  CONTENTS, READONLY, DEBUGGING, OCTETS
 24 .debug_str    0000ae41  00000000  00000000  000a859a  2**0
                  CONTENTS, READONLY, DEBUGGING, OCTETS
 25 .debug_frame  0000437c  00000000  00000000  000b33dc  2**2
                  CONTENTS, READONLY, DEBUGGING, OCTETS
 26 .debug_line_str 0000028d  00000000  00000000  000b7758  2**0
                  CONTENTS, READONLY, DEBUGGING, OCTETS

C:/Users/denni/OneDrive/Desktop/Aetherion-2350/build/Aetherion-v1.0.elf:     file format elf32-littlearm


Disassembly of section .text:

10000000 <__VECTOR_TABLE>:
10000000:	20082000 	.word	0x20082000
10000004:	1000015d 	.word	0x1000015d
10000008:	10000113 	.word	0x10000113
1000000c:	10000115 	.word	0x10000115
10000010:	10000111 	.word	0x10000111
10000014:	10000111 	.word	0x10000111
10000018:	10000111 	.word	0x10000111
1000001c:	10000111 	.word	0x10000111
10000020:	10000111 	.word	0x10000111
10000024:	10000111 	.word	0x10000111
10000028:	10000111 	.word	0x10000111
1000002c:	10000117 	.word	0x10000117
10000030:	10000111 	.word	0x10000111
10000034:	10000111 	.word	0x10000111
10000038:	10000119 	.word	0x10000119
1000003c:	1000011b 	.word	0x1000011b
10000040:	1000011d 	.word	0x1000011d
10000044:	1000011d 	.word	0x1000011d
10000048:	1000011d 	.word	0x1000011d
1000004c:	1000011d 	.word	0x1000011d
10000050:	1000011d 	.word	0x1000011d
10000054:	1000011d 	.word	0x1000011d
10000058:	1000011d 	.word	0x1000011d
1000005c:	1000011d 	.word	0x1000011d
10000060:	1000011d 	.word	0x1000011d
10000064:	1000011d 	.word	0x1000011d
10000068:	1000011d 	.word	0x1000011d
1000006c:	1000011d 	.word	0x1000011d
10000070:	1000011d 	.word	0x1000011d
10000074:	1000011d 	.word	0x1000011d
10000078:	1000011d 	.word	0x1000011d
1000007c:	1000011d 	.word	0x1000011d
10000080:	1000011d 	.word	0x1000011d
10000084:	1000011d 	.word	0x1000011d
10000088:	1000011d 	.word	0x1000011d
1000008c:	1000011d 	.word	0x1000011d
10000090:	1000011d 	.word	0x1000011d
10000094:	1000011d 	.word	0x1000011d
10000098:	1000011d 	.word	0x1000011d
1000009c:	1000011d 	.word	0x1000011d
100000a0:	1000011d 	.word	0x1000011d
100000a4:	1000011d 	.word	0x1000011d
100000a8:	1000011d 	.word	0x1000011d
100000ac:	1000011d 	.word	0x1000011d
100000b0:	1000011d 	.word	0x1000011d
100000b4:	1000011d 	.word	0x1000011d
100000b8:	1000011d 	.word	0x1000011d
100000bc:	1000011d 	.word	0x1000011d
100000c0:	1000011d 	.word	0x1000011d
100000c4:	1000011d 	.word	0x1000011d
100000c8:	1000011d 	.word	0x1000011d
100000cc:	1000011d 	.word	0x1000011d
100000d0:	1000011d 	.word	0x1000011d
100000d4:	1000011d 	.word	0x1000011d
100000d8:	1000011d 	.word	0x1000011d
100000dc:	1000011d 	.word	0x1000011d
100000e0:	1000011d 	.word	0x1000011d
100000e4:	1000011d 	.word	0x1000011d
100000e8:	1000011d 	.word	0x1000011d
100000ec:	1000011d 	.word	0x1000011d
100000f0:	1000011d 	.word	0x1000011d
100000f4:	1000011d 	.word	0x1000011d
100000f8:	1000011d 	.word	0x1000011d
100000fc:	1000011d 	.word	0x1000011d
10000100:	1000011d 	.word	0x1000011d
10000104:	1000011d 	.word	0x1000011d
10000108:	1000011d 	.word	0x1000011d
1000010c:	1000011d 	.word	0x1000011d

10000110 <isr_invalid>:
10000110:	be00      	bkpt	0x0000

10000112 <isr_nmi>:
10000112:	be00      	bkpt	0x0000

10000114 <isr_hardfault>:
10000114:	be00      	bkpt	0x0000

10000116 <isr_svcall>:
10000116:	be00      	bkpt	0x0000

10000118 <isr_pendsv>:
10000118:	be00      	bkpt	0x0000

1000011a <isr_systick>:
1000011a:	be00      	bkpt	0x0000

1000011c <__unhandled_user_irq>:
1000011c:	f3ef 8005 	mrs	r0, IPSR
10000120:	3810      	subs	r0, #16

10000122 <unhandled_user_irq_num_in_r0>:
10000122:	be00      	bkpt	0x0000

10000124 <binary_info_header>:
10000124:	7188ebf2 	.word	0x7188ebf2
10000128:	10008318 	.word	0x10008318
1000012c:	1000833c 	.word	0x1000833c
10000130:	100001a8 	.word	0x100001a8
10000134:	e71aa390 	.word	0xe71aa390

10000138 <__binary_info_header_end>:
10000138:	ffffded3 	.word	0xffffded3
1000013c:	10210142 	.word	0x10210142
10000140:	000001ff 	.word	0x000001ff
10000144:	00009cbc 	.word	0x00009cbc
10000148:	ab123579 	.word	0xab123579

1000014c <_entry_point>:
1000014c:	f04f 0000 	mov.w	r0, #0

10000150 <_enter_vtable_in_r0>:
10000150:	4920      	ldr	r1, [pc, #128]	@ (100001d4 <data_cpy_table+0x2c>)
10000152:	6008      	str	r0, [r1, #0]
10000154:	c806      	ldmia	r0!, {r1, r2}
10000156:	f381 8808 	msr	MSP, r1
1000015a:	4710      	bx	r2

1000015c <_reset_handler>:
1000015c:	f04f 4050 	mov.w	r0, #3489660928	@ 0xd0000000
10000160:	6800      	ldr	r0, [r0, #0]
10000162:	b110      	cbz	r0, 1000016a <hold_non_core0_in_bootrom+0x6>

10000164 <hold_non_core0_in_bootrom>:
10000164:	f04f 0000 	mov.w	r0, #0
10000168:	e7f2      	b.n	10000150 <_enter_vtable_in_r0>
1000016a:	a40f      	add	r4, pc, #60	@ (adr r4, 100001a8 <data_cpy_table>)
1000016c:	cc0e      	ldmia	r4!, {r1, r2, r3}
1000016e:	2900      	cmp	r1, #0
10000170:	d002      	beq.n	10000178 <hold_non_core0_in_bootrom+0x14>
10000172:	f000 f815 	bl	100001a0 <data_cpy>
10000176:	e7f9      	b.n	1000016c <hold_non_core0_in_bootrom+0x8>
10000178:	4917      	ldr	r1, [pc, #92]	@ (100001d8 <data_cpy_table+0x30>)
1000017a:	4a18      	ldr	r2, [pc, #96]	@ (100001dc <data_cpy_table+0x34>)
1000017c:	2000      	movs	r0, #0
1000017e:	e000      	b.n	10000182 <bss_fill_test>

10000180 <bss_fill_loop>:
10000180:	c101      	stmia	r1!, {r0}

10000182 <bss_fill_test>:
10000182:	4291      	cmp	r1, r2
10000184:	d1fc      	bne.n	10000180 <bss_fill_loop>

10000186 <platform_entry>:
10000186:	2000      	movs	r0, #0
10000188:	f380 880a 	msr	MSPLIM, r0
1000018c:	4914      	ldr	r1, [pc, #80]	@ (100001e0 <data_cpy_table+0x38>)
1000018e:	4788      	blx	r1
10000190:	4914      	ldr	r1, [pc, #80]	@ (100001e4 <data_cpy_table+0x3c>)
10000192:	4788      	blx	r1
10000194:	4914      	ldr	r1, [pc, #80]	@ (100001e8 <data_cpy_table+0x40>)
10000196:	4788      	blx	r1
10000198:	be00      	bkpt	0x0000
1000019a:	e7fd      	b.n	10000198 <platform_entry+0x12>

1000019c <data_cpy_loop>:
1000019c:	c901      	ldmia	r1!, {r0}
1000019e:	c201      	stmia	r2!, {r0}

100001a0 <data_cpy>:
100001a0:	429a      	cmp	r2, r3
100001a2:	d3fb      	bcc.n	1000019c <data_cpy_loop>
100001a4:	4770      	bx	lr
100001a6:	bf00      	nop

100001a8 <data_cpy_table>:
100001a8:	1000833c 	.word	0x1000833c
100001ac:	20000110 	.word	0x20000110
100001b0:	20001bc8 	.word	0x20001bc8
100001b4:	10009df4 	.word	0x10009df4
100001b8:	20080000 	.word	0x20080000
100001bc:	20080000 	.word	0x20080000
100001c0:	10009df4 	.word	0x10009df4
100001c4:	20081000 	.word	0x20081000
100001c8:	20081000 	.word	0x20081000
100001cc:	00000000 	.word	0x00000000
100001d0:	4770      	bx	lr
100001d2:	0000      	.short	0x0000
100001d4:	e000ed08 	.word	0xe000ed08
100001d8:	20001bc8 	.word	0x20001bc8
100001dc:	200429d8 	.word	0x200429d8
100001e0:	10004bf1 	.word	0x10004bf1
100001e4:	100002d1 	.word	0x100002d1
100001e8:	10004be9 	.word	0x10004be9

100001ec <_init>:
100001ec:	b5f8      	push	{r3, r4, r5, r6, r7, lr}
100001ee:	bf00      	nop

100001f0 <register_tm_clones>:
100001f0:	4b06      	ldr	r3, [pc, #24]	@ (1000020c <register_tm_clones+0x1c>)
100001f2:	4907      	ldr	r1, [pc, #28]	@ (10000210 <register_tm_clones+0x20>)
100001f4:	1ac9      	subs	r1, r1, r3
100001f6:	1089      	asrs	r1, r1, #2
100001f8:	bf48      	it	mi
100001fa:	3101      	addmi	r1, #1
100001fc:	1049      	asrs	r1, r1, #1
100001fe:	d003      	beq.n	10000208 <register_tm_clones+0x18>
10000200:	4b04      	ldr	r3, [pc, #16]	@ (10000214 <register_tm_clones+0x24>)
10000202:	b10b      	cbz	r3, 10000208 <register_tm_clones+0x18>
10000204:	4801      	ldr	r0, [pc, #4]	@ (1000020c <register_tm_clones+0x1c>)
10000206:	4718      	bx	r3
10000208:	4770      	bx	lr
1000020a:	bf00      	nop
1000020c:	20001bc8 	.word	0x20001bc8
10000210:	20001bc8 	.word	0x20001bc8
10000214:	00000000 	.word	0x00000000

10000218 <frame_dummy>:
10000218:	b508      	push	{r3, lr}
1000021a:	4b05      	ldr	r3, [pc, #20]	@ (10000230 <frame_dummy+0x18>)
1000021c:	b11b      	cbz	r3, 10000226 <frame_dummy+0xe>
1000021e:	4905      	ldr	r1, [pc, #20]	@ (10000234 <frame_dummy+0x1c>)
10000220:	4805      	ldr	r0, [pc, #20]	@ (10000238 <frame_dummy+0x20>)
10000222:	f3af 8000 	nop.w
10000226:	e8bd 4008 	ldmia.w	sp!, {r3, lr}
1000022a:	f7ff bfe1 	b.w	100001f0 <register_tm_clones>
1000022e:	bf00      	nop
10000230:	00000000 	.word	0x00000000
10000234:	2004293c 	.word	0x2004293c
10000238:	10007d30 	.word	0x10007d30

1000023c <set_memory>:
1000023c:	b508      	push	{r3, lr}
1000023e:	f44f 4000 	mov.w	r0, #32768	@ 0x8000
10000242:	f003 f9a5 	bl	10003590 <__wrap_malloc>
10000246:	4602      	mov	r2, r0
10000248:	4b04      	ldr	r3, [pc, #16]	@ (1000025c <set_memory+0x20>)
1000024a:	f44f 4000 	mov.w	r0, #32768	@ 0x8000
1000024e:	601a      	str	r2, [r3, #0]
10000250:	f003 f99e 	bl	10003590 <__wrap_malloc>
10000254:	4b02      	ldr	r3, [pc, #8]	@ (10000260 <set_memory+0x24>)
10000256:	6018      	str	r0, [r3, #0]
10000258:	bd08      	pop	{r3, pc}
1000025a:	bf00      	nop
1000025c:	20042954 	.word	0x20042954
10000260:	20042514 	.word	0x20042514

10000264 <read_flash>:
10000264:	b508      	push	{r3, lr}
10000266:	f001 fbe5 	bl	10001a34 <flash_bank_zero>
1000026a:	4b05      	ldr	r3, [pc, #20]	@ (10000280 <read_flash+0x1c>)
1000026c:	6018      	str	r0, [r3, #0]
1000026e:	f001 fbe5 	bl	10001a3c <flash_bank_one>
10000272:	4b04      	ldr	r3, [pc, #16]	@ (10000284 <read_flash+0x20>)
10000274:	6018      	str	r0, [r3, #0]
10000276:	f001 fbe5 	bl	10001a44 <read_persist>
1000027a:	4b03      	ldr	r3, [pc, #12]	@ (10000288 <read_flash+0x24>)
1000027c:	6018      	str	r0, [r3, #0]
1000027e:	bd08      	pop	{r3, pc}
10000280:	20042398 	.word	0x20042398
10000284:	20042394 	.word	0x20042394
10000288:	20042384 	.word	0x20042384

1000028c <conditional>:
1000028c:	480a      	ldr	r0, [pc, #40]	@ (100002b8 <conditional+0x2c>)
1000028e:	490b      	ldr	r1, [pc, #44]	@ (100002bc <conditional+0x30>)
10000290:	4a0b      	ldr	r2, [pc, #44]	@ (100002c0 <conditional+0x34>)
10000292:	4b0c      	ldr	r3, [pc, #48]	@ (100002c4 <conditional+0x38>)
10000294:	6800      	ldr	r0, [r0, #0]
10000296:	6809      	ldr	r1, [r1, #0]
10000298:	7812      	ldrb	r2, [r2, #0]
1000029a:	6098      	str	r0, [r3, #8]
1000029c:	6119      	str	r1, [r3, #16]
1000029e:	b12a      	cbz	r2, 100002ac <conditional+0x20>
100002a0:	4b09      	ldr	r3, [pc, #36]	@ (100002c8 <conditional+0x3c>)
100002a2:	f44f 4200 	mov.w	r2, #32768	@ 0x8000
100002a6:	6819      	ldr	r1, [r3, #0]
100002a8:	f007 baec 	b.w	10007884 <memcpy>
100002ac:	4b07      	ldr	r3, [pc, #28]	@ (100002cc <conditional+0x40>)
100002ae:	f44f 4200 	mov.w	r2, #32768	@ 0x8000
100002b2:	6819      	ldr	r1, [r3, #0]
100002b4:	f007 bae6 	b.w	10007884 <memcpy>
100002b8:	20042954 	.word	0x20042954
100002bc:	20042930 	.word	0x20042930
100002c0:	200429d2 	.word	0x200429d2
100002c4:	20042998 	.word	0x20042998
100002c8:	20042394 	.word	0x20042394
100002cc:	20042398 	.word	0x20042398

100002d0 <main>:
100002d0:	b530      	push	{r4, r5, lr}
100002d2:	b085      	sub	sp, #20
100002d4:	f001 fb9c 	bl	10001a10 <mutexes_init>
100002d8:	200b      	movs	r0, #11
100002da:	f002 fe73 	bl	10002fc4 <vreg_set_voltage>
100002de:	481c      	ldr	r0, [pc, #112]	@ (10000350 <main+0x80>)
100002e0:	ab03      	add	r3, sp, #12
100002e2:	aa02      	add	r2, sp, #8
100002e4:	a901      	add	r1, sp, #4
100002e6:	f002 fd59 	bl	10002d9c <check_sys_clock_khz>
100002ea:	b918      	cbnz	r0, 100002f4 <main+0x24>
100002ec:	4918      	ldr	r1, [pc, #96]	@ (10000350 <main+0x80>)
100002ee:	4819      	ldr	r0, [pc, #100]	@ (10000354 <main+0x84>)
100002f0:	f001 fc52 	bl	10001b98 <panic>
100002f4:	e9dd 1202 	ldrd	r1, r2, [sp, #8]
100002f8:	4c17      	ldr	r4, [pc, #92]	@ (10000358 <main+0x88>)
100002fa:	9801      	ldr	r0, [sp, #4]
100002fc:	f002 fc8c 	bl	10002c18 <set_sys_clock_pll>
10000300:	4816      	ldr	r0, [pc, #88]	@ (1000035c <main+0x8c>)
10000302:	f007 fcd5 	bl	10007cb0 <__mutex_enter_blocking_veneer>
10000306:	4620      	mov	r0, r4
10000308:	f007 fcd2 	bl	10007cb0 <__mutex_enter_blocking_veneer>
1000030c:	f7ff ff96 	bl	1000023c <set_memory>
10000310:	f7ff ffa8 	bl	10000264 <read_flash>
10000314:	4b12      	ldr	r3, [pc, #72]	@ (10000360 <main+0x90>)
10000316:	4813      	ldr	r0, [pc, #76]	@ (10000364 <main+0x94>)
10000318:	681b      	ldr	r3, [r3, #0]
1000031a:	4913      	ldr	r1, [pc, #76]	@ (10000368 <main+0x98>)
1000031c:	881b      	ldrh	r3, [r3, #0]
1000031e:	4d13      	ldr	r5, [pc, #76]	@ (1000036c <main+0x9c>)
10000320:	b2da      	uxtb	r2, r3
10000322:	8003      	strh	r3, [r0, #0]
10000324:	f3c3 2307 	ubfx	r3, r3, #8, #8
10000328:	702a      	strb	r2, [r5, #0]
1000032a:	700b      	strb	r3, [r1, #0]
1000032c:	7222      	strb	r2, [r4, #8]
1000032e:	f7ff ffad 	bl	1000028c <conditional>
10000332:	480a      	ldr	r0, [pc, #40]	@ (1000035c <main+0x8c>)
10000334:	f007 fcb8 	bl	10007ca8 <__mutex_exit_veneer>
10000338:	4620      	mov	r0, r4
1000033a:	f007 fcb5 	bl	10007ca8 <__mutex_exit_veneer>
1000033e:	480c      	ldr	r0, [pc, #48]	@ (10000370 <main+0xa0>)
10000340:	f004 ff7e 	bl	10005240 <multicore_launch_core1>
10000344:	f001 fa28 	bl	10001798 <ostrich_init>
10000348:	2000      	movs	r0, #0
1000034a:	b005      	add	sp, #20
1000034c:	bd30      	pop	{r4, r5, pc}
1000034e:	bf00      	nop
10000350:	00030d40 	.word	0x00030d40
10000354:	10007d30 	.word	0x10007d30
10000358:	20042388 	.word	0x20042388
1000035c:	20042998 	.word	0x20042998
10000360:	20042384 	.word	0x20042384
10000364:	20042964 	.word	0x20042964
10000368:	200429d4 	.word	0x200429d4
1000036c:	200429d2 	.word	0x200429d2
10000370:	100006bd 	.word	0x100006bd

10000374 <tud_descriptor_device_cb>:
10000374:	4800      	ldr	r0, [pc, #0]	@ (10000378 <tud_descriptor_device_cb+0x4>)
10000376:	4770      	bx	lr
10000378:	1000806c 	.word	0x1000806c

1000037c <tud_descriptor_configuration_cb>:
1000037c:	4800      	ldr	r0, [pc, #0]	@ (10000380 <tud_descriptor_configuration_cb+0x4>)
1000037e:	4770      	bx	lr
10000380:	10007f9c 	.word	0x10007f9c

10000384 <tud_descriptor_string_cb>:
10000384:	b538      	push	{r3, r4, r5, lr}
10000386:	4b18      	ldr	r3, [pc, #96]	@ (100003e8 <tud_descriptor_string_cb+0x64>)
10000388:	4604      	mov	r4, r0
1000038a:	781a      	ldrb	r2, [r3, #0]
1000038c:	b30a      	cbz	r2, 100003d2 <tud_descriptor_string_cb+0x4e>
1000038e:	b944      	cbnz	r4, 100003a2 <tud_descriptor_string_cb+0x1e>
10000390:	f240 4209 	movw	r2, #1033	@ 0x409
10000394:	f44f 7341 	mov.w	r3, #772	@ 0x304
10000398:	4d14      	ldr	r5, [pc, #80]	@ (100003ec <tud_descriptor_string_cb+0x68>)
1000039a:	806a      	strh	r2, [r5, #2]
1000039c:	4813      	ldr	r0, [pc, #76]	@ (100003ec <tud_descriptor_string_cb+0x68>)
1000039e:	802b      	strh	r3, [r5, #0]
100003a0:	bd38      	pop	{r3, r4, r5, pc}
100003a2:	2c06      	cmp	r4, #6
100003a4:	d81a      	bhi.n	100003dc <tud_descriptor_string_cb+0x58>
100003a6:	4b12      	ldr	r3, [pc, #72]	@ (100003f0 <tud_descriptor_string_cb+0x6c>)
100003a8:	4d10      	ldr	r5, [pc, #64]	@ (100003ec <tud_descriptor_string_cb+0x68>)
100003aa:	f853 1024 	ldr.w	r1, [r3, r4, lsl #2]
100003ae:	4628      	mov	r0, r5
100003b0:	2300      	movs	r3, #0
100003b2:	3901      	subs	r1, #1
100003b4:	e003      	b.n	100003be <tud_descriptor_string_cb+0x3a>
100003b6:	2b1a      	cmp	r3, #26
100003b8:	f820 2f02 	strh.w	r2, [r0, #2]!
100003bc:	d010      	beq.n	100003e0 <tud_descriptor_string_cb+0x5c>
100003be:	f811 2f01 	ldrb.w	r2, [r1, #1]!
100003c2:	3301      	adds	r3, #1
100003c4:	b2db      	uxtb	r3, r3
100003c6:	2a00      	cmp	r2, #0
100003c8:	d1f5      	bne.n	100003b6 <tud_descriptor_string_cb+0x32>
100003ca:	005b      	lsls	r3, r3, #1
100003cc:	f443 7340 	orr.w	r3, r3, #768	@ 0x300
100003d0:	e7e4      	b.n	1000039c <tud_descriptor_string_cb+0x18>
100003d2:	2111      	movs	r1, #17
100003d4:	4618      	mov	r0, r3
100003d6:	f006 fe59 	bl	1000708c <pico_get_unique_board_id_string>
100003da:	e7d8      	b.n	1000038e <tud_descriptor_string_cb+0xa>
100003dc:	2000      	movs	r0, #0
100003de:	bd38      	pop	{r3, r4, r5, pc}
100003e0:	f240 3336 	movw	r3, #822	@ 0x336
100003e4:	e7da      	b.n	1000039c <tud_descriptor_string_cb+0x18>
100003e6:	bf00      	nop
100003e8:	200429b0 	.word	0x200429b0
100003ec:	200424cc 	.word	0x200424cc
100003f0:	10007f80 	.word	0x10007f80

100003f4 <injection_program_init>:
100003f4:	e92d 4ff0 	stmdb	sp!, {r4, r5, r6, r7, r8, r9, sl, fp, lr}
100003f8:	461f      	mov	r7, r3
100003fa:	f44f 2340 	mov.w	r3, #786432	@ 0xc0000
100003fe:	4691      	mov	r9, r2
10000400:	b08d      	sub	sp, #52	@ 0x34
10000402:	f89d 5058 	ldrb.w	r5, [sp, #88]	@ 0x58
10000406:	9306      	str	r3, [sp, #24]
10000408:	eb07 0b05 	add.w	fp, r7, r5
1000040c:	ea4f 134b 	mov.w	r3, fp, lsl #5
10000410:	f007 021f 	and.w	r2, r7, #31
10000414:	ea42 5205 	orr.w	r2, r2, r5, lsl #20
10000418:	f403 7378 	and.w	r3, r3, #992	@ 0x3e0
1000041c:	4313      	orrs	r3, r2
1000041e:	f023 53e0 	bic.w	r3, r3, #469762048	@ 0x1c000000
10000422:	f043 6a40 	orr.w	sl, r3, #201326592	@ 0xc000000
10000426:	ea4f 1ec9 	mov.w	lr, r9, lsl #7
1000042a:	f109 0309 	add.w	r3, r9, #9
1000042e:	f44f 3280 	mov.w	r2, #65536	@ 0x10000
10000432:	ea4e 3e03 	orr.w	lr, lr, r3, lsl #12
10000436:	f44f 33f8 	mov.w	r3, #126976	@ 0x1f000
1000043a:	2400      	movs	r4, #0
1000043c:	e9cd 2304 	strd	r2, r3, [sp, #16]
10000440:	9407      	str	r4, [sp, #28]
10000442:	f10d 0c20 	add.w	ip, sp, #32
10000446:	ae04      	add	r6, sp, #16
10000448:	f100 442f 	add.w	r4, r0, #2936012800	@ 0xaf000000
1000044c:	4680      	mov	r8, r0
1000044e:	9102      	str	r1, [sp, #8]
10000450:	e896 000f 	ldmia.w	r6, {r0, r1, r2, r3}
10000454:	e88c 000f 	stmia.w	ip, {r0, r1, r2, r3}
10000458:	f8cd e024 	str.w	lr, [sp, #36]	@ 0x24
1000045c:	e89c 000f 	ldmia.w	ip, {r0, r1, r2, r3}
10000460:	e886 000f 	stmia.w	r6, {r0, r1, r2, r3}
10000464:	f44f 2380 	mov.w	r3, #262144	@ 0x40000
10000468:	f504 0460 	add.w	r4, r4, #14680064	@ 0xe00000
1000046c:	0d24      	lsrs	r4, r4, #20
1000046e:	3406      	adds	r4, #6
10000470:	42bd      	cmp	r5, r7
10000472:	e9cd 3a06 	strd	r3, sl, [sp, #24]
10000476:	b2e4      	uxtb	r4, r4
10000478:	bf88      	it	hi
1000047a:	46ba      	movhi	sl, r7
1000047c:	d907      	bls.n	1000048e <injection_program_init+0x9a>
1000047e:	4650      	mov	r0, sl
10000480:	4621      	mov	r1, r4
10000482:	f10a 0a01 	add.w	sl, sl, #1
10000486:	f001 fb25 	bl	10001ad4 <gpio_set_function>
1000048a:	4555      	cmp	r5, sl
1000048c:	d8f7      	bhi.n	1000047e <injection_program_init+0x8a>
1000048e:	4621      	mov	r1, r4
10000490:	4658      	mov	r0, fp
10000492:	f001 fb1f 	bl	10001ad4 <gpio_set_function>
10000496:	4621      	mov	r1, r4
10000498:	f10b 0001 	add.w	r0, fp, #1
1000049c:	f001 fb1a 	bl	10001ad4 <gpio_set_function>
100004a0:	4621      	mov	r1, r4
100004a2:	f10b 0002 	add.w	r0, fp, #2
100004a6:	f001 fb15 	bl	10001ad4 <gpio_set_function>
100004aa:	2301      	movs	r3, #1
100004ac:	463a      	mov	r2, r7
100004ae:	9300      	str	r3, [sp, #0]
100004b0:	4640      	mov	r0, r8
100004b2:	1ceb      	adds	r3, r5, #3
100004b4:	9902      	ldr	r1, [sp, #8]
100004b6:	f004 fd5b 	bl	10004f70 <pio_sm_set_consecutive_pindirs>
100004ba:	ed9d 7a17 	vldr	s14, [sp, #92]	@ 0x5c
100004be:	eddf 7a14 	vldr	s15, [pc, #80]	@ 10000510 <injection_program_init+0x11c>
100004c2:	ee77 7a27 	vadd.f32	s15, s14, s15
100004c6:	eebc 7ae7 	vcvt.u32.f32	s14, s15
100004ca:	ee17 3a10 	vmov	r3, s14
100004ce:	b29b      	uxth	r3, r3
100004d0:	b963      	cbnz	r3, 100004ec <injection_program_init+0xf8>
100004d2:	461c      	mov	r4, r3
100004d4:	ea44 4403 	orr.w	r4, r4, r3, lsl #16
100004d8:	464a      	mov	r2, r9
100004da:	4633      	mov	r3, r6
100004dc:	4640      	mov	r0, r8
100004de:	9902      	ldr	r1, [sp, #8]
100004e0:	9404      	str	r4, [sp, #16]
100004e2:	f004 fd8b 	bl	10004ffc <pio_sm_init>
100004e6:	b00d      	add	sp, #52	@ 0x34
100004e8:	e8bd 8ff0 	ldmia.w	sp!, {r4, r5, r6, r7, r8, r9, sl, fp, pc}
100004ec:	ee07 3a10 	vmov	s14, r3
100004f0:	eeb8 7a47 	vcvt.f32.u32	s14, s14
100004f4:	eddf 6a07 	vldr	s13, [pc, #28]	@ 10000514 <injection_program_init+0x120>
100004f8:	ee77 7ac7 	vsub.f32	s15, s15, s14
100004fc:	ee67 7aa6 	vmul.f32	s15, s15, s13
10000500:	eefc 7ae7 	vcvt.u32.f32	s15, s15
10000504:	edcd 7a03 	vstr	s15, [sp, #12]
10000508:	f89d 400c 	ldrb.w	r4, [sp, #12]
1000050c:	0224      	lsls	r4, r4, #8
1000050e:	e7e1      	b.n	100004d4 <injection_program_init+0xe0>
10000510:	3b000000 	.word	0x3b000000
10000514:	43800000 	.word	0x43800000

10000518 <macro_injection>:
10000518:	e92d 47f0 	stmdb	sp!, {r4, r5, r6, r7, r8, r9, sl, lr}
1000051c:	4d23      	ldr	r5, [pc, #140]	@ (100005ac <macro_injection+0x94>)
1000051e:	882b      	ldrh	r3, [r5, #0]
10000520:	f5b3 4f00 	cmp.w	r3, #32768	@ 0x8000
10000524:	d031      	beq.n	1000058a <macro_injection+0x72>
10000526:	4c22      	ldr	r4, [pc, #136]	@ (100005b0 <macro_injection+0x98>)
10000528:	4e22      	ldr	r6, [pc, #136]	@ (100005b4 <macro_injection+0x9c>)
1000052a:	f8df a094 	ldr.w	sl, [pc, #148]	@ 100005c0 <macro_injection+0xa8>
1000052e:	f8df 9094 	ldr.w	r9, [pc, #148]	@ 100005c4 <macro_injection+0xac>
10000532:	f8df 8094 	ldr.w	r8, [pc, #148]	@ 100005c8 <macro_injection+0xb0>
10000536:	4f20      	ldr	r7, [pc, #128]	@ (100005b8 <macro_injection+0xa0>)
10000538:	f004 fea6 	bl	10005288 <multicore_lockout_victim_init>
1000053c:	f004 fea4 	bl	10005288 <multicore_lockout_victim_init>
10000540:	2100      	movs	r1, #0
10000542:	4620      	mov	r0, r4
10000544:	f007 fbcc 	bl	10007ce0 <__mutex_try_enter_veneer>
10000548:	2800      	cmp	r0, #0
1000054a:	d0f7      	beq.n	1000053c <macro_injection+0x24>
1000054c:	68a2      	ldr	r2, [r4, #8]
1000054e:	882b      	ldrh	r3, [r5, #0]
10000550:	4620      	mov	r0, r4
10000552:	5cd3      	ldrb	r3, [r2, r3]
10000554:	7033      	strb	r3, [r6, #0]
10000556:	f007 fba7 	bl	10007ca8 <__mutex_exit_veneer>
1000055a:	8829      	ldrh	r1, [r5, #0]
1000055c:	7832      	ldrb	r2, [r6, #0]
1000055e:	f89a 3000 	ldrb.w	r3, [sl]
10000562:	ea07 2001 	and.w	r0, r7, r1, lsl #8
10000566:	4310      	orrs	r0, r2
10000568:	b10b      	cbz	r3, 1000056e <macro_injection+0x56>
1000056a:	f440 0000 	orr.w	r0, r0, #8388608	@ 0x800000
1000056e:	f8d8 2000 	ldr.w	r2, [r8]
10000572:	f8c9 0000 	str.w	r0, [r9]
10000576:	6853      	ldr	r3, [r2, #4]
10000578:	03db      	lsls	r3, r3, #15
1000057a:	d4fc      	bmi.n	10000576 <macro_injection+0x5e>
1000057c:	1c4b      	adds	r3, r1, #1
1000057e:	b29b      	uxth	r3, r3
10000580:	f5b3 4f00 	cmp.w	r3, #32768	@ 0x8000
10000584:	6110      	str	r0, [r2, #16]
10000586:	802b      	strh	r3, [r5, #0]
10000588:	d1d6      	bne.n	10000538 <macro_injection+0x20>
1000058a:	4c0c      	ldr	r4, [pc, #48]	@ (100005bc <macro_injection+0xa4>)
1000058c:	f004 fe7c 	bl	10005288 <multicore_lockout_victim_init>
10000590:	2100      	movs	r1, #0
10000592:	4620      	mov	r0, r4
10000594:	f007 fba4 	bl	10007ce0 <__mutex_try_enter_veneer>
10000598:	2800      	cmp	r0, #0
1000059a:	d0f7      	beq.n	1000058c <macro_injection+0x74>
1000059c:	2600      	movs	r6, #0
1000059e:	4807      	ldr	r0, [pc, #28]	@ (100005bc <macro_injection+0xa4>)
100005a0:	7226      	strb	r6, [r4, #8]
100005a2:	f007 fb81 	bl	10007ca8 <__mutex_exit_veneer>
100005a6:	802e      	strh	r6, [r5, #0]
100005a8:	e8bd 87f0 	ldmia.w	sp!, {r4, r5, r6, r7, r8, r9, sl, pc}
100005ac:	200429c2 	.word	0x200429c2
100005b0:	20042998 	.word	0x20042998
100005b4:	200429d0 	.word	0x200429d0
100005b8:	007fff00 	.word	0x007fff00
100005bc:	20042958 	.word	0x20042958
100005c0:	200429ca 	.word	0x200429ca
100005c4:	2004291c 	.word	0x2004291c
100005c8:	20042968 	.word	0x20042968

100005cc <micro_injection>:
100005cc:	e92d 4ff8 	stmdb	sp!, {r3, r4, r5, r6, r7, r8, r9, sl, fp, lr}
100005d0:	4e31      	ldr	r6, [pc, #196]	@ (10000698 <micro_injection+0xcc>)
100005d2:	f8df 90dc 	ldr.w	r9, [pc, #220]	@ 100006b0 <micro_injection+0xe4>
100005d6:	8832      	ldrh	r2, [r6, #0]
100005d8:	f899 3000 	ldrb.w	r3, [r9]
100005dc:	4d2f      	ldr	r5, [pc, #188]	@ (1000069c <micro_injection+0xd0>)
100005de:	429a      	cmp	r2, r3
100005e0:	d048      	beq.n	10000674 <micro_injection+0xa8>
100005e2:	462c      	mov	r4, r5
100005e4:	f8df 80cc 	ldr.w	r8, [pc, #204]	@ 100006b4 <micro_injection+0xe8>
100005e8:	4f2d      	ldr	r7, [pc, #180]	@ (100006a0 <micro_injection+0xd4>)
100005ea:	f8df a0cc 	ldr.w	sl, [pc, #204]	@ 100006b8 <micro_injection+0xec>
100005ee:	f004 fe4b 	bl	10005288 <multicore_lockout_victim_init>
100005f2:	f004 fe49 	bl	10005288 <multicore_lockout_victim_init>
100005f6:	2100      	movs	r1, #0
100005f8:	4620      	mov	r0, r4
100005fa:	f007 fb71 	bl	10007ce0 <__mutex_try_enter_veneer>
100005fe:	2800      	cmp	r0, #0
10000600:	d0f7      	beq.n	100005f2 <micro_injection+0x26>
10000602:	89ab      	ldrh	r3, [r5, #12]
10000604:	8832      	ldrh	r2, [r6, #0]
10000606:	b29b      	uxth	r3, r3
10000608:	68a9      	ldr	r1, [r5, #8]
1000060a:	441a      	add	r2, r3
1000060c:	5c8a      	ldrb	r2, [r1, r2]
1000060e:	4620      	mov	r0, r4
10000610:	f8a8 3000 	strh.w	r3, [r8]
10000614:	703a      	strb	r2, [r7, #0]
10000616:	f007 fb47 	bl	10007ca8 <__mutex_exit_veneer>
1000061a:	f004 fe35 	bl	10005288 <multicore_lockout_victim_init>
1000061e:	2100      	movs	r1, #0
10000620:	4620      	mov	r0, r4
10000622:	f007 fb5d 	bl	10007ce0 <__mutex_try_enter_veneer>
10000626:	2800      	cmp	r0, #0
10000628:	d0f7      	beq.n	1000061a <micro_injection+0x4e>
1000062a:	f8b5 b00e 	ldrh.w	fp, [r5, #14]
1000062e:	4620      	mov	r0, r4
10000630:	f007 fb3a 	bl	10007ca8 <__mutex_exit_veneer>
10000634:	f899 3000 	ldrb.w	r3, [r9]
10000638:	fa1f fb8b 	uxth.w	fp, fp
1000063c:	455b      	cmp	r3, fp
1000063e:	d127      	bne.n	10000690 <micro_injection+0xc4>
10000640:	8830      	ldrh	r0, [r6, #0]
10000642:	f8b8 1000 	ldrh.w	r1, [r8]
10000646:	4b17      	ldr	r3, [pc, #92]	@ (100006a4 <micro_injection+0xd8>)
10000648:	783a      	ldrb	r2, [r7, #0]
1000064a:	4401      	add	r1, r0
1000064c:	781b      	ldrb	r3, [r3, #0]
1000064e:	ea0a 2101 	and.w	r1, sl, r1, lsl #8
10000652:	4311      	orrs	r1, r2
10000654:	b10b      	cbz	r3, 1000065a <micro_injection+0x8e>
10000656:	f441 0100 	orr.w	r1, r1, #8388608	@ 0x800000
1000065a:	4a13      	ldr	r2, [pc, #76]	@ (100006a8 <micro_injection+0xdc>)
1000065c:	4b13      	ldr	r3, [pc, #76]	@ (100006ac <micro_injection+0xe0>)
1000065e:	6812      	ldr	r2, [r2, #0]
10000660:	6019      	str	r1, [r3, #0]
10000662:	6853      	ldr	r3, [r2, #4]
10000664:	03db      	lsls	r3, r3, #15
10000666:	d4fc      	bmi.n	10000662 <micro_injection+0x96>
10000668:	1c43      	adds	r3, r0, #1
1000066a:	b29b      	uxth	r3, r3
1000066c:	455b      	cmp	r3, fp
1000066e:	6111      	str	r1, [r2, #16]
10000670:	8033      	strh	r3, [r6, #0]
10000672:	d1bc      	bne.n	100005ee <micro_injection+0x22>
10000674:	4c09      	ldr	r4, [pc, #36]	@ (1000069c <micro_injection+0xd0>)
10000676:	f004 fe07 	bl	10005288 <multicore_lockout_victim_init>
1000067a:	2100      	movs	r1, #0
1000067c:	4620      	mov	r0, r4
1000067e:	f007 fb2f 	bl	10007ce0 <__mutex_try_enter_veneer>
10000682:	2800      	cmp	r0, #0
10000684:	d0f7      	beq.n	10000676 <micro_injection+0xaa>
10000686:	2300      	movs	r3, #0
10000688:	4804      	ldr	r0, [pc, #16]	@ (1000069c <micro_injection+0xd0>)
1000068a:	81eb      	strh	r3, [r5, #14]
1000068c:	f007 fb0c 	bl	10007ca8 <__mutex_exit_veneer>
10000690:	2300      	movs	r3, #0
10000692:	8033      	strh	r3, [r6, #0]
10000694:	e8bd 8ff8 	ldmia.w	sp!, {r3, r4, r5, r6, r7, r8, r9, sl, fp, pc}
10000698:	200429c2 	.word	0x200429c2
1000069c:	20042998 	.word	0x20042998
100006a0:	200429d1 	.word	0x200429d1
100006a4:	200429ca 	.word	0x200429ca
100006a8:	20042968 	.word	0x20042968
100006ac:	2004291c 	.word	0x2004291c
100006b0:	200429c9 	.word	0x200429c9
100006b4:	200429c4 	.word	0x200429c4
100006b8:	007fff00 	.word	0x007fff00

100006bc <inject_memory>:
100006bc:	2400      	movs	r4, #0
100006be:	b580      	push	{r7, lr}
100006c0:	4d31      	ldr	r5, [pc, #196]	@ (10000788 <inject_memory+0xcc>)
100006c2:	4932      	ldr	r1, [pc, #200]	@ (1000078c <inject_memory+0xd0>)
100006c4:	4a32      	ldr	r2, [pc, #200]	@ (10000790 <inject_memory+0xd4>)
100006c6:	4b33      	ldr	r3, [pc, #204]	@ (10000794 <inject_memory+0xd8>)
100006c8:	f8df a0e0 	ldr.w	sl, [pc, #224]	@ 100007ac <inject_memory+0xf0>
100006cc:	b082      	sub	sp, #8
100006ce:	4628      	mov	r0, r5
100006d0:	800c      	strh	r4, [r1, #0]
100006d2:	4931      	ldr	r1, [pc, #196]	@ (10000798 <inject_memory+0xdc>)
100006d4:	7014      	strb	r4, [r2, #0]
100006d6:	701c      	strb	r4, [r3, #0]
100006d8:	f8ca 5000 	str.w	r5, [sl]
100006dc:	f004 fbcc 	bl	10004e78 <pio_add_program>
100006e0:	f04f 537e 	mov.w	r3, #1065353216	@ 0x3f800000
100006e4:	2118      	movs	r1, #24
100006e6:	4602      	mov	r2, r0
100006e8:	9100      	str	r1, [sp, #0]
100006ea:	4628      	mov	r0, r5
100006ec:	4621      	mov	r1, r4
100006ee:	9301      	str	r3, [sp, #4]
100006f0:	2302      	movs	r3, #2
100006f2:	f7ff fe7f 	bl	100003f4 <injection_program_init>
100006f6:	f8da 2000 	ldr.w	r2, [sl]
100006fa:	4d28      	ldr	r5, [pc, #160]	@ (1000079c <inject_memory+0xe0>)
100006fc:	6813      	ldr	r3, [r2, #0]
100006fe:	f8df 90b0 	ldr.w	r9, [pc, #176]	@ 100007b0 <inject_memory+0xf4>
10000702:	f043 0301 	orr.w	r3, r3, #1
10000706:	4c26      	ldr	r4, [pc, #152]	@ (100007a0 <inject_memory+0xe4>)
10000708:	4e26      	ldr	r6, [pc, #152]	@ (100007a4 <inject_memory+0xe8>)
1000070a:	4f27      	ldr	r7, [pc, #156]	@ (100007a8 <inject_memory+0xec>)
1000070c:	f8df 80a4 	ldr.w	r8, [pc, #164]	@ 100007b4 <inject_memory+0xf8>
10000710:	6013      	str	r3, [r2, #0]
10000712:	f004 fdb9 	bl	10005288 <multicore_lockout_victim_init>
10000716:	f004 fdb7 	bl	10005288 <multicore_lockout_victim_init>
1000071a:	2100      	movs	r1, #0
1000071c:	4628      	mov	r0, r5
1000071e:	f007 fadf 	bl	10007ce0 <__mutex_try_enter_veneer>
10000722:	2800      	cmp	r0, #0
10000724:	d0f7      	beq.n	10000716 <inject_memory+0x5a>
10000726:	7a2b      	ldrb	r3, [r5, #8]
10000728:	4628      	mov	r0, r5
1000072a:	f889 3000 	strb.w	r3, [r9]
1000072e:	f007 fabb 	bl	10007ca8 <__mutex_exit_veneer>
10000732:	f004 fda9 	bl	10005288 <multicore_lockout_victim_init>
10000736:	2100      	movs	r1, #0
10000738:	4620      	mov	r0, r4
1000073a:	f007 fad1 	bl	10007ce0 <__mutex_try_enter_veneer>
1000073e:	2800      	cmp	r0, #0
10000740:	d0f7      	beq.n	10000732 <inject_memory+0x76>
10000742:	f8b4 a00e 	ldrh.w	sl, [r4, #14]
10000746:	4620      	mov	r0, r4
10000748:	f007 faae 	bl	10007ca8 <__mutex_exit_veneer>
1000074c:	fa1f fa8a 	uxth.w	sl, sl
10000750:	2100      	movs	r1, #0
10000752:	4638      	mov	r0, r7
10000754:	f886 a000 	strb.w	sl, [r6]
10000758:	f007 fac2 	bl	10007ce0 <__mutex_try_enter_veneer>
1000075c:	b968      	cbnz	r0, 1000077a <inject_memory+0xbe>
1000075e:	f898 3000 	ldrb.w	r3, [r8]
10000762:	7832      	ldrb	r2, [r6, #0]
10000764:	b12b      	cbz	r3, 10000772 <inject_memory+0xb6>
10000766:	b112      	cbz	r2, 1000076e <inject_memory+0xb2>
10000768:	f7ff ff30 	bl	100005cc <micro_injection>
1000076c:	e7d1      	b.n	10000712 <inject_memory+0x56>
1000076e:	f7ff fed3 	bl	10000518 <macro_injection>
10000772:	7833      	ldrb	r3, [r6, #0]
10000774:	2b00      	cmp	r3, #0
10000776:	d0cc      	beq.n	10000712 <inject_memory+0x56>
10000778:	e7f6      	b.n	10000768 <inject_memory+0xac>
1000077a:	7a3b      	ldrb	r3, [r7, #8]
1000077c:	4638      	mov	r0, r7
1000077e:	f888 3000 	strb.w	r3, [r8]
10000782:	f007 fa91 	bl	10007ca8 <__mutex_exit_veneer>
10000786:	e7ea      	b.n	1000075e <inject_memory+0xa2>
10000788:	50200000 	.word	0x50200000
1000078c:	200429c2 	.word	0x200429c2
10000790:	200429d0 	.word	0x200429d0
10000794:	200429d1 	.word	0x200429d1
10000798:	10008080 	.word	0x10008080
1000079c:	20042388 	.word	0x20042388
100007a0:	20042998 	.word	0x20042998
100007a4:	200429c9 	.word	0x200429c9
100007a8:	20042958 	.word	0x20042958
100007ac:	20042968 	.word	0x20042968
100007b0:	200429ca 	.word	0x200429ca
100007b4:	200429cc 	.word	0x200429cc

100007b8 <post_version>:
100007b8:	b508      	push	{r3, lr}
100007ba:	2203      	movs	r2, #3
100007bc:	2000      	movs	r0, #0
100007be:	4904      	ldr	r1, [pc, #16]	@ (100007d0 <post_version+0x18>)
100007c0:	f005 fe7a 	bl	100064b8 <tud_cdc_n_write>
100007c4:	e8bd 4008 	ldmia.w	sp!, {r3, lr}
100007c8:	2000      	movs	r0, #0
100007ca:	f005 be2d 	b.w	10006428 <tud_cdc_n_write_flush>
100007ce:	bf00      	nop
100007d0:	200015cc 	.word	0x200015cc

100007d4 <post_vendor>:
100007d4:	b508      	push	{r3, lr}
100007d6:	2202      	movs	r2, #2
100007d8:	2000      	movs	r0, #0
100007da:	4904      	ldr	r1, [pc, #16]	@ (100007ec <post_vendor+0x18>)
100007dc:	f005 fe6c 	bl	100064b8 <tud_cdc_n_write>
100007e0:	e8bd 4008 	ldmia.w	sp!, {r3, lr}
100007e4:	2000      	movs	r0, #0
100007e6:	f005 be1f 	b.w	10006428 <tud_cdc_n_write_flush>
100007ea:	bf00      	nop
100007ec:	200015c8 	.word	0x200015c8

100007f0 <bank_select>:
100007f0:	b510      	push	{r4, lr}
100007f2:	7803      	ldrb	r3, [r0, #0]
100007f4:	7842      	ldrb	r2, [r0, #1]
100007f6:	7880      	ldrb	r0, [r0, #2]
100007f8:	4413      	add	r3, r2
100007fa:	b2db      	uxtb	r3, r3
100007fc:	4298      	cmp	r0, r3
100007fe:	b082      	sub	sp, #8
10000800:	d00e      	beq.n	10000820 <bank_select+0x30>
10000802:	233f      	movs	r3, #63	@ 0x3f
10000804:	2201      	movs	r2, #1
10000806:	f10d 0107 	add.w	r1, sp, #7
1000080a:	2000      	movs	r0, #0
1000080c:	f88d 3007 	strb.w	r3, [sp, #7]
10000810:	f005 fe52 	bl	100064b8 <tud_cdc_n_write>
10000814:	2000      	movs	r0, #0
10000816:	b002      	add	sp, #8
10000818:	e8bd 4010 	ldmia.w	sp!, {r4, lr}
1000081c:	f005 be04 	b.w	10006428 <tud_cdc_n_write_flush>
10000820:	234f      	movs	r3, #79	@ 0x4f
10000822:	4c09      	ldr	r4, [pc, #36]	@ (10000848 <bank_select+0x58>)
10000824:	2201      	movs	r2, #1
10000826:	f10d 0107 	add.w	r1, sp, #7
1000082a:	7020      	strb	r0, [r4, #0]
1000082c:	2000      	movs	r0, #0
1000082e:	f88d 3007 	strb.w	r3, [sp, #7]
10000832:	f005 fe41 	bl	100064b8 <tud_cdc_n_write>
10000836:	2000      	movs	r0, #0
10000838:	f005 fdf6 	bl	10006428 <tud_cdc_n_write_flush>
1000083c:	2201      	movs	r2, #1
1000083e:	4b03      	ldr	r3, [pc, #12]	@ (1000084c <bank_select+0x5c>)
10000840:	701a      	strb	r2, [r3, #0]
10000842:	b002      	add	sp, #8
10000844:	bd10      	pop	{r4, pc}
10000846:	bf00      	nop
10000848:	200429d2 	.word	0x200429d2
1000084c:	200429cd 	.word	0x200429cd

10000850 <bank_select_v>:
10000850:	b510      	push	{r4, lr}
10000852:	7803      	ldrb	r3, [r0, #0]
10000854:	7842      	ldrb	r2, [r0, #1]
10000856:	7880      	ldrb	r0, [r0, #2]
10000858:	4413      	add	r3, r2
1000085a:	b2db      	uxtb	r3, r3
1000085c:	4298      	cmp	r0, r3
1000085e:	b082      	sub	sp, #8
10000860:	d00e      	beq.n	10000880 <bank_select_v+0x30>
10000862:	233f      	movs	r3, #63	@ 0x3f
10000864:	2201      	movs	r2, #1
10000866:	f10d 0107 	add.w	r1, sp, #7
1000086a:	2000      	movs	r0, #0
1000086c:	f88d 3007 	strb.w	r3, [sp, #7]
10000870:	f005 fe22 	bl	100064b8 <tud_cdc_n_write>
10000874:	2000      	movs	r0, #0
10000876:	b002      	add	sp, #8
10000878:	e8bd 4010 	ldmia.w	sp!, {r4, lr}
1000087c:	f005 bdd4 	b.w	10006428 <tud_cdc_n_write_flush>
10000880:	234f      	movs	r3, #79	@ 0x4f
10000882:	4c09      	ldr	r4, [pc, #36]	@ (100008a8 <bank_select_v+0x58>)
10000884:	2201      	movs	r2, #1
10000886:	f10d 0107 	add.w	r1, sp, #7
1000088a:	7020      	strb	r0, [r4, #0]
1000088c:	2000      	movs	r0, #0
1000088e:	f88d 3007 	strb.w	r3, [sp, #7]
10000892:	f005 fe11 	bl	100064b8 <tud_cdc_n_write>
10000896:	2000      	movs	r0, #0
10000898:	f005 fdc6 	bl	10006428 <tud_cdc_n_write_flush>
1000089c:	2201      	movs	r2, #1
1000089e:	4b03      	ldr	r3, [pc, #12]	@ (100008ac <bank_select_v+0x5c>)
100008a0:	701a      	strb	r2, [r3, #0]
100008a2:	b002      	add	sp, #8
100008a4:	bd10      	pop	{r4, pc}
100008a6:	bf00      	nop
100008a8:	200429d4 	.word	0x200429d4
100008ac:	200429cd 	.word	0x200429cd

100008b0 <bank_persist>:
100008b0:	b510      	push	{r4, lr}
100008b2:	7803      	ldrb	r3, [r0, #0]
100008b4:	7841      	ldrb	r1, [r0, #1]
100008b6:	7882      	ldrb	r2, [r0, #2]
100008b8:	440b      	add	r3, r1
100008ba:	b2db      	uxtb	r3, r3
100008bc:	429a      	cmp	r2, r3
100008be:	b082      	sub	sp, #8
100008c0:	d00e      	beq.n	100008e0 <bank_persist+0x30>
100008c2:	233f      	movs	r3, #63	@ 0x3f
100008c4:	2201      	movs	r2, #1
100008c6:	f10d 0107 	add.w	r1, sp, #7
100008ca:	2000      	movs	r0, #0
100008cc:	f88d 3007 	strb.w	r3, [sp, #7]
100008d0:	f005 fdf2 	bl	100064b8 <tud_cdc_n_write>
100008d4:	2000      	movs	r0, #0
100008d6:	b002      	add	sp, #8
100008d8:	e8bd 4010 	ldmia.w	sp!, {r4, lr}
100008dc:	f005 bda4 	b.w	10006428 <tud_cdc_n_write_flush>
100008e0:	f04f 0300 	mov.w	r3, #0
100008e4:	4811      	ldr	r0, [pc, #68]	@ (1000092c <bank_persist+0x7c>)
100008e6:	4912      	ldr	r1, [pc, #72]	@ (10000930 <bank_persist+0x80>)
100008e8:	4c12      	ldr	r4, [pc, #72]	@ (10000934 <bank_persist+0x84>)
100008ea:	f362 0307 	bfi	r3, r2, #0, #8
100008ee:	f362 230f 	bfi	r3, r2, #8, #8
100008f2:	8023      	strh	r3, [r4, #0]
100008f4:	7002      	strb	r2, [r0, #0]
100008f6:	700a      	strb	r2, [r1, #0]
100008f8:	f004 fcea 	bl	100052d0 <multicore_lockout_start_blocking>
100008fc:	2200      	movs	r2, #0
100008fe:	4621      	mov	r1, r4
10000900:	4610      	mov	r0, r2
10000902:	f007 f9c9 	bl	10007c98 <__save_to_flash_veneer>
10000906:	f004 fd15 	bl	10005334 <multicore_lockout_end_blocking>
1000090a:	234f      	movs	r3, #79	@ 0x4f
1000090c:	2201      	movs	r2, #1
1000090e:	f10d 0107 	add.w	r1, sp, #7
10000912:	2000      	movs	r0, #0
10000914:	f88d 3007 	strb.w	r3, [sp, #7]
10000918:	f005 fdce 	bl	100064b8 <tud_cdc_n_write>
1000091c:	2000      	movs	r0, #0
1000091e:	f005 fd83 	bl	10006428 <tud_cdc_n_write_flush>
10000922:	2201      	movs	r2, #1
10000924:	4b04      	ldr	r3, [pc, #16]	@ (10000938 <bank_persist+0x88>)
10000926:	701a      	strb	r2, [r3, #0]
10000928:	b002      	add	sp, #8
1000092a:	bd10      	pop	{r4, pc}
1000092c:	200429d2 	.word	0x200429d2
10000930:	200429d4 	.word	0x200429d4
10000934:	20042964 	.word	0x20042964
10000938:	200429cd 	.word	0x200429cd

1000093c <read_and_forward>:
1000093c:	e92d 47f0 	stmdb	sp!, {r4, r5, r6, r7, r8, r9, sl, lr}
10000940:	4a1e      	ldr	r2, [pc, #120]	@ (100009bc <read_and_forward+0x80>)
10000942:	b08e      	sub	sp, #56	@ 0x38
10000944:	6993      	ldr	r3, [r2, #24]
10000946:	0699      	lsls	r1, r3, #26
10000948:	d4fc      	bmi.n	10000944 <read_and_forward+0x8>
1000094a:	7801      	ldrb	r1, [r0, #0]
1000094c:	4b1b      	ldr	r3, [pc, #108]	@ (100009bc <read_and_forward+0x80>)
1000094e:	6011      	str	r1, [r2, #0]
10000950:	699c      	ldr	r4, [r3, #24]
10000952:	f014 0420 	ands.w	r4, r4, #32
10000956:	d1fb      	bne.n	10000950 <read_and_forward+0x14>
10000958:	7842      	ldrb	r2, [r0, #1]
1000095a:	f8df 8064 	ldr.w	r8, [pc, #100]	@ 100009c0 <read_and_forward+0x84>
1000095e:	601a      	str	r2, [r3, #0]
10000960:	f001 ffb8 	bl	100028d4 <time_us_64>
10000964:	4605      	mov	r5, r0
10000966:	460e      	mov	r6, r1
10000968:	f8df 9050 	ldr.w	r9, [pc, #80]	@ 100009bc <read_and_forward+0x80>
1000096c:	f10d 0a04 	add.w	sl, sp, #4
10000970:	2700      	movs	r7, #0
10000972:	e003      	b.n	1000097c <read_and_forward+0x40>
10000974:	f8d9 3018 	ldr.w	r3, [r9, #24]
10000978:	06da      	lsls	r2, r3, #27
1000097a:	d513      	bpl.n	100009a4 <read_and_forward+0x68>
1000097c:	f001 ffaa 	bl	100028d4 <time_us_64>
10000980:	1b40      	subs	r0, r0, r5
10000982:	eb61 0106 	sbc.w	r1, r1, r6
10000986:	4580      	cmp	r8, r0
10000988:	eb77 0101 	sbcs.w	r1, r7, r1
1000098c:	d2f2      	bcs.n	10000974 <read_and_forward+0x38>
1000098e:	4622      	mov	r2, r4
10000990:	a901      	add	r1, sp, #4
10000992:	2001      	movs	r0, #1
10000994:	f005 fd90 	bl	100064b8 <tud_cdc_n_write>
10000998:	2001      	movs	r0, #1
1000099a:	f005 fd45 	bl	10006428 <tud_cdc_n_write_flush>
1000099e:	b00e      	add	sp, #56	@ 0x38
100009a0:	e8bd 87f0 	ldmia.w	sp!, {r4, r5, r6, r7, r8, r9, sl, pc}
100009a4:	4a05      	ldr	r2, [pc, #20]	@ (100009bc <read_and_forward+0x80>)
100009a6:	6993      	ldr	r3, [r2, #24]
100009a8:	06db      	lsls	r3, r3, #27
100009aa:	d4fc      	bmi.n	100009a6 <read_and_forward+0x6a>
100009ac:	3401      	adds	r4, #1
100009ae:	6813      	ldr	r3, [r2, #0]
100009b0:	b2e4      	uxtb	r4, r4
100009b2:	2c34      	cmp	r4, #52	@ 0x34
100009b4:	f80a 3b01 	strb.w	r3, [sl], #1
100009b8:	d1da      	bne.n	10000970 <read_and_forward+0x34>
100009ba:	e7e8      	b.n	1000098e <read_and_forward+0x52>
100009bc:	40070000 	.word	0x40070000
100009c0:	0001869f 	.word	0x0001869f

100009c4 <start_log>:
100009c4:	e92d 41f0 	stmdb	sp!, {r4, r5, r6, r7, r8, lr}
100009c8:	7803      	ldrb	r3, [r0, #0]
100009ca:	4922      	ldr	r1, [pc, #136]	@ (10000a54 <start_log+0x90>)
100009cc:	2b10      	cmp	r3, #16
100009ce:	b082      	sub	sp, #8
100009d0:	d02b      	beq.n	10000a2a <start_log+0x66>
100009d2:	698b      	ldr	r3, [r1, #24]
100009d4:	069d      	lsls	r5, r3, #26
100009d6:	d4fc      	bmi.n	100009d2 <start_log+0xe>
100009d8:	2310      	movs	r3, #16
100009da:	4a1e      	ldr	r2, [pc, #120]	@ (10000a54 <start_log+0x90>)
100009dc:	600b      	str	r3, [r1, #0]
100009de:	6993      	ldr	r3, [r2, #24]
100009e0:	069c      	lsls	r4, r3, #26
100009e2:	d4fc      	bmi.n	100009de <start_log+0x1a>
100009e4:	2310      	movs	r3, #16
100009e6:	6013      	str	r3, [r2, #0]
100009e8:	f001 ff74 	bl	100028d4 <time_us_64>
100009ec:	2700      	movs	r7, #0
100009ee:	4604      	mov	r4, r0
100009f0:	460d      	mov	r5, r1
100009f2:	4e19      	ldr	r6, [pc, #100]	@ (10000a58 <start_log+0x94>)
100009f4:	f8df 805c 	ldr.w	r8, [pc, #92]	@ 10000a54 <start_log+0x90>
100009f8:	e003      	b.n	10000a02 <start_log+0x3e>
100009fa:	f8d8 3018 	ldr.w	r3, [r8, #24]
100009fe:	06da      	lsls	r2, r3, #27
10000a00:	d51f      	bpl.n	10000a42 <start_log+0x7e>
10000a02:	f001 ff67 	bl	100028d4 <time_us_64>
10000a06:	1b00      	subs	r0, r0, r4
10000a08:	eb61 0105 	sbc.w	r1, r1, r5
10000a0c:	4286      	cmp	r6, r0
10000a0e:	eb77 0101 	sbcs.w	r1, r7, r1
10000a12:	d2f2      	bcs.n	100009fa <start_log+0x36>
10000a14:	2200      	movs	r2, #0
10000a16:	a901      	add	r1, sp, #4
10000a18:	2001      	movs	r0, #1
10000a1a:	f005 fd4d 	bl	100064b8 <tud_cdc_n_write>
10000a1e:	2001      	movs	r0, #1
10000a20:	f005 fd02 	bl	10006428 <tud_cdc_n_write_flush>
10000a24:	b002      	add	sp, #8
10000a26:	e8bd 81f0 	ldmia.w	sp!, {r4, r5, r6, r7, r8, pc}
10000a2a:	698b      	ldr	r3, [r1, #24]
10000a2c:	0698      	lsls	r0, r3, #26
10000a2e:	d4fc      	bmi.n	10000a2a <start_log+0x66>
10000a30:	2310      	movs	r3, #16
10000a32:	4a08      	ldr	r2, [pc, #32]	@ (10000a54 <start_log+0x90>)
10000a34:	600b      	str	r3, [r1, #0]
10000a36:	6993      	ldr	r3, [r2, #24]
10000a38:	f013 0320 	ands.w	r3, r3, #32
10000a3c:	d1fb      	bne.n	10000a36 <start_log+0x72>
10000a3e:	6013      	str	r3, [r2, #0]
10000a40:	e7d2      	b.n	100009e8 <start_log+0x24>
10000a42:	4a04      	ldr	r2, [pc, #16]	@ (10000a54 <start_log+0x90>)
10000a44:	6993      	ldr	r3, [r2, #24]
10000a46:	06db      	lsls	r3, r3, #27
10000a48:	d4fc      	bmi.n	10000a44 <start_log+0x80>
10000a4a:	6813      	ldr	r3, [r2, #0]
10000a4c:	2201      	movs	r2, #1
10000a4e:	f88d 3004 	strb.w	r3, [sp, #4]
10000a52:	e7e0      	b.n	10000a16 <start_log+0x52>
10000a54:	40070000 	.word	0x40070000
10000a58:	0001869f 	.word	0x0001869f

10000a5c <bank_v_persist>:
10000a5c:	b5f0      	push	{r4, r5, r6, r7, lr}
10000a5e:	b083      	sub	sp, #12
10000a60:	4607      	mov	r7, r0
10000a62:	f001 ff37 	bl	100028d4 <time_us_64>
10000a66:	f24c 3650 	movw	r6, #50000	@ 0xc350
10000a6a:	4604      	mov	r4, r0
10000a6c:	460d      	mov	r5, r1
10000a6e:	e008      	b.n	10000a82 <bank_v_persist+0x26>
10000a70:	f04f 30ff 	mov.w	r0, #4294967295
10000a74:	2100      	movs	r1, #0
10000a76:	f004 fec9 	bl	1000580c <tud_task_ext>
10000a7a:	2000      	movs	r0, #0
10000a7c:	f005 fc7e 	bl	1000637c <tud_cdc_n_available>
10000a80:	bb00      	cbnz	r0, 10000ac4 <bank_v_persist+0x68>
10000a82:	f001 ff27 	bl	100028d4 <time_us_64>
10000a86:	1b00      	subs	r0, r0, r4
10000a88:	eb61 0105 	sbc.w	r1, r1, r5
10000a8c:	42b0      	cmp	r0, r6
10000a8e:	f171 0100 	sbcs.w	r1, r1, #0
10000a92:	d3ed      	bcc.n	10000a70 <bank_v_persist+0x14>
10000a94:	783b      	ldrb	r3, [r7, #0]
10000a96:	7879      	ldrb	r1, [r7, #1]
10000a98:	78ba      	ldrb	r2, [r7, #2]
10000a9a:	440b      	add	r3, r1
10000a9c:	4413      	add	r3, r2
10000a9e:	78fa      	ldrb	r2, [r7, #3]
10000aa0:	b2db      	uxtb	r3, r3
10000aa2:	429a      	cmp	r2, r3
10000aa4:	d016      	beq.n	10000ad4 <bank_v_persist+0x78>
10000aa6:	233f      	movs	r3, #63	@ 0x3f
10000aa8:	2201      	movs	r2, #1
10000aaa:	2000      	movs	r0, #0
10000aac:	f10d 0107 	add.w	r1, sp, #7
10000ab0:	f88d 3007 	strb.w	r3, [sp, #7]
10000ab4:	f005 fd00 	bl	100064b8 <tud_cdc_n_write>
10000ab8:	2000      	movs	r0, #0
10000aba:	b003      	add	sp, #12
10000abc:	e8bd 40f0 	ldmia.w	sp!, {r4, r5, r6, r7, lr}
10000ac0:	f005 bcb2 	b.w	10006428 <tud_cdc_n_write_flush>
10000ac4:	2201      	movs	r2, #1
10000ac6:	2000      	movs	r0, #0
10000ac8:	1cf9      	adds	r1, r7, #3
10000aca:	f005 fc63 	bl	10006394 <tud_cdc_n_read>
10000ace:	2800      	cmp	r0, #0
10000ad0:	d0d7      	beq.n	10000a82 <bank_v_persist+0x26>
10000ad2:	e7df      	b.n	10000a94 <bank_v_persist+0x38>
10000ad4:	2201      	movs	r2, #1
10000ad6:	2000      	movs	r0, #0
10000ad8:	4900      	ldr	r1, [pc, #0]	@ (10000adc <bank_v_persist+0x80>)
10000ada:	e7eb      	b.n	10000ab4 <bank_v_persist+0x58>
10000adc:	200429d2 	.word	0x200429d2

10000ae0 <bank_current>:
10000ae0:	b5f0      	push	{r4, r5, r6, r7, lr}
10000ae2:	b083      	sub	sp, #12
10000ae4:	4607      	mov	r7, r0
10000ae6:	f001 fef5 	bl	100028d4 <time_us_64>
10000aea:	f24c 3650 	movw	r6, #50000	@ 0xc350
10000aee:	4604      	mov	r4, r0
10000af0:	460d      	mov	r5, r1
10000af2:	e008      	b.n	10000b06 <bank_current+0x26>
10000af4:	f04f 30ff 	mov.w	r0, #4294967295
10000af8:	2100      	movs	r1, #0
10000afa:	f004 fe87 	bl	1000580c <tud_task_ext>
10000afe:	2000      	movs	r0, #0
10000b00:	f005 fc3c 	bl	1000637c <tud_cdc_n_available>
10000b04:	bb00      	cbnz	r0, 10000b48 <bank_current+0x68>
10000b06:	f001 fee5 	bl	100028d4 <time_us_64>
10000b0a:	1b00      	subs	r0, r0, r4
10000b0c:	eb61 0105 	sbc.w	r1, r1, r5
10000b10:	42b0      	cmp	r0, r6
10000b12:	f171 0100 	sbcs.w	r1, r1, #0
10000b16:	d3ed      	bcc.n	10000af4 <bank_current+0x14>
10000b18:	783b      	ldrb	r3, [r7, #0]
10000b1a:	7879      	ldrb	r1, [r7, #1]
10000b1c:	78ba      	ldrb	r2, [r7, #2]
10000b1e:	440b      	add	r3, r1
10000b20:	4413      	add	r3, r2
10000b22:	78fa      	ldrb	r2, [r7, #3]
10000b24:	b2db      	uxtb	r3, r3
10000b26:	429a      	cmp	r2, r3
10000b28:	d016      	beq.n	10000b58 <bank_current+0x78>
10000b2a:	233f      	movs	r3, #63	@ 0x3f
10000b2c:	2201      	movs	r2, #1
10000b2e:	2000      	movs	r0, #0
10000b30:	f10d 0107 	add.w	r1, sp, #7
10000b34:	f88d 3007 	strb.w	r3, [sp, #7]
10000b38:	f005 fcbe 	bl	100064b8 <tud_cdc_n_write>
10000b3c:	2000      	movs	r0, #0
10000b3e:	b003      	add	sp, #12
10000b40:	e8bd 40f0 	ldmia.w	sp!, {r4, r5, r6, r7, lr}
10000b44:	f005 bc70 	b.w	10006428 <tud_cdc_n_write_flush>
10000b48:	2201      	movs	r2, #1
10000b4a:	2000      	movs	r0, #0
10000b4c:	1cf9      	adds	r1, r7, #3
10000b4e:	f005 fc21 	bl	10006394 <tud_cdc_n_read>
10000b52:	2800      	cmp	r0, #0
10000b54:	d0d7      	beq.n	10000b06 <bank_current+0x26>
10000b56:	e7df      	b.n	10000b18 <bank_current+0x38>
10000b58:	2201      	movs	r2, #1
10000b5a:	2000      	movs	r0, #0
10000b5c:	4900      	ldr	r1, [pc, #0]	@ (10000b60 <bank_current+0x80>)
10000b5e:	e7eb      	b.n	10000b38 <bank_current+0x58>
10000b60:	200429d2 	.word	0x200429d2

10000b64 <bank_volitile>:
10000b64:	b5f0      	push	{r4, r5, r6, r7, lr}
10000b66:	b083      	sub	sp, #12
10000b68:	4607      	mov	r7, r0
10000b6a:	f001 feb3 	bl	100028d4 <time_us_64>
10000b6e:	f24c 3650 	movw	r6, #50000	@ 0xc350
10000b72:	4604      	mov	r4, r0
10000b74:	460d      	mov	r5, r1
10000b76:	e008      	b.n	10000b8a <bank_volitile+0x26>
10000b78:	f04f 30ff 	mov.w	r0, #4294967295
10000b7c:	2100      	movs	r1, #0
10000b7e:	f004 fe45 	bl	1000580c <tud_task_ext>
10000b82:	2000      	movs	r0, #0
10000b84:	f005 fbfa 	bl	1000637c <tud_cdc_n_available>
10000b88:	bb00      	cbnz	r0, 10000bcc <bank_volitile+0x68>
10000b8a:	f001 fea3 	bl	100028d4 <time_us_64>
10000b8e:	1b00      	subs	r0, r0, r4
10000b90:	eb61 0105 	sbc.w	r1, r1, r5
10000b94:	42b0      	cmp	r0, r6
10000b96:	f171 0100 	sbcs.w	r1, r1, #0
10000b9a:	d3ed      	bcc.n	10000b78 <bank_volitile+0x14>
10000b9c:	783b      	ldrb	r3, [r7, #0]
10000b9e:	7879      	ldrb	r1, [r7, #1]
10000ba0:	78ba      	ldrb	r2, [r7, #2]
10000ba2:	440b      	add	r3, r1
10000ba4:	4413      	add	r3, r2
10000ba6:	78fa      	ldrb	r2, [r7, #3]
10000ba8:	b2db      	uxtb	r3, r3
10000baa:	429a      	cmp	r2, r3
10000bac:	d016      	beq.n	10000bdc <bank_volitile+0x78>
10000bae:	233f      	movs	r3, #63	@ 0x3f
10000bb0:	2201      	movs	r2, #1
10000bb2:	2000      	movs	r0, #0
10000bb4:	f10d 0107 	add.w	r1, sp, #7
10000bb8:	f88d 3007 	strb.w	r3, [sp, #7]
10000bbc:	f005 fc7c 	bl	100064b8 <tud_cdc_n_write>
10000bc0:	2000      	movs	r0, #0
10000bc2:	b003      	add	sp, #12
10000bc4:	e8bd 40f0 	ldmia.w	sp!, {r4, r5, r6, r7, lr}
10000bc8:	f005 bc2e 	b.w	10006428 <tud_cdc_n_write_flush>
10000bcc:	2201      	movs	r2, #1
10000bce:	2000      	movs	r0, #0
10000bd0:	1cf9      	adds	r1, r7, #3
10000bd2:	f005 fbdf 	bl	10006394 <tud_cdc_n_read>
10000bd6:	2800      	cmp	r0, #0
10000bd8:	d0d7      	beq.n	10000b8a <bank_volitile+0x26>
10000bda:	e7df      	b.n	10000b9c <bank_volitile+0x38>
10000bdc:	2201      	movs	r2, #1
10000bde:	2000      	movs	r0, #0
10000be0:	4900      	ldr	r1, [pc, #0]	@ (10000be4 <bank_volitile+0x80>)
10000be2:	e7eb      	b.n	10000bbc <bank_volitile+0x58>
10000be4:	200429d4 	.word	0x200429d4

10000be8 <deploy_bx>:
10000be8:	e92d 43f0 	stmdb	sp!, {r4, r5, r6, r7, r8, r9, lr}
10000bec:	b08f      	sub	sp, #60	@ 0x3c
10000bee:	4607      	mov	r7, r0
10000bf0:	f001 fe70 	bl	100028d4 <time_us_64>
10000bf4:	f24c 3650 	movw	r6, #50000	@ 0xc350
10000bf8:	4604      	mov	r4, r0
10000bfa:	460d      	mov	r5, r1
10000bfc:	e009      	b.n	10000c12 <deploy_bx+0x2a>
10000bfe:	f04f 30ff 	mov.w	r0, #4294967295
10000c02:	2100      	movs	r1, #0
10000c04:	f004 fe02 	bl	1000580c <tud_task_ext>
10000c08:	2000      	movs	r0, #0
10000c0a:	f005 fbb7 	bl	1000637c <tud_cdc_n_available>
10000c0e:	2800      	cmp	r0, #0
10000c10:	d140      	bne.n	10000c94 <deploy_bx+0xac>
10000c12:	f001 fe5f 	bl	100028d4 <time_us_64>
10000c16:	1b00      	subs	r0, r0, r4
10000c18:	eb61 0105 	sbc.w	r1, r1, r5
10000c1c:	42b0      	cmp	r0, r6
10000c1e:	f171 0100 	sbcs.w	r1, r1, #0
10000c22:	d3ec      	bcc.n	10000bfe <deploy_bx+0x16>
10000c24:	466c      	mov	r4, sp
10000c26:	46ec      	mov	ip, sp
10000c28:	f8b7 8000 	ldrh.w	r8, [r7]
10000c2c:	4e28      	ldr	r6, [pc, #160]	@ (10000cd0 <deploy_bx+0xe8>)
10000c2e:	f897 e002 	ldrb.w	lr, [r7, #2]
10000c32:	fa98 f398 	rev16.w	r3, r8
10000c36:	b29b      	uxth	r3, r3
10000c38:	ea4e 2e03 	orr.w	lr, lr, r3, lsl #8
10000c3c:	ce0f      	ldmia	r6!, {r0, r1, r2, r3}
10000c3e:	c40f      	stmia	r4!, {r0, r1, r2, r3}
10000c40:	e896 0007 	ldmia.w	r6, {r0, r1, r2}
10000c44:	e884 0007 	stmia.w	r4, {r0, r1, r2}
10000c48:	ad07      	add	r5, sp, #28
10000c4a:	e8bc 000f 	ldmia.w	ip!, {r0, r1, r2, r3}
10000c4e:	c50f      	stmia	r5!, {r0, r1, r2, r3}
10000c50:	e894 0007 	ldmia.w	r4, {r0, r1, r2}
10000c54:	f8df 9080 	ldr.w	r9, [pc, #128]	@ 10000cd8 <deploy_bx+0xf0>
10000c58:	e885 0007 	stmia.w	r5, {r0, r1, r2}
10000c5c:	45ce      	cmp	lr, r9
10000c5e:	d021      	beq.n	10000ca4 <deploy_bx+0xbc>
10000c60:	4b1c      	ldr	r3, [pc, #112]	@ (10000cd4 <deploy_bx+0xec>)
10000c62:	459e      	cmp	lr, r3
10000c64:	d029      	beq.n	10000cba <deploy_bx+0xd2>
10000c66:	330d      	adds	r3, #13
10000c68:	459e      	cmp	lr, r3
10000c6a:	d02e      	beq.n	10000cca <deploy_bx+0xe2>
10000c6c:	3301      	adds	r3, #1
10000c6e:	459e      	cmp	lr, r3
10000c70:	d029      	beq.n	10000cc6 <deploy_bx+0xde>
10000c72:	f245 2342 	movw	r3, #21058	@ 0x5242
10000c76:	4598      	cmp	r8, r3
10000c78:	d023      	beq.n	10000cc2 <deploy_bx+0xda>
10000c7a:	f244 5342 	movw	r3, #17730	@ 0x4542
10000c7e:	4598      	cmp	r8, r3
10000c80:	d01d      	beq.n	10000cbe <deploy_bx+0xd6>
10000c82:	f245 3342 	movw	r3, #21314	@ 0x5342
10000c86:	4598      	cmp	r8, r3
10000c88:	bf08      	it	eq
10000c8a:	2306      	moveq	r3, #6
10000c8c:	d00b      	beq.n	10000ca6 <deploy_bx+0xbe>
10000c8e:	b00f      	add	sp, #60	@ 0x3c
10000c90:	e8bd 83f0 	ldmia.w	sp!, {r4, r5, r6, r7, r8, r9, pc}
10000c94:	2201      	movs	r2, #1
10000c96:	2000      	movs	r0, #0
10000c98:	1cb9      	adds	r1, r7, #2
10000c9a:	f005 fb7b 	bl	10006394 <tud_cdc_n_read>
10000c9e:	2800      	cmp	r0, #0
10000ca0:	d0b7      	beq.n	10000c12 <deploy_bx+0x2a>
10000ca2:	e7bf      	b.n	10000c24 <deploy_bx+0x3c>
10000ca4:	2300      	movs	r3, #0
10000ca6:	4638      	mov	r0, r7
10000ca8:	aa0e      	add	r2, sp, #56	@ 0x38
10000caa:	eb02 0383 	add.w	r3, r2, r3, lsl #2
10000cae:	f853 3c1c 	ldr.w	r3, [r3, #-28]
10000cb2:	b00f      	add	sp, #60	@ 0x3c
10000cb4:	e8bd 43f0 	ldmia.w	sp!, {r4, r5, r6, r7, r8, r9, lr}
10000cb8:	4718      	bx	r3
10000cba:	2301      	movs	r3, #1
10000cbc:	e7f3      	b.n	10000ca6 <deploy_bx+0xbe>
10000cbe:	2305      	movs	r3, #5
10000cc0:	e7f1      	b.n	10000ca6 <deploy_bx+0xbe>
10000cc2:	2304      	movs	r3, #4
10000cc4:	e7ef      	b.n	10000ca6 <deploy_bx+0xbe>
10000cc6:	2303      	movs	r3, #3
10000cc8:	e7ed      	b.n	10000ca6 <deploy_bx+0xbe>
10000cca:	2302      	movs	r3, #2
10000ccc:	e7eb      	b.n	10000ca6 <deploy_bx+0xbe>
10000cce:	bf00      	nop
10000cd0:	1000809c 	.word	0x1000809c
10000cd4:	00424545 	.word	0x00424545
10000cd8:	00425252 	.word	0x00425252

10000cdc <bulk_read>:
10000cdc:	e92d 43f0 	stmdb	sp!, {r4, r5, r6, r7, r8, r9, lr}
10000ce0:	b083      	sub	sp, #12
10000ce2:	4607      	mov	r7, r0
10000ce4:	f001 fdf6 	bl	100028d4 <time_us_64>
10000ce8:	f04f 0800 	mov.w	r8, #0
10000cec:	f24c 3650 	movw	r6, #50000	@ 0xc350
10000cf0:	4604      	mov	r4, r0
10000cf2:	460d      	mov	r5, r1
10000cf4:	e009      	b.n	10000d0a <bulk_read+0x2e>
10000cf6:	f04f 30ff 	mov.w	r0, #4294967295
10000cfa:	2100      	movs	r1, #0
10000cfc:	f004 fd86 	bl	1000580c <tud_task_ext>
10000d00:	2000      	movs	r0, #0
10000d02:	f005 fb3b 	bl	1000637c <tud_cdc_n_available>
10000d06:	2800      	cmp	r0, #0
10000d08:	d17f      	bne.n	10000e0a <bulk_read+0x12e>
10000d0a:	f001 fde3 	bl	100028d4 <time_us_64>
10000d0e:	1b00      	subs	r0, r0, r4
10000d10:	eb61 0105 	sbc.w	r1, r1, r5
10000d14:	42b0      	cmp	r0, r6
10000d16:	f171 0100 	sbcs.w	r1, r1, #0
10000d1a:	d3ec      	bcc.n	10000cf6 <bulk_read+0x1a>
10000d1c:	f897 8002 	ldrb.w	r8, [r7, #2]
10000d20:	f8b7 9003 	ldrh.w	r9, [r7, #3]
10000d24:	f001 fdd6 	bl	100028d4 <time_us_64>
10000d28:	f24c 3650 	movw	r6, #50000	@ 0xc350
10000d2c:	4604      	mov	r4, r0
10000d2e:	460d      	mov	r5, r1
10000d30:	e009      	b.n	10000d46 <bulk_read+0x6a>
10000d32:	f04f 30ff 	mov.w	r0, #4294967295
10000d36:	2100      	movs	r1, #0
10000d38:	f004 fd68 	bl	1000580c <tud_task_ext>
10000d3c:	2000      	movs	r0, #0
10000d3e:	f005 fb1d 	bl	1000637c <tud_cdc_n_available>
10000d42:	2800      	cmp	r0, #0
10000d44:	d16f      	bne.n	10000e26 <bulk_read+0x14a>
10000d46:	f001 fdc5 	bl	100028d4 <time_us_64>
10000d4a:	1b00      	subs	r0, r0, r4
10000d4c:	eb61 0105 	sbc.w	r1, r1, r5
10000d50:	42b0      	cmp	r0, r6
10000d52:	f171 0100 	sbcs.w	r1, r1, #0
10000d56:	d3ec      	bcc.n	10000d32 <bulk_read+0x56>
10000d58:	787a      	ldrb	r2, [r7, #1]
10000d5a:	78bb      	ldrb	r3, [r7, #2]
10000d5c:	7939      	ldrb	r1, [r7, #4]
10000d5e:	4413      	add	r3, r2
10000d60:	783a      	ldrb	r2, [r7, #0]
10000d62:	4413      	add	r3, r2
10000d64:	78fa      	ldrb	r2, [r7, #3]
10000d66:	fa52 f383 	uxtab	r3, r2, r3
10000d6a:	797a      	ldrb	r2, [r7, #5]
10000d6c:	fa51 f383 	uxtab	r3, r1, r3
10000d70:	fa52 f383 	uxtab	r3, r2, r3
10000d74:	f89d 2004 	ldrb.w	r2, [sp, #4]
10000d78:	b2db      	uxtb	r3, r3
10000d7a:	429a      	cmp	r2, r3
10000d7c:	d142      	bne.n	10000e04 <bulk_read+0x128>
10000d7e:	f489 4900 	eor.w	r9, r9, #32768	@ 0x8000
10000d82:	eb09 2308 	add.w	r3, r9, r8, lsl #8
10000d86:	f5b3 4f00 	cmp.w	r3, #32768	@ 0x8000
10000d8a:	ea4f 2408 	mov.w	r4, r8, lsl #8
10000d8e:	d839      	bhi.n	10000e04 <bulk_read+0x128>
10000d90:	4d2a      	ldr	r5, [pc, #168]	@ (10000e3c <bulk_read+0x160>)
10000d92:	2100      	movs	r1, #0
10000d94:	4628      	mov	r0, r5
10000d96:	f006 ffa3 	bl	10007ce0 <__mutex_try_enter_veneer>
10000d9a:	2800      	cmp	r0, #0
10000d9c:	d0f9      	beq.n	10000d92 <bulk_read+0xb6>
10000d9e:	4d28      	ldr	r5, [pc, #160]	@ (10000e40 <bulk_read+0x164>)
10000da0:	6829      	ldr	r1, [r5, #0]
10000da2:	2c00      	cmp	r4, #0
10000da4:	d047      	beq.n	10000e36 <bulk_read+0x15a>
10000da6:	4449      	add	r1, r9
10000da8:	4608      	mov	r0, r1
10000daa:	2300      	movs	r3, #0
10000dac:	1867      	adds	r7, r4, r1
10000dae:	f850 2b04 	ldr.w	r2, [r0], #4
10000db2:	f003 367f 	and.w	r6, r3, #2139062143	@ 0x7f7f7f7f
10000db6:	4053      	eors	r3, r2
10000db8:	f002 327f 	and.w	r2, r2, #2139062143	@ 0x7f7f7f7f
10000dbc:	4432      	add	r2, r6
10000dbe:	f003 3380 	and.w	r3, r3, #2155905152	@ 0x80808080
10000dc2:	4287      	cmp	r7, r0
10000dc4:	ea83 0302 	eor.w	r3, r3, r2
10000dc8:	d1f1      	bne.n	10000dae <bulk_read+0xd2>
10000dca:	f3c3 2207 	ubfx	r2, r3, #8, #8
10000dce:	441a      	add	r2, r3
10000dd0:	f3c3 4007 	ubfx	r0, r3, #16, #8
10000dd4:	4402      	add	r2, r0
10000dd6:	eb02 6313 	add.w	r3, r2, r3, lsr #24
10000dda:	b2db      	uxtb	r3, r3
10000ddc:	4622      	mov	r2, r4
10000dde:	2000      	movs	r0, #0
10000de0:	f88d 3007 	strb.w	r3, [sp, #7]
10000de4:	f005 fb68 	bl	100064b8 <tud_cdc_n_write>
10000de8:	2201      	movs	r2, #1
10000dea:	f10d 0107 	add.w	r1, sp, #7
10000dee:	2000      	movs	r0, #0
10000df0:	f005 fb62 	bl	100064b8 <tud_cdc_n_write>
10000df4:	2000      	movs	r0, #0
10000df6:	f005 fb17 	bl	10006428 <tud_cdc_n_write_flush>
10000dfa:	4810      	ldr	r0, [pc, #64]	@ (10000e3c <bulk_read+0x160>)
10000dfc:	682b      	ldr	r3, [r5, #0]
10000dfe:	6083      	str	r3, [r0, #8]
10000e00:	f006 ff52 	bl	10007ca8 <__mutex_exit_veneer>
10000e04:	b003      	add	sp, #12
10000e06:	e8bd 83f0 	ldmia.w	sp!, {r4, r5, r6, r7, r8, r9, pc}
10000e0a:	f108 0102 	add.w	r1, r8, #2
10000e0e:	f1c8 0203 	rsb	r2, r8, #3
10000e12:	2000      	movs	r0, #0
10000e14:	4439      	add	r1, r7
10000e16:	f005 fabd 	bl	10006394 <tud_cdc_n_read>
10000e1a:	4480      	add	r8, r0
10000e1c:	f1b8 0f02 	cmp.w	r8, #2
10000e20:	f67f af73 	bls.w	10000d0a <bulk_read+0x2e>
10000e24:	e77a      	b.n	10000d1c <bulk_read+0x40>
10000e26:	2201      	movs	r2, #1
10000e28:	2000      	movs	r0, #0
10000e2a:	a901      	add	r1, sp, #4
10000e2c:	f005 fab2 	bl	10006394 <tud_cdc_n_read>
10000e30:	2800      	cmp	r0, #0
10000e32:	d088      	beq.n	10000d46 <bulk_read+0x6a>
10000e34:	e790      	b.n	10000d58 <bulk_read+0x7c>
10000e36:	4623      	mov	r3, r4
10000e38:	4449      	add	r1, r9
10000e3a:	e7cf      	b.n	10000ddc <bulk_read+0x100>
10000e3c:	20042998 	.word	0x20042998
10000e40:	20042954 	.word	0x20042954

10000e44 <micro_read>:
10000e44:	e92d 43f0 	stmdb	sp!, {r4, r5, r6, r7, r8, r9, lr}
10000e48:	b083      	sub	sp, #12
10000e4a:	4607      	mov	r7, r0
10000e4c:	f001 fd42 	bl	100028d4 <time_us_64>
10000e50:	f04f 0800 	mov.w	r8, #0
10000e54:	f24c 3650 	movw	r6, #50000	@ 0xc350
10000e58:	4604      	mov	r4, r0
10000e5a:	460d      	mov	r5, r1
10000e5c:	e00a      	b.n	10000e74 <micro_read+0x30>
10000e5e:	f04f 30ff 	mov.w	r0, #4294967295
10000e62:	2100      	movs	r1, #0
10000e64:	f004 fcd2 	bl	1000580c <tud_task_ext>
10000e68:	2000      	movs	r0, #0
10000e6a:	f005 fa87 	bl	1000637c <tud_cdc_n_available>
10000e6e:	2800      	cmp	r0, #0
10000e70:	f040 8097 	bne.w	10000fa2 <micro_read+0x15e>
10000e74:	f001 fd2e 	bl	100028d4 <time_us_64>
10000e78:	1b00      	subs	r0, r0, r4
10000e7a:	eb61 0105 	sbc.w	r1, r1, r5
10000e7e:	42b0      	cmp	r0, r6
10000e80:	f171 0100 	sbcs.w	r1, r1, #0
10000e84:	d3eb      	bcc.n	10000e5e <micro_read+0x1a>
10000e86:	f897 8001 	ldrb.w	r8, [r7, #1]
10000e8a:	f8b7 9002 	ldrh.w	r9, [r7, #2]
10000e8e:	f1b8 0f00 	cmp.w	r8, #0
10000e92:	bf08      	it	eq
10000e94:	f44f 7880 	moveq.w	r8, #256	@ 0x100
10000e98:	f001 fd1c 	bl	100028d4 <time_us_64>
10000e9c:	f24c 3650 	movw	r6, #50000	@ 0xc350
10000ea0:	4604      	mov	r4, r0
10000ea2:	460d      	mov	r5, r1
10000ea4:	e00a      	b.n	10000ebc <micro_read+0x78>
10000ea6:	f04f 30ff 	mov.w	r0, #4294967295
10000eaa:	2100      	movs	r1, #0
10000eac:	f004 fcae 	bl	1000580c <tud_task_ext>
10000eb0:	2000      	movs	r0, #0
10000eb2:	f005 fa63 	bl	1000637c <tud_cdc_n_available>
10000eb6:	2800      	cmp	r0, #0
10000eb8:	f040 8081 	bne.w	10000fbe <micro_read+0x17a>
10000ebc:	f001 fd0a 	bl	100028d4 <time_us_64>
10000ec0:	1b00      	subs	r0, r0, r4
10000ec2:	eb61 0105 	sbc.w	r1, r1, r5
10000ec6:	42b0      	cmp	r0, r6
10000ec8:	f171 0100 	sbcs.w	r1, r1, #0
10000ecc:	d3eb      	bcc.n	10000ea6 <micro_read+0x62>
10000ece:	78ba      	ldrb	r2, [r7, #2]
10000ed0:	787b      	ldrb	r3, [r7, #1]
10000ed2:	7939      	ldrb	r1, [r7, #4]
10000ed4:	4413      	add	r3, r2
10000ed6:	783a      	ldrb	r2, [r7, #0]
10000ed8:	4413      	add	r3, r2
10000eda:	78fa      	ldrb	r2, [r7, #3]
10000edc:	fa52 f383 	uxtab	r3, r2, r3
10000ee0:	797a      	ldrb	r2, [r7, #5]
10000ee2:	fa51 f383 	uxtab	r3, r1, r3
10000ee6:	fa52 f383 	uxtab	r3, r2, r3
10000eea:	f89d 2004 	ldrb.w	r2, [sp, #4]
10000eee:	b2db      	uxtb	r3, r3
10000ef0:	429a      	cmp	r2, r3
10000ef2:	d153      	bne.n	10000f9c <micro_read+0x158>
10000ef4:	fa99 f499 	rev16.w	r4, r9
10000ef8:	f5a4 4400 	sub.w	r4, r4, #32768	@ 0x8000
10000efc:	b2a4      	uxth	r4, r4
10000efe:	eb04 0308 	add.w	r3, r4, r8
10000f02:	f5b3 4f00 	cmp.w	r3, #32768	@ 0x8000
10000f06:	d849      	bhi.n	10000f9c <micro_read+0x158>
10000f08:	4d33      	ldr	r5, [pc, #204]	@ (10000fd8 <micro_read+0x194>)
10000f0a:	2100      	movs	r1, #0
10000f0c:	4628      	mov	r0, r5
10000f0e:	f006 fee7 	bl	10007ce0 <__mutex_try_enter_veneer>
10000f12:	2800      	cmp	r0, #0
10000f14:	d0f9      	beq.n	10000f0a <micro_read+0xc6>
10000f16:	4d31      	ldr	r5, [pc, #196]	@ (10000fdc <micro_read+0x198>)
10000f18:	f108 33ff 	add.w	r3, r8, #4294967295
10000f1c:	2b15      	cmp	r3, #21
10000f1e:	6828      	ldr	r0, [r5, #0]
10000f20:	d956      	bls.n	10000fd0 <micro_read+0x18c>
10000f22:	1901      	adds	r1, r0, r4
10000f24:	460f      	mov	r7, r1
10000f26:	2300      	movs	r3, #0
10000f28:	f408 76fe 	and.w	r6, r8, #508	@ 0x1fc
10000f2c:	eb06 0c01 	add.w	ip, r6, r1
10000f30:	f857 2b04 	ldr.w	r2, [r7], #4
10000f34:	f003 3e7f 	and.w	lr, r3, #2139062143	@ 0x7f7f7f7f
10000f38:	4053      	eors	r3, r2
10000f3a:	f002 327f 	and.w	r2, r2, #2139062143	@ 0x7f7f7f7f
10000f3e:	4472      	add	r2, lr
10000f40:	f003 3380 	and.w	r3, r3, #2155905152	@ 0x80808080
10000f44:	4567      	cmp	r7, ip
10000f46:	ea83 0302 	eor.w	r3, r3, r2
10000f4a:	d1f1      	bne.n	10000f30 <micro_read+0xec>
10000f4c:	f3c3 2207 	ubfx	r2, r3, #8, #8
10000f50:	441a      	add	r2, r3
10000f52:	f3c3 4707 	ubfx	r7, r3, #16, #8
10000f56:	443a      	add	r2, r7
10000f58:	eb02 6313 	add.w	r3, r2, r3, lsr #24
10000f5c:	45b0      	cmp	r8, r6
10000f5e:	b2db      	uxtb	r3, r3
10000f60:	d008      	beq.n	10000f74 <micro_read+0x130>
10000f62:	4434      	add	r4, r6
10000f64:	4420      	add	r0, r4
10000f66:	f810 2b01 	ldrb.w	r2, [r0], #1
10000f6a:	4413      	add	r3, r2
10000f6c:	1a42      	subs	r2, r0, r1
10000f6e:	4590      	cmp	r8, r2
10000f70:	b2db      	uxtb	r3, r3
10000f72:	d8f8      	bhi.n	10000f66 <micro_read+0x122>
10000f74:	4642      	mov	r2, r8
10000f76:	2000      	movs	r0, #0
10000f78:	f88d 3007 	strb.w	r3, [sp, #7]
10000f7c:	f005 fa9c 	bl	100064b8 <tud_cdc_n_write>
10000f80:	2201      	movs	r2, #1
10000f82:	f10d 0107 	add.w	r1, sp, #7
10000f86:	2000      	movs	r0, #0
10000f88:	f005 fa96 	bl	100064b8 <tud_cdc_n_write>
10000f8c:	2000      	movs	r0, #0
10000f8e:	f005 fa4b 	bl	10006428 <tud_cdc_n_write_flush>
10000f92:	4811      	ldr	r0, [pc, #68]	@ (10000fd8 <micro_read+0x194>)
10000f94:	682b      	ldr	r3, [r5, #0]
10000f96:	6083      	str	r3, [r0, #8]
10000f98:	f006 fe86 	bl	10007ca8 <__mutex_exit_veneer>
10000f9c:	b003      	add	sp, #12
10000f9e:	e8bd 83f0 	ldmia.w	sp!, {r4, r5, r6, r7, r8, r9, pc}
10000fa2:	f108 0102 	add.w	r1, r8, #2
10000fa6:	f1c8 0202 	rsb	r2, r8, #2
10000faa:	2000      	movs	r0, #0
10000fac:	4439      	add	r1, r7
10000fae:	f005 f9f1 	bl	10006394 <tud_cdc_n_read>
10000fb2:	4480      	add	r8, r0
10000fb4:	f1b8 0f01 	cmp.w	r8, #1
10000fb8:	f67f af5c 	bls.w	10000e74 <micro_read+0x30>
10000fbc:	e763      	b.n	10000e86 <micro_read+0x42>
10000fbe:	2201      	movs	r2, #1
10000fc0:	2000      	movs	r0, #0
10000fc2:	a901      	add	r1, sp, #4
10000fc4:	f005 f9e6 	bl	10006394 <tud_cdc_n_read>
10000fc8:	2800      	cmp	r0, #0
10000fca:	f43f af77 	beq.w	10000ebc <micro_read+0x78>
10000fce:	e77e      	b.n	10000ece <micro_read+0x8a>
10000fd0:	2300      	movs	r3, #0
10000fd2:	1901      	adds	r1, r0, r4
10000fd4:	461e      	mov	r6, r3
10000fd6:	e7c4      	b.n	10000f62 <micro_read+0x11e>
10000fd8:	20042998 	.word	0x20042998
10000fdc:	20042954 	.word	0x20042954

10000fe0 <micro_write>:
10000fe0:	e92d 4ff0 	stmdb	sp!, {r4, r5, r6, r7, r8, r9, sl, fp, lr}
10000fe4:	7843      	ldrb	r3, [r0, #1]
10000fe6:	4607      	mov	r7, r0
10000fe8:	b083      	sub	sp, #12
10000fea:	2b00      	cmp	r3, #0
10000fec:	f000 80da 	beq.w	100011a4 <micro_write+0x1c4>
10000ff0:	4699      	mov	r9, r3
10000ff2:	f103 0b02 	add.w	fp, r3, #2
10000ff6:	f103 0804 	add.w	r8, r3, #4
10000ffa:	f001 fc6b 	bl	100028d4 <time_us_64>
10000ffe:	f04f 0a00 	mov.w	sl, #0
10001002:	f24c 3650 	movw	r6, #50000	@ 0xc350
10001006:	4604      	mov	r4, r0
10001008:	460d      	mov	r5, r1
1000100a:	e00a      	b.n	10001022 <micro_write+0x42>
1000100c:	f04f 30ff 	mov.w	r0, #4294967295
10001010:	2100      	movs	r1, #0
10001012:	f004 fbfb 	bl	1000580c <tud_task_ext>
10001016:	2000      	movs	r0, #0
10001018:	f005 f9b0 	bl	1000637c <tud_cdc_n_available>
1000101c:	2800      	cmp	r0, #0
1000101e:	f040 80ab 	bne.w	10001178 <micro_write+0x198>
10001022:	f001 fc57 	bl	100028d4 <time_us_64>
10001026:	1b00      	subs	r0, r0, r4
10001028:	eb61 0105 	sbc.w	r1, r1, r5
1000102c:	42b0      	cmp	r0, r6
1000102e:	f171 0100 	sbcs.w	r1, r1, #0
10001032:	d3eb      	bcc.n	1000100c <micro_write+0x2c>
10001034:	f8b7 a002 	ldrh.w	sl, [r7, #2]
10001038:	f001 fc4c 	bl	100028d4 <time_us_64>
1000103c:	f24c 3650 	movw	r6, #50000	@ 0xc350
10001040:	4604      	mov	r4, r0
10001042:	460d      	mov	r5, r1
10001044:	e00a      	b.n	1000105c <micro_write+0x7c>
10001046:	f04f 30ff 	mov.w	r0, #4294967295
1000104a:	2100      	movs	r1, #0
1000104c:	f004 fbde 	bl	1000580c <tud_task_ext>
10001050:	2000      	movs	r0, #0
10001052:	f005 f993 	bl	1000637c <tud_cdc_n_available>
10001056:	2800      	cmp	r0, #0
10001058:	f040 809b 	bne.w	10001192 <micro_write+0x1b2>
1000105c:	f001 fc3a 	bl	100028d4 <time_us_64>
10001060:	1b00      	subs	r0, r0, r4
10001062:	eb61 0105 	sbc.w	r1, r1, r5
10001066:	42b0      	cmp	r0, r6
10001068:	f171 0100 	sbcs.w	r1, r1, #0
1000106c:	d3eb      	bcc.n	10001046 <micro_write+0x66>
1000106e:	f1b8 0f16 	cmp.w	r8, #22
10001072:	f89d 1004 	ldrb.w	r1, [sp, #4]
10001076:	f240 809c 	bls.w	100011b2 <micro_write+0x1d2>
1000107a:	463c      	mov	r4, r7
1000107c:	2300      	movs	r3, #0
1000107e:	f408 70fe 	and.w	r0, r8, #508	@ 0x1fc
10001082:	183d      	adds	r5, r7, r0
10001084:	f854 2b04 	ldr.w	r2, [r4], #4
10001088:	f003 367f 	and.w	r6, r3, #2139062143	@ 0x7f7f7f7f
1000108c:	4053      	eors	r3, r2
1000108e:	f002 327f 	and.w	r2, r2, #2139062143	@ 0x7f7f7f7f
10001092:	4432      	add	r2, r6
10001094:	f003 3380 	and.w	r3, r3, #2155905152	@ 0x80808080
10001098:	42ac      	cmp	r4, r5
1000109a:	ea83 0302 	eor.w	r3, r3, r2
1000109e:	d1f1      	bne.n	10001084 <micro_write+0xa4>
100010a0:	f3c3 2207 	ubfx	r2, r3, #8, #8
100010a4:	441a      	add	r2, r3
100010a6:	f3c3 4407 	ubfx	r4, r3, #16, #8
100010aa:	4422      	add	r2, r4
100010ac:	eb02 6213 	add.w	r2, r2, r3, lsr #24
100010b0:	4580      	cmp	r8, r0
100010b2:	b2d2      	uxtb	r2, r2
100010b4:	d00a      	beq.n	100010cc <micro_write+0xec>
100010b6:	3801      	subs	r0, #1
100010b8:	4438      	add	r0, r7
100010ba:	4603      	mov	r3, r0
100010bc:	f810 4f01 	ldrb.w	r4, [r0, #1]!
100010c0:	3302      	adds	r3, #2
100010c2:	1bdb      	subs	r3, r3, r7
100010c4:	4422      	add	r2, r4
100010c6:	4598      	cmp	r8, r3
100010c8:	b2d2      	uxtb	r2, r2
100010ca:	d8f6      	bhi.n	100010ba <micro_write+0xda>
100010cc:	4291      	cmp	r1, r2
100010ce:	d150      	bne.n	10001172 <micro_write+0x192>
100010d0:	fa9a f49a 	rev16.w	r4, sl
100010d4:	f5a4 4400 	sub.w	r4, r4, #32768	@ 0x8000
100010d8:	b2a4      	uxth	r4, r4
100010da:	eb04 0309 	add.w	r3, r4, r9
100010de:	f5b3 4f00 	cmp.w	r3, #32768	@ 0x8000
100010e2:	d846      	bhi.n	10001172 <micro_write+0x192>
100010e4:	4d34      	ldr	r5, [pc, #208]	@ (100011b8 <micro_write+0x1d8>)
100010e6:	2100      	movs	r1, #0
100010e8:	4628      	mov	r0, r5
100010ea:	f006 fdf9 	bl	10007ce0 <__mutex_try_enter_veneer>
100010ee:	2800      	cmp	r0, #0
100010f0:	d0f9      	beq.n	100010e6 <micro_write+0x106>
100010f2:	f8df 80d0 	ldr.w	r8, [pc, #208]	@ 100011c4 <micro_write+0x1e4>
100010f6:	4e31      	ldr	r6, [pc, #196]	@ (100011bc <micro_write+0x1dc>)
100010f8:	f8d8 0000 	ldr.w	r0, [r8]
100010fc:	3704      	adds	r7, #4
100010fe:	464a      	mov	r2, r9
10001100:	4639      	mov	r1, r7
10001102:	4420      	add	r0, r4
10001104:	f006 fbbe 	bl	10007884 <memcpy>
10001108:	6830      	ldr	r0, [r6, #0]
1000110a:	4639      	mov	r1, r7
1000110c:	464a      	mov	r2, r9
1000110e:	4420      	add	r0, r4
10001110:	f006 fbb8 	bl	10007884 <memcpy>
10001114:	f8d8 3000 	ldr.w	r3, [r8]
10001118:	4827      	ldr	r0, [pc, #156]	@ (100011b8 <micro_write+0x1d8>)
1000111a:	60ab      	str	r3, [r5, #8]
1000111c:	f006 fdc4 	bl	10007ca8 <__mutex_exit_veneer>
10001120:	6836      	ldr	r6, [r6, #0]
10001122:	f004 f8d5 	bl	100052d0 <multicore_lockout_start_blocking>
10001126:	4631      	mov	r1, r6
10001128:	2201      	movs	r2, #1
1000112a:	4620      	mov	r0, r4
1000112c:	f006 fdb4 	bl	10007c98 <__save_to_flash_veneer>
10001130:	f004 f900 	bl	10005334 <multicore_lockout_end_blocking>
10001134:	4e20      	ldr	r6, [pc, #128]	@ (100011b8 <micro_write+0x1d8>)
10001136:	2100      	movs	r1, #0
10001138:	4630      	mov	r0, r6
1000113a:	f006 fdd1 	bl	10007ce0 <__mutex_try_enter_veneer>
1000113e:	2800      	cmp	r0, #0
10001140:	d0f9      	beq.n	10001136 <micro_write+0x156>
10001142:	f8d8 3000 	ldr.w	r3, [r8]
10001146:	481c      	ldr	r0, [pc, #112]	@ (100011b8 <micro_write+0x1d8>)
10001148:	f8a5 900e 	strh.w	r9, [r5, #14]
1000114c:	60ab      	str	r3, [r5, #8]
1000114e:	81ac      	strh	r4, [r5, #12]
10001150:	f006 fdaa 	bl	10007ca8 <__mutex_exit_veneer>
10001154:	234f      	movs	r3, #79	@ 0x4f
10001156:	2201      	movs	r2, #1
10001158:	f10d 0107 	add.w	r1, sp, #7
1000115c:	2000      	movs	r0, #0
1000115e:	f88d 3007 	strb.w	r3, [sp, #7]
10001162:	f005 f9a9 	bl	100064b8 <tud_cdc_n_write>
10001166:	2000      	movs	r0, #0
10001168:	f005 f95e 	bl	10006428 <tud_cdc_n_write_flush>
1000116c:	2201      	movs	r2, #1
1000116e:	4b14      	ldr	r3, [pc, #80]	@ (100011c0 <micro_write+0x1e0>)
10001170:	701a      	strb	r2, [r3, #0]
10001172:	b003      	add	sp, #12
10001174:	e8bd 8ff0 	ldmia.w	sp!, {r4, r5, r6, r7, r8, r9, sl, fp, pc}
10001178:	f10a 0102 	add.w	r1, sl, #2
1000117c:	ebab 020a 	sub.w	r2, fp, sl
10001180:	2000      	movs	r0, #0
10001182:	4439      	add	r1, r7
10001184:	f005 f906 	bl	10006394 <tud_cdc_n_read>
10001188:	4482      	add	sl, r0
1000118a:	45da      	cmp	sl, fp
1000118c:	f4ff af49 	bcc.w	10001022 <micro_write+0x42>
10001190:	e750      	b.n	10001034 <micro_write+0x54>
10001192:	2201      	movs	r2, #1
10001194:	2000      	movs	r0, #0
10001196:	a901      	add	r1, sp, #4
10001198:	f005 f8fc 	bl	10006394 <tud_cdc_n_read>
1000119c:	2800      	cmp	r0, #0
1000119e:	f43f af5d 	beq.w	1000105c <micro_write+0x7c>
100011a2:	e764      	b.n	1000106e <micro_write+0x8e>
100011a4:	f44f 7882 	mov.w	r8, #260	@ 0x104
100011a8:	f44f 7b81 	mov.w	fp, #258	@ 0x102
100011ac:	f44f 7980 	mov.w	r9, #256	@ 0x100
100011b0:	e723      	b.n	10000ffa <micro_write+0x1a>
100011b2:	2000      	movs	r0, #0
100011b4:	4602      	mov	r2, r0
100011b6:	e77e      	b.n	100010b6 <micro_write+0xd6>
100011b8:	20042998 	.word	0x20042998
100011bc:	20042514 	.word	0x20042514
100011c0:	200429cd 	.word	0x200429cd
100011c4:	20042954 	.word	0x20042954

100011c8 <bulk_write>:
100011c8:	e92d 47f0 	stmdb	sp!, {r4, r5, r6, r7, r8, r9, sl, lr}
100011cc:	b082      	sub	sp, #8
100011ce:	4607      	mov	r7, r0
100011d0:	f001 fb80 	bl	100028d4 <time_us_64>
100011d4:	f24c 3650 	movw	r6, #50000	@ 0xc350
100011d8:	4604      	mov	r4, r0
100011da:	460d      	mov	r5, r1
100011dc:	e00a      	b.n	100011f4 <bulk_write+0x2c>
100011de:	f04f 30ff 	mov.w	r0, #4294967295
100011e2:	2100      	movs	r1, #0
100011e4:	f004 fb12 	bl	1000580c <tud_task_ext>
100011e8:	2000      	movs	r0, #0
100011ea:	f005 f8c7 	bl	1000637c <tud_cdc_n_available>
100011ee:	2800      	cmp	r0, #0
100011f0:	f040 80ce 	bne.w	10001390 <bulk_write+0x1c8>
100011f4:	f001 fb6e 	bl	100028d4 <time_us_64>
100011f8:	1b00      	subs	r0, r0, r4
100011fa:	eb61 0105 	sbc.w	r1, r1, r5
100011fe:	42b0      	cmp	r0, r6
10001200:	f171 0100 	sbcs.w	r1, r1, #0
10001204:	d3eb      	bcc.n	100011de <bulk_write+0x16>
10001206:	f897 8002 	ldrb.w	r8, [r7, #2]
1000120a:	f001 fb63 	bl	100028d4 <time_us_64>
1000120e:	ea4f 2808 	mov.w	r8, r8, lsl #8
10001212:	f108 0a02 	add.w	sl, r8, #2
10001216:	f04f 0900 	mov.w	r9, #0
1000121a:	f24c 3650 	movw	r6, #50000	@ 0xc350
1000121e:	4604      	mov	r4, r0
10001220:	460d      	mov	r5, r1
10001222:	fa1f fa8a 	uxth.w	sl, sl
10001226:	e00a      	b.n	1000123e <bulk_write+0x76>
10001228:	f04f 30ff 	mov.w	r0, #4294967295
1000122c:	2100      	movs	r1, #0
1000122e:	f004 faed 	bl	1000580c <tud_task_ext>
10001232:	2000      	movs	r0, #0
10001234:	f005 f8a2 	bl	1000637c <tud_cdc_n_available>
10001238:	2800      	cmp	r0, #0
1000123a:	f040 80b2 	bne.w	100013a2 <bulk_write+0x1da>
1000123e:	f001 fb49 	bl	100028d4 <time_us_64>
10001242:	1b00      	subs	r0, r0, r4
10001244:	eb61 0105 	sbc.w	r1, r1, r5
10001248:	42b0      	cmp	r0, r6
1000124a:	f171 0100 	sbcs.w	r1, r1, #0
1000124e:	d3eb      	bcc.n	10001228 <bulk_write+0x60>
10001250:	f001 fb40 	bl	100028d4 <time_us_64>
10001254:	f24c 3650 	movw	r6, #50000	@ 0xc350
10001258:	4604      	mov	r4, r0
1000125a:	460d      	mov	r5, r1
1000125c:	e00a      	b.n	10001274 <bulk_write+0xac>
1000125e:	f04f 30ff 	mov.w	r0, #4294967295
10001262:	2100      	movs	r1, #0
10001264:	f004 fad2 	bl	1000580c <tud_task_ext>
10001268:	2000      	movs	r0, #0
1000126a:	f005 f887 	bl	1000637c <tud_cdc_n_available>
1000126e:	2800      	cmp	r0, #0
10001270:	f040 8085 	bne.w	1000137e <bulk_write+0x1b6>
10001274:	f001 fb2e 	bl	100028d4 <time_us_64>
10001278:	1b00      	subs	r0, r0, r4
1000127a:	eb61 0105 	sbc.w	r1, r1, r5
1000127e:	42b0      	cmp	r0, r6
10001280:	f171 0100 	sbcs.w	r1, r1, #0
10001284:	d3eb      	bcc.n	1000125e <bulk_write+0x96>
10001286:	f108 0304 	add.w	r3, r8, #4
1000128a:	2b15      	cmp	r3, #21
1000128c:	f89d 0004 	ldrb.w	r0, [sp, #4]
10001290:	f108 0105 	add.w	r1, r8, #5
10001294:	f240 8092 	bls.w	100013bc <bulk_write+0x1f4>
10001298:	463e      	mov	r6, r7
1000129a:	2300      	movs	r3, #0
1000129c:	ea4f 0c91 	mov.w	ip, r1, lsr #2
100012a0:	ea4f 048c 	mov.w	r4, ip, lsl #2
100012a4:	eb07 0c8c 	add.w	ip, r7, ip, lsl #2
100012a8:	f856 2b04 	ldr.w	r2, [r6], #4
100012ac:	f003 357f 	and.w	r5, r3, #2139062143	@ 0x7f7f7f7f
100012b0:	4053      	eors	r3, r2
100012b2:	f002 327f 	and.w	r2, r2, #2139062143	@ 0x7f7f7f7f
100012b6:	442a      	add	r2, r5
100012b8:	f003 3380 	and.w	r3, r3, #2155905152	@ 0x80808080
100012bc:	4566      	cmp	r6, ip
100012be:	ea83 0302 	eor.w	r3, r3, r2
100012c2:	d1f1      	bne.n	100012a8 <bulk_write+0xe0>
100012c4:	f3c3 2207 	ubfx	r2, r3, #8, #8
100012c8:	441a      	add	r2, r3
100012ca:	f3c3 4507 	ubfx	r5, r3, #16, #8
100012ce:	442a      	add	r2, r5
100012d0:	eb02 6213 	add.w	r2, r2, r3, lsr #24
100012d4:	b2d2      	uxtb	r2, r2
100012d6:	3c01      	subs	r4, #1
100012d8:	443c      	add	r4, r7
100012da:	4623      	mov	r3, r4
100012dc:	f814 5f01 	ldrb.w	r5, [r4, #1]!
100012e0:	3302      	adds	r3, #2
100012e2:	1bdb      	subs	r3, r3, r7
100012e4:	442a      	add	r2, r5
100012e6:	4299      	cmp	r1, r3
100012e8:	b2d2      	uxtb	r2, r2
100012ea:	d8f6      	bhi.n	100012da <bulk_write+0x112>
100012ec:	4290      	cmp	r0, r2
100012ee:	d143      	bne.n	10001378 <bulk_write+0x1b0>
100012f0:	f8b7 5003 	ldrh.w	r5, [r7, #3]
100012f4:	f485 4500 	eor.w	r5, r5, #32768	@ 0x8000
100012f8:	eb08 0305 	add.w	r3, r8, r5
100012fc:	f5b3 4f00 	cmp.w	r3, #32768	@ 0x8000
10001300:	d83a      	bhi.n	10001378 <bulk_write+0x1b0>
10001302:	4c30      	ldr	r4, [pc, #192]	@ (100013c4 <bulk_write+0x1fc>)
10001304:	2100      	movs	r1, #0
10001306:	4620      	mov	r0, r4
10001308:	f006 fcea 	bl	10007ce0 <__mutex_try_enter_veneer>
1000130c:	2800      	cmp	r0, #0
1000130e:	d0f9      	beq.n	10001304 <bulk_write+0x13c>
10001310:	f8df 90c0 	ldr.w	r9, [pc, #192]	@ 100013d4 <bulk_write+0x20c>
10001314:	4e2c      	ldr	r6, [pc, #176]	@ (100013c8 <bulk_write+0x200>)
10001316:	f8d9 0000 	ldr.w	r0, [r9]
1000131a:	3705      	adds	r7, #5
1000131c:	4642      	mov	r2, r8
1000131e:	4639      	mov	r1, r7
10001320:	4428      	add	r0, r5
10001322:	f006 faaf 	bl	10007884 <memcpy>
10001326:	6830      	ldr	r0, [r6, #0]
10001328:	4642      	mov	r2, r8
1000132a:	4639      	mov	r1, r7
1000132c:	4428      	add	r0, r5
1000132e:	f006 faa9 	bl	10007884 <memcpy>
10001332:	f8d9 3000 	ldr.w	r3, [r9]
10001336:	4823      	ldr	r0, [pc, #140]	@ (100013c4 <bulk_write+0x1fc>)
10001338:	60a3      	str	r3, [r4, #8]
1000133a:	f006 fcb5 	bl	10007ca8 <__mutex_exit_veneer>
1000133e:	6834      	ldr	r4, [r6, #0]
10001340:	f003 ffc6 	bl	100052d0 <multicore_lockout_start_blocking>
10001344:	2201      	movs	r2, #1
10001346:	4621      	mov	r1, r4
10001348:	4628      	mov	r0, r5
1000134a:	f006 fca5 	bl	10007c98 <__save_to_flash_veneer>
1000134e:	f003 fff1 	bl	10005334 <multicore_lockout_end_blocking>
10001352:	234f      	movs	r3, #79	@ 0x4f
10001354:	2201      	movs	r2, #1
10001356:	f10d 0107 	add.w	r1, sp, #7
1000135a:	2000      	movs	r0, #0
1000135c:	f88d 3007 	strb.w	r3, [sp, #7]
10001360:	f005 f8aa 	bl	100064b8 <tud_cdc_n_write>
10001364:	2000      	movs	r0, #0
10001366:	f005 f85f 	bl	10006428 <tud_cdc_n_write_flush>
1000136a:	2001      	movs	r0, #1
1000136c:	4a17      	ldr	r2, [pc, #92]	@ (100013cc <bulk_write+0x204>)
1000136e:	4918      	ldr	r1, [pc, #96]	@ (100013d0 <bulk_write+0x208>)
10001370:	7813      	ldrb	r3, [r2, #0]
10001372:	7008      	strb	r0, [r1, #0]
10001374:	4403      	add	r3, r0
10001376:	7013      	strb	r3, [r2, #0]
10001378:	b002      	add	sp, #8
1000137a:	e8bd 87f0 	ldmia.w	sp!, {r4, r5, r6, r7, r8, r9, sl, pc}
1000137e:	2201      	movs	r2, #1
10001380:	2000      	movs	r0, #0
10001382:	a901      	add	r1, sp, #4
10001384:	f005 f806 	bl	10006394 <tud_cdc_n_read>
10001388:	2800      	cmp	r0, #0
1000138a:	f43f af73 	beq.w	10001274 <bulk_write+0xac>
1000138e:	e77a      	b.n	10001286 <bulk_write+0xbe>
10001390:	2201      	movs	r2, #1
10001392:	2000      	movs	r0, #0
10001394:	1cb9      	adds	r1, r7, #2
10001396:	f004 fffd 	bl	10006394 <tud_cdc_n_read>
1000139a:	2800      	cmp	r0, #0
1000139c:	f43f af2a 	beq.w	100011f4 <bulk_write+0x2c>
100013a0:	e731      	b.n	10001206 <bulk_write+0x3e>
100013a2:	f109 0103 	add.w	r1, r9, #3
100013a6:	ebaa 0209 	sub.w	r2, sl, r9
100013aa:	2000      	movs	r0, #0
100013ac:	4439      	add	r1, r7
100013ae:	f004 fff1 	bl	10006394 <tud_cdc_n_read>
100013b2:	4481      	add	r9, r0
100013b4:	45ca      	cmp	sl, r9
100013b6:	f63f af42 	bhi.w	1000123e <bulk_write+0x76>
100013ba:	e749      	b.n	10001250 <bulk_write+0x88>
100013bc:	2200      	movs	r2, #0
100013be:	4614      	mov	r4, r2
100013c0:	e789      	b.n	100012d6 <bulk_write+0x10e>
100013c2:	bf00      	nop
100013c4:	20042998 	.word	0x20042998
100013c8:	20042514 	.word	0x20042514
100013cc:	200429d3 	.word	0x200429d3
100013d0:	200429cd 	.word	0x200429cd
100013d4:	20042954 	.word	0x20042954

100013d8 <change_vendor>:
100013d8:	e92d 47f0 	stmdb	sp!, {r4, r5, r6, r7, r8, r9, sl, lr}
100013dc:	b082      	sub	sp, #8
100013de:	4607      	mov	r7, r0
100013e0:	f001 fa78 	bl	100028d4 <time_us_64>
100013e4:	f04f 0800 	mov.w	r8, #0
100013e8:	f24c 3650 	movw	r6, #50000	@ 0xc350
100013ec:	4604      	mov	r4, r0
100013ee:	460d      	mov	r5, r1
100013f0:	e009      	b.n	10001406 <change_vendor+0x2e>
100013f2:	f04f 30ff 	mov.w	r0, #4294967295
100013f6:	2100      	movs	r1, #0
100013f8:	f004 fa08 	bl	1000580c <tud_task_ext>
100013fc:	2000      	movs	r0, #0
100013fe:	f004 ffbd 	bl	1000637c <tud_cdc_n_available>
10001402:	2800      	cmp	r0, #0
10001404:	d153      	bne.n	100014ae <change_vendor+0xd6>
10001406:	f001 fa65 	bl	100028d4 <time_us_64>
1000140a:	1b00      	subs	r0, r0, r4
1000140c:	eb61 0105 	sbc.w	r1, r1, r5
10001410:	42b0      	cmp	r0, r6
10001412:	f171 0100 	sbcs.w	r1, r1, #0
10001416:	d3ec      	bcc.n	100013f2 <change_vendor+0x1a>
10001418:	78ba      	ldrb	r2, [r7, #2]
1000141a:	7878      	ldrb	r0, [r7, #1]
1000141c:	783c      	ldrb	r4, [r7, #0]
1000141e:	78f9      	ldrb	r1, [r7, #3]
10001420:	1883      	adds	r3, r0, r2
10001422:	793d      	ldrb	r5, [r7, #4]
10001424:	4423      	add	r3, r4
10001426:	797e      	ldrb	r6, [r7, #5]
10001428:	fa51 f383 	uxtab	r3, r1, r3
1000142c:	f897 c006 	ldrb.w	ip, [r7, #6]
10001430:	fa55 f383 	uxtab	r3, r5, r3
10001434:	f897 e007 	ldrb.w	lr, [r7, #7]
10001438:	4c2d      	ldr	r4, [pc, #180]	@ (100014f0 <change_vendor+0x118>)
1000143a:	fa56 f383 	uxtab	r3, r6, r3
1000143e:	f897 8008 	ldrb.w	r8, [r7, #8]
10001442:	fa5c f383 	uxtab	r3, ip, r3
10001446:	f897 9009 	ldrb.w	r9, [r7, #9]
1000144a:	f894 a001 	ldrb.w	sl, [r4, #1]
1000144e:	fa5e f383 	uxtab	r3, lr, r3
10001452:	fa58 f383 	uxtab	r3, r8, r3
10001456:	fa59 f383 	uxtab	r3, r9, r3
1000145a:	4592      	cmp	sl, r2
1000145c:	7abf      	ldrb	r7, [r7, #10]
1000145e:	b2db      	uxtb	r3, r3
10001460:	d116      	bne.n	10001490 <change_vendor+0xb8>
10001462:	78a2      	ldrb	r2, [r4, #2]
10001464:	428a      	cmp	r2, r1
10001466:	d113      	bne.n	10001490 <change_vendor+0xb8>
10001468:	78e2      	ldrb	r2, [r4, #3]
1000146a:	42aa      	cmp	r2, r5
1000146c:	d110      	bne.n	10001490 <change_vendor+0xb8>
1000146e:	7922      	ldrb	r2, [r4, #4]
10001470:	42b2      	cmp	r2, r6
10001472:	d10d      	bne.n	10001490 <change_vendor+0xb8>
10001474:	7962      	ldrb	r2, [r4, #5]
10001476:	4562      	cmp	r2, ip
10001478:	d10a      	bne.n	10001490 <change_vendor+0xb8>
1000147a:	79a2      	ldrb	r2, [r4, #6]
1000147c:	4572      	cmp	r2, lr
1000147e:	d107      	bne.n	10001490 <change_vendor+0xb8>
10001480:	79e2      	ldrb	r2, [r4, #7]
10001482:	4542      	cmp	r2, r8
10001484:	d104      	bne.n	10001490 <change_vendor+0xb8>
10001486:	7a22      	ldrb	r2, [r4, #8]
10001488:	454a      	cmp	r2, r9
1000148a:	d101      	bne.n	10001490 <change_vendor+0xb8>
1000148c:	429f      	cmp	r7, r3
1000148e:	d01b      	beq.n	100014c8 <change_vendor+0xf0>
10001490:	233f      	movs	r3, #63	@ 0x3f
10001492:	2201      	movs	r2, #1
10001494:	f10d 0107 	add.w	r1, sp, #7
10001498:	2000      	movs	r0, #0
1000149a:	f88d 3007 	strb.w	r3, [sp, #7]
1000149e:	f005 f80b 	bl	100064b8 <tud_cdc_n_write>
100014a2:	2000      	movs	r0, #0
100014a4:	b002      	add	sp, #8
100014a6:	e8bd 47f0 	ldmia.w	sp!, {r4, r5, r6, r7, r8, r9, sl, lr}
100014aa:	f004 bfbd 	b.w	10006428 <tud_cdc_n_write_flush>
100014ae:	f108 0102 	add.w	r1, r8, #2
100014b2:	f1c8 0209 	rsb	r2, r8, #9
100014b6:	2000      	movs	r0, #0
100014b8:	4439      	add	r1, r7
100014ba:	f004 ff6b 	bl	10006394 <tud_cdc_n_read>
100014be:	4480      	add	r8, r0
100014c0:	f1b8 0f08 	cmp.w	r8, #8
100014c4:	d99f      	bls.n	10001406 <change_vendor+0x2e>
100014c6:	e7a7      	b.n	10001418 <change_vendor+0x40>
100014c8:	234f      	movs	r3, #79	@ 0x4f
100014ca:	4c0a      	ldr	r4, [pc, #40]	@ (100014f4 <change_vendor+0x11c>)
100014cc:	2201      	movs	r2, #1
100014ce:	f10d 0107 	add.w	r1, sp, #7
100014d2:	7060      	strb	r0, [r4, #1]
100014d4:	2000      	movs	r0, #0
100014d6:	f88d 3007 	strb.w	r3, [sp, #7]
100014da:	f004 ffed 	bl	100064b8 <tud_cdc_n_write>
100014de:	2000      	movs	r0, #0
100014e0:	f004 ffa2 	bl	10006428 <tud_cdc_n_write_flush>
100014e4:	2201      	movs	r2, #1
100014e6:	4b04      	ldr	r3, [pc, #16]	@ (100014f8 <change_vendor+0x120>)
100014e8:	701a      	strb	r2, [r3, #0]
100014ea:	b002      	add	sp, #8
100014ec:	e8bd 87f0 	ldmia.w	sp!, {r4, r5, r6, r7, r8, r9, sl, pc}
100014f0:	200015d0 	.word	0x200015d0
100014f4:	200015c8 	.word	0x200015c8
100014f8:	200429cd 	.word	0x200429cd

100014fc <post_serial>:
100014fc:	b5f0      	push	{r4, r5, r6, r7, lr}
100014fe:	b083      	sub	sp, #12
10001500:	4607      	mov	r7, r0
10001502:	f001 f9e7 	bl	100028d4 <time_us_64>
10001506:	f24c 3650 	movw	r6, #50000	@ 0xc350
1000150a:	4604      	mov	r4, r0
1000150c:	460d      	mov	r5, r1
1000150e:	e009      	b.n	10001524 <post_serial+0x28>
10001510:	f04f 30ff 	mov.w	r0, #4294967295
10001514:	2100      	movs	r1, #0
10001516:	f004 f979 	bl	1000580c <tud_task_ext>
1000151a:	2000      	movs	r0, #0
1000151c:	f004 ff2e 	bl	1000637c <tud_cdc_n_available>
10001520:	2800      	cmp	r0, #0
10001522:	d136      	bne.n	10001592 <post_serial+0x96>
10001524:	f001 f9d6 	bl	100028d4 <time_us_64>
10001528:	1b00      	subs	r0, r0, r4
1000152a:	eb61 0105 	sbc.w	r1, r1, r5
1000152e:	42b0      	cmp	r0, r6
10001530:	f171 0100 	sbcs.w	r1, r1, #0
10001534:	d3ec      	bcc.n	10001510 <post_serial+0x14>
10001536:	783b      	ldrb	r3, [r7, #0]
10001538:	7879      	ldrb	r1, [r7, #1]
1000153a:	78ba      	ldrb	r2, [r7, #2]
1000153c:	440b      	add	r3, r1
1000153e:	b2db      	uxtb	r3, r3
10001540:	429a      	cmp	r2, r3
10001542:	d12e      	bne.n	100015a2 <post_serial+0xa6>
10001544:	491b      	ldr	r1, [pc, #108]	@ (100015b4 <post_serial+0xb8>)
10001546:	220a      	movs	r2, #10
10001548:	780c      	ldrb	r4, [r1, #0]
1000154a:	784b      	ldrb	r3, [r1, #1]
1000154c:	7888      	ldrb	r0, [r1, #2]
1000154e:	4423      	add	r3, r4
10001550:	78cc      	ldrb	r4, [r1, #3]
10001552:	fa50 f383 	uxtab	r3, r0, r3
10001556:	7908      	ldrb	r0, [r1, #4]
10001558:	fa54 f383 	uxtab	r3, r4, r3
1000155c:	794c      	ldrb	r4, [r1, #5]
1000155e:	fa50 f383 	uxtab	r3, r0, r3
10001562:	7988      	ldrb	r0, [r1, #6]
10001564:	fa54 f383 	uxtab	r3, r4, r3
10001568:	79cc      	ldrb	r4, [r1, #7]
1000156a:	fa50 f383 	uxtab	r3, r0, r3
1000156e:	7a08      	ldrb	r0, [r1, #8]
10001570:	fa54 f383 	uxtab	r3, r4, r3
10001574:	fa50 f383 	uxtab	r3, r0, r3
10001578:	7a48      	ldrb	r0, [r1, #9]
1000157a:	fa50 f383 	uxtab	r3, r0, r3
1000157e:	2000      	movs	r0, #0
10001580:	724b      	strb	r3, [r1, #9]
10001582:	f004 ff99 	bl	100064b8 <tud_cdc_n_write>
10001586:	2000      	movs	r0, #0
10001588:	b003      	add	sp, #12
1000158a:	e8bd 40f0 	ldmia.w	sp!, {r4, r5, r6, r7, lr}
1000158e:	f004 bf4b 	b.w	10006428 <tud_cdc_n_write_flush>
10001592:	2201      	movs	r2, #1
10001594:	2000      	movs	r0, #0
10001596:	1cb9      	adds	r1, r7, #2
10001598:	f004 fefc 	bl	10006394 <tud_cdc_n_read>
1000159c:	2800      	cmp	r0, #0
1000159e:	d0c1      	beq.n	10001524 <post_serial+0x28>
100015a0:	e7c9      	b.n	10001536 <post_serial+0x3a>
100015a2:	233f      	movs	r3, #63	@ 0x3f
100015a4:	2201      	movs	r2, #1
100015a6:	2000      	movs	r0, #0
100015a8:	f10d 0107 	add.w	r1, sp, #7
100015ac:	f88d 3007 	strb.w	r3, [sp, #7]
100015b0:	e7e7      	b.n	10001582 <post_serial+0x86>
100015b2:	bf00      	nop
100015b4:	200015d0 	.word	0x200015d0

100015b8 <deploy_nx>:
100015b8:	f245 324e 	movw	r2, #21326	@ 0x534e
100015bc:	8803      	ldrh	r3, [r0, #0]
100015be:	4293      	cmp	r3, r2
100015c0:	d075      	beq.n	100016ae <deploy_nx+0xf6>
100015c2:	f646 624e 	movw	r2, #28238	@ 0x6e4e
100015c6:	4293      	cmp	r3, r2
100015c8:	d001      	beq.n	100015ce <deploy_nx+0x16>
100015ca:	f7ff bf05 	b.w	100013d8 <change_vendor>
100015ce:	e92d 41f0 	stmdb	sp!, {r4, r5, r6, r7, r8, lr}
100015d2:	b082      	sub	sp, #8
100015d4:	4605      	mov	r5, r0
100015d6:	f001 f97d 	bl	100028d4 <time_us_64>
100015da:	f04f 0800 	mov.w	r8, #0
100015de:	f24c 3750 	movw	r7, #50000	@ 0xc350
100015e2:	4604      	mov	r4, r0
100015e4:	460e      	mov	r6, r1
100015e6:	e009      	b.n	100015fc <deploy_nx+0x44>
100015e8:	f04f 30ff 	mov.w	r0, #4294967295
100015ec:	2100      	movs	r1, #0
100015ee:	f004 f90d 	bl	1000580c <tud_task_ext>
100015f2:	2000      	movs	r0, #0
100015f4:	f004 fec2 	bl	1000637c <tud_cdc_n_available>
100015f8:	2800      	cmp	r0, #0
100015fa:	d14b      	bne.n	10001694 <deploy_nx+0xdc>
100015fc:	f001 f96a 	bl	100028d4 <time_us_64>
10001600:	1b00      	subs	r0, r0, r4
10001602:	eb61 0106 	sbc.w	r1, r1, r6
10001606:	42b8      	cmp	r0, r7
10001608:	f171 0100 	sbcs.w	r1, r1, #0
1000160c:	d3ec      	bcc.n	100015e8 <deploy_nx+0x30>
1000160e:	78a9      	ldrb	r1, [r5, #2]
10001610:	786b      	ldrb	r3, [r5, #1]
10001612:	7828      	ldrb	r0, [r5, #0]
10001614:	78ea      	ldrb	r2, [r5, #3]
10001616:	440b      	add	r3, r1
10001618:	4403      	add	r3, r0
1000161a:	7928      	ldrb	r0, [r5, #4]
1000161c:	796c      	ldrb	r4, [r5, #5]
1000161e:	fa52 f383 	uxtab	r3, r2, r3
10001622:	79ae      	ldrb	r6, [r5, #6]
10001624:	fa50 f383 	uxtab	r3, r0, r3
10001628:	79ef      	ldrb	r7, [r5, #7]
1000162a:	fa54 f383 	uxtab	r3, r4, r3
1000162e:	f895 c008 	ldrb.w	ip, [r5, #8]
10001632:	fa56 f383 	uxtab	r3, r6, r3
10001636:	f895 e009 	ldrb.w	lr, [r5, #9]
1000163a:	fa57 f383 	uxtab	r3, r7, r3
1000163e:	fa5c f383 	uxtab	r3, ip, r3
10001642:	f895 800a 	ldrb.w	r8, [r5, #10]
10001646:	fa5e f383 	uxtab	r3, lr, r3
1000164a:	b2db      	uxtb	r3, r3
1000164c:	4598      	cmp	r8, r3
1000164e:	d130      	bne.n	100016b2 <deploy_nx+0xfa>
10001650:	4b25      	ldr	r3, [pc, #148]	@ (100016e8 <deploy_nx+0x130>)
10001652:	f105 0803 	add.w	r8, r5, #3
10001656:	eba3 0808 	sub.w	r8, r3, r8
1000165a:	f1b8 0f02 	cmp.w	r8, #2
1000165e:	d937      	bls.n	100016d0 <deploy_nx+0x118>
10001660:	f8d5 1002 	ldr.w	r1, [r5, #2]
10001664:	f8d5 2006 	ldr.w	r2, [r5, #6]
10001668:	f843 1901 	str.w	r1, [r3], #-1
1000166c:	f8c3 2005 	str.w	r2, [r3, #5]
10001670:	234f      	movs	r3, #79	@ 0x4f
10001672:	2201      	movs	r2, #1
10001674:	f10d 0107 	add.w	r1, sp, #7
10001678:	2000      	movs	r0, #0
1000167a:	f88d 3007 	strb.w	r3, [sp, #7]
1000167e:	f004 ff1b 	bl	100064b8 <tud_cdc_n_write>
10001682:	2000      	movs	r0, #0
10001684:	f004 fed0 	bl	10006428 <tud_cdc_n_write_flush>
10001688:	2201      	movs	r2, #1
1000168a:	4b18      	ldr	r3, [pc, #96]	@ (100016ec <deploy_nx+0x134>)
1000168c:	701a      	strb	r2, [r3, #0]
1000168e:	b002      	add	sp, #8
10001690:	e8bd 81f0 	ldmia.w	sp!, {r4, r5, r6, r7, r8, pc}
10001694:	f108 0102 	add.w	r1, r8, #2
10001698:	f1c8 0209 	rsb	r2, r8, #9
1000169c:	2000      	movs	r0, #0
1000169e:	4429      	add	r1, r5
100016a0:	f004 fe78 	bl	10006394 <tud_cdc_n_read>
100016a4:	4480      	add	r8, r0
100016a6:	f1b8 0f08 	cmp.w	r8, #8
100016aa:	d9a7      	bls.n	100015fc <deploy_nx+0x44>
100016ac:	e7af      	b.n	1000160e <deploy_nx+0x56>
100016ae:	f7ff bf25 	b.w	100014fc <post_serial>
100016b2:	233f      	movs	r3, #63	@ 0x3f
100016b4:	2201      	movs	r2, #1
100016b6:	f10d 0107 	add.w	r1, sp, #7
100016ba:	2000      	movs	r0, #0
100016bc:	f88d 3007 	strb.w	r3, [sp, #7]
100016c0:	f004 fefa 	bl	100064b8 <tud_cdc_n_write>
100016c4:	2000      	movs	r0, #0
100016c6:	b002      	add	sp, #8
100016c8:	e8bd 41f0 	ldmia.w	sp!, {r4, r5, r6, r7, r8, lr}
100016cc:	f004 beac 	b.w	10006428 <tud_cdc_n_write_flush>
100016d0:	f803 1901 	strb.w	r1, [r3], #-1
100016d4:	709a      	strb	r2, [r3, #2]
100016d6:	70d8      	strb	r0, [r3, #3]
100016d8:	711c      	strb	r4, [r3, #4]
100016da:	715e      	strb	r6, [r3, #5]
100016dc:	719f      	strb	r7, [r3, #6]
100016de:	f883 c007 	strb.w	ip, [r3, #7]
100016e2:	f883 e008 	strb.w	lr, [r3, #8]
100016e6:	e7c3      	b.n	10001670 <deploy_nx+0xb8>
100016e8:	200015d1 	.word	0x200015d1
100016ec:	200429cd 	.word	0x200429cd

100016f0 <datalog_init>:
100016f0:	b510      	push	{r4, lr}
100016f2:	4c0d      	ldr	r4, [pc, #52]	@ (10001728 <datalog_init+0x38>)
100016f4:	f44f 4116 	mov.w	r1, #38400	@ 0x9600
100016f8:	4620      	mov	r0, r4
100016fa:	f001 f939 	bl	10002970 <uart_init>
100016fe:	2102      	movs	r1, #2
10001700:	2000      	movs	r0, #0
10001702:	f000 f9e7 	bl	10001ad4 <gpio_set_function>
10001706:	2102      	movs	r1, #2
10001708:	2001      	movs	r0, #1
1000170a:	f000 f9e3 	bl	10001ad4 <gpio_set_function>
1000170e:	4620      	mov	r0, r4
10001710:	2108      	movs	r1, #8
10001712:	2300      	movs	r3, #0
10001714:	2201      	movs	r2, #1
10001716:	f001 f9ad 	bl	10002a74 <uart_set_format>
1000171a:	4620      	mov	r0, r4
1000171c:	e8bd 4010 	ldmia.w	sp!, {r4, lr}
10001720:	2101      	movs	r1, #1
10001722:	f001 b9df 	b.w	10002ae4 <uart_set_fifo_enabled>
10001726:	bf00      	nop
10001728:	40070000 	.word	0x40070000

1000172c <execute_command>:
1000172c:	e92d 41f0 	stmdb	sp!, {r4, r5, r6, r7, r8, lr}
10001730:	880d      	ldrh	r5, [r1, #0]
10001732:	b91d      	cbnz	r5, 1000173c <execute_command+0x10>
10001734:	2500      	movs	r5, #0
10001736:	4628      	mov	r0, r5
10001738:	e8bd 81f0 	ldmia.w	sp!, {r4, r5, r6, r7, r8, pc}
1000173c:	460f      	mov	r7, r1
1000173e:	4604      	mov	r4, r0
10001740:	ba6d      	rev16	r5, r5
10001742:	b2ad      	uxth	r5, r5
10001744:	2201      	movs	r2, #1
10001746:	4629      	mov	r1, r5
10001748:	4812      	ldr	r0, [pc, #72]	@ (10001794 <execute_command+0x68>)
1000174a:	f897 8000 	ldrb.w	r8, [r7]
1000174e:	f000 f97d 	bl	10001a4c <print>
10001752:	6866      	ldr	r6, [r4, #4]
10001754:	2e00      	cmp	r6, #0
10001756:	d0ee      	beq.n	10001736 <execute_command+0xa>
10001758:	f104 0208 	add.w	r2, r4, #8
1000175c:	4613      	mov	r3, r2
1000175e:	4634      	mov	r4, r6
10001760:	ea4f 2108 	mov.w	r1, r8, lsl #8
10001764:	e002      	b.n	1000176c <execute_command+0x40>
10001766:	f853 4c04 	ldr.w	r4, [r3, #-4]
1000176a:	b15c      	cbz	r4, 10001784 <execute_command+0x58>
1000176c:	f833 cc08 	ldrh.w	ip, [r3, #-8]
10001770:	3308      	adds	r3, #8
10001772:	458c      	cmp	ip, r1
10001774:	d1f7      	bne.n	10001766 <execute_command+0x3a>
10001776:	4638      	mov	r0, r7
10001778:	47a0      	blx	r4
1000177a:	e7db      	b.n	10001734 <execute_command+0x8>
1000177c:	f852 6c04 	ldr.w	r6, [r2, #-4]
10001780:	2e00      	cmp	r6, #0
10001782:	d0d8      	beq.n	10001736 <execute_command+0xa>
10001784:	f832 3c08 	ldrh.w	r3, [r2, #-8]
10001788:	3208      	adds	r2, #8
1000178a:	42ab      	cmp	r3, r5
1000178c:	d1f6      	bne.n	1000177c <execute_command+0x50>
1000178e:	4638      	mov	r0, r7
10001790:	47b0      	blx	r6
10001792:	e7cf      	b.n	10001734 <execute_command+0x8>
10001794:	10007e1c 	.word	0x10007e1c

10001798 <ostrich_init>:
10001798:	e92d 4ff0 	stmdb	sp!, {r4, r5, r6, r7, r8, r9, sl, fp, lr}
1000179c:	b089      	sub	sp, #36	@ 0x24
1000179e:	f005 f963 	bl	10006a68 <tusb_init>
100017a2:	f7ff ffa5 	bl	100016f0 <datalog_init>
100017a6:	f44f 5000 	mov.w	r0, #8192	@ 0x2000
100017aa:	f001 fef1 	bl	10003590 <__wrap_malloc>
100017ae:	4683      	mov	fp, r0
100017b0:	2040      	movs	r0, #64	@ 0x40
100017b2:	f001 feed 	bl	10003590 <__wrap_malloc>
100017b6:	4680      	mov	r8, r0
100017b8:	f04f 0900 	mov.w	r9, #0
100017bc:	4b8b      	ldr	r3, [pc, #556]	@ (100019ec <ostrich_init+0x254>)
100017be:	f108 0208 	add.w	r2, r8, #8
100017c2:	e893 0003 	ldmia.w	r3, {r0, r1}
100017c6:	e888 0003 	stmia.w	r8, {r0, r1}
100017ca:	f108 0110 	add.w	r1, r8, #16
100017ce:	9100      	str	r1, [sp, #0]
100017d0:	f108 0158 	add.w	r1, r8, #88	@ 0x58
100017d4:	f108 0018 	add.w	r0, r8, #24
100017d8:	9103      	str	r1, [sp, #12]
100017da:	f108 0160 	add.w	r1, r8, #96	@ 0x60
100017de:	9001      	str	r0, [sp, #4]
100017e0:	9104      	str	r1, [sp, #16]
100017e2:	f108 0068 	add.w	r0, r8, #104	@ 0x68
100017e6:	f103 0108 	add.w	r1, r3, #8
100017ea:	9005      	str	r0, [sp, #20]
100017ec:	c903      	ldmia	r1, {r0, r1}
100017ee:	e882 0003 	stmia.w	r2, {r0, r1}
100017f2:	9a00      	ldr	r2, [sp, #0]
100017f4:	f103 0110 	add.w	r1, r3, #16
100017f8:	c903      	ldmia	r1, {r0, r1}
100017fa:	f108 0420 	add.w	r4, r8, #32
100017fe:	e882 0003 	stmia.w	r2, {r0, r1}
10001802:	9a01      	ldr	r2, [sp, #4]
10001804:	9402      	str	r4, [sp, #8]
10001806:	f103 0118 	add.w	r1, r3, #24
1000180a:	c903      	ldmia	r1, {r0, r1}
1000180c:	e882 0003 	stmia.w	r2, {r0, r1}
10001810:	9a02      	ldr	r2, [sp, #8]
10001812:	f103 0120 	add.w	r1, r3, #32
10001816:	c903      	ldmia	r1, {r0, r1}
10001818:	f108 0728 	add.w	r7, r8, #40	@ 0x28
1000181c:	e882 0003 	stmia.w	r2, {r0, r1}
10001820:	f103 0228 	add.w	r2, r3, #40	@ 0x28
10001824:	e892 0003 	ldmia.w	r2, {r0, r1}
10001828:	f108 0630 	add.w	r6, r8, #48	@ 0x30
1000182c:	e887 0003 	stmia.w	r7, {r0, r1}
10001830:	f102 0708 	add.w	r7, r2, #8
10001834:	e897 0003 	ldmia.w	r7, {r0, r1}
10001838:	f108 0538 	add.w	r5, r8, #56	@ 0x38
1000183c:	e886 0003 	stmia.w	r6, {r0, r1}
10001840:	f102 0610 	add.w	r6, r2, #16
10001844:	e896 0003 	ldmia.w	r6, {r0, r1}
10001848:	f108 0440 	add.w	r4, r8, #64	@ 0x40
1000184c:	e885 0003 	stmia.w	r5, {r0, r1}
10001850:	f102 0518 	add.w	r5, r2, #24
10001854:	e895 0003 	ldmia.w	r5, {r0, r1}
10001858:	e884 0003 	stmia.w	r4, {r0, r1}
1000185c:	f102 0420 	add.w	r4, r2, #32
10001860:	e894 0003 	ldmia.w	r4, {r0, r1}
10001864:	9a03      	ldr	r2, [sp, #12]
10001866:	3408      	adds	r4, #8
10001868:	f108 0e48 	add.w	lr, r8, #72	@ 0x48
1000186c:	e88e 0003 	stmia.w	lr, {r0, r1}
10001870:	e894 0003 	ldmia.w	r4, {r0, r1}
10001874:	f108 0c50 	add.w	ip, r8, #80	@ 0x50
10001878:	3408      	adds	r4, #8
1000187a:	e88c 0003 	stmia.w	ip, {r0, r1}
1000187e:	e894 0003 	ldmia.w	r4, {r0, r1}
10001882:	e882 0003 	stmia.w	r2, {r0, r1}
10001886:	9a04      	ldr	r2, [sp, #16]
10001888:	3368      	adds	r3, #104	@ 0x68
1000188a:	3408      	adds	r4, #8
1000188c:	e894 0003 	ldmia.w	r4, {r0, r1}
10001890:	e882 0003 	stmia.w	r2, {r0, r1}
10001894:	e893 0003 	ldmia.w	r3, {r0, r1}
10001898:	9b05      	ldr	r3, [sp, #20]
1000189a:	f8df a170 	ldr.w	sl, [pc, #368]	@ 10001a0c <ostrich_init+0x274>
1000189e:	e883 0003 	stmia.w	r3, {r0, r1}
100018a2:	f8a8 9070 	strh.w	r9, [r8, #112]	@ 0x70
100018a6:	f8c8 9074 	str.w	r9, [r8, #116]	@ 0x74
100018aa:	4b51      	ldr	r3, [pc, #324]	@ (100019f0 <ostrich_init+0x258>)
100018ac:	781b      	ldrb	r3, [r3, #0]
100018ae:	b11b      	cbz	r3, 100018b8 <ostrich_init+0x120>
100018b0:	4b50      	ldr	r3, [pc, #320]	@ (100019f4 <ostrich_init+0x25c>)
100018b2:	781b      	ldrb	r3, [r3, #0]
100018b4:	075b      	lsls	r3, r3, #29
100018b6:	d053      	beq.n	10001960 <ostrich_init+0x1c8>
100018b8:	f001 f80c 	bl	100028d4 <time_us_64>
100018bc:	2700      	movs	r7, #0
100018be:	f24c 3650 	movw	r6, #50000	@ 0xc350
100018c2:	4604      	mov	r4, r0
100018c4:	460d      	mov	r5, r1
100018c6:	e009      	b.n	100018dc <ostrich_init+0x144>
100018c8:	f04f 30ff 	mov.w	r0, #4294967295
100018cc:	2100      	movs	r1, #0
100018ce:	f003 ff9d 	bl	1000580c <tud_task_ext>
100018d2:	2000      	movs	r0, #0
100018d4:	f004 fd52 	bl	1000637c <tud_cdc_n_available>
100018d8:	2800      	cmp	r0, #0
100018da:	d15e      	bne.n	1000199a <ostrich_init+0x202>
100018dc:	f000 fffa 	bl	100028d4 <time_us_64>
100018e0:	1b00      	subs	r0, r0, r4
100018e2:	eb61 0105 	sbc.w	r1, r1, r5
100018e6:	42b0      	cmp	r0, r6
100018e8:	f171 0100 	sbcs.w	r1, r1, #0
100018ec:	d3ec      	bcc.n	100018c8 <ostrich_init+0x130>
100018ee:	4659      	mov	r1, fp
100018f0:	4640      	mov	r0, r8
100018f2:	f7ff ff1b 	bl	1000172c <execute_command>
100018f6:	2800      	cmp	r0, #0
100018f8:	d15f      	bne.n	100019ba <ostrich_init+0x222>
100018fa:	f04f 30ff 	mov.w	r0, #4294967295
100018fe:	2100      	movs	r1, #0
10001900:	f003 ff84 	bl	1000580c <tud_task_ext>
10001904:	2001      	movs	r0, #1
10001906:	f004 fd39 	bl	1000637c <tud_cdc_n_available>
1000190a:	2800      	cmp	r0, #0
1000190c:	d167      	bne.n	100019de <ostrich_init+0x246>
1000190e:	4640      	mov	r0, r8
10001910:	a906      	add	r1, sp, #24
10001912:	f7ff ff0b 	bl	1000172c <execute_command>
10001916:	2800      	cmp	r0, #0
10001918:	d15b      	bne.n	100019d2 <ostrich_init+0x23a>
1000191a:	f04f 30ff 	mov.w	r0, #4294967295
1000191e:	2100      	movs	r1, #0
10001920:	f003 ff74 	bl	1000580c <tud_task_ext>
10001924:	2002      	movs	r0, #2
10001926:	f004 fd29 	bl	1000637c <tud_cdc_n_available>
1000192a:	2800      	cmp	r0, #0
1000192c:	d14b      	bne.n	100019c6 <ostrich_init+0x22e>
1000192e:	a907      	add	r1, sp, #28
10001930:	4640      	mov	r0, r8
10001932:	f7ff fefb 	bl	1000172c <execute_command>
10001936:	4601      	mov	r1, r0
10001938:	b118      	cbz	r0, 10001942 <ostrich_init+0x1aa>
1000193a:	2201      	movs	r2, #1
1000193c:	482e      	ldr	r0, [pc, #184]	@ (100019f8 <ostrich_init+0x260>)
1000193e:	f000 f885 	bl	10001a4c <print>
10001942:	f44f 5200 	mov.w	r2, #8192	@ 0x2000
10001946:	2100      	movs	r1, #0
10001948:	4658      	mov	r0, fp
1000194a:	f005 ff1f 	bl	1000778c <memset>
1000194e:	20c8      	movs	r0, #200	@ 0xc8
10001950:	2100      	movs	r1, #0
10001952:	f8ad 9018 	strh.w	r9, [sp, #24]
10001956:	f8ad 901c 	strh.w	r9, [sp, #28]
1000195a:	f000 ff1b 	bl	10002794 <sleep_us>
1000195e:	e7a4      	b.n	100018aa <ostrich_init+0x112>
10001960:	2100      	movs	r1, #0
10001962:	4650      	mov	r0, sl
10001964:	f006 f9bc 	bl	10007ce0 <__mutex_try_enter_veneer>
10001968:	2800      	cmp	r0, #0
1000196a:	d0f9      	beq.n	10001960 <ostrich_init+0x1c8>
1000196c:	2301      	movs	r3, #1
1000196e:	4650      	mov	r0, sl
10001970:	f88a 3008 	strb.w	r3, [sl, #8]
10001974:	f006 f998 	bl	10007ca8 <__mutex_exit_veneer>
10001978:	4c20      	ldr	r4, [pc, #128]	@ (100019fc <ostrich_init+0x264>)
1000197a:	2100      	movs	r1, #0
1000197c:	4620      	mov	r0, r4
1000197e:	f006 f9af 	bl	10007ce0 <__mutex_try_enter_veneer>
10001982:	2800      	cmp	r0, #0
10001984:	d0f9      	beq.n	1000197a <ostrich_init+0x1e2>
10001986:	4b1e      	ldr	r3, [pc, #120]	@ (10001a00 <ostrich_init+0x268>)
10001988:	481c      	ldr	r0, [pc, #112]	@ (100019fc <ostrich_init+0x264>)
1000198a:	781b      	ldrb	r3, [r3, #0]
1000198c:	7203      	strb	r3, [r0, #8]
1000198e:	f006 f98b 	bl	10007ca8 <__mutex_exit_veneer>
10001992:	4b17      	ldr	r3, [pc, #92]	@ (100019f0 <ostrich_init+0x258>)
10001994:	f883 9000 	strb.w	r9, [r3]
10001998:	e78e      	b.n	100018b8 <ostrich_init+0x120>
1000199a:	f1c7 0202 	rsb	r2, r7, #2
1000199e:	eb0b 0107 	add.w	r1, fp, r7
100019a2:	2000      	movs	r0, #0
100019a4:	f004 fcf6 	bl	10006394 <tud_cdc_n_read>
100019a8:	4407      	add	r7, r0
100019aa:	2f01      	cmp	r7, #1
100019ac:	d996      	bls.n	100018dc <ostrich_init+0x144>
100019ae:	4659      	mov	r1, fp
100019b0:	4640      	mov	r0, r8
100019b2:	f7ff febb 	bl	1000172c <execute_command>
100019b6:	2800      	cmp	r0, #0
100019b8:	d09f      	beq.n	100018fa <ostrich_init+0x162>
100019ba:	4601      	mov	r1, r0
100019bc:	2201      	movs	r2, #1
100019be:	4811      	ldr	r0, [pc, #68]	@ (10001a04 <ostrich_init+0x26c>)
100019c0:	f000 f844 	bl	10001a4c <print>
100019c4:	e799      	b.n	100018fa <ostrich_init+0x162>
100019c6:	2202      	movs	r2, #2
100019c8:	a907      	add	r1, sp, #28
100019ca:	4610      	mov	r0, r2
100019cc:	f004 fce2 	bl	10006394 <tud_cdc_n_read>
100019d0:	e7ad      	b.n	1000192e <ostrich_init+0x196>
100019d2:	4601      	mov	r1, r0
100019d4:	2201      	movs	r2, #1
100019d6:	480c      	ldr	r0, [pc, #48]	@ (10001a08 <ostrich_init+0x270>)
100019d8:	f000 f838 	bl	10001a4c <print>
100019dc:	e79d      	b.n	1000191a <ostrich_init+0x182>
100019de:	2202      	movs	r2, #2
100019e0:	a906      	add	r1, sp, #24
100019e2:	2001      	movs	r0, #1
100019e4:	f004 fcd6 	bl	10006394 <tud_cdc_n_read>
100019e8:	e791      	b.n	1000190e <ostrich_init+0x176>
100019ea:	bf00      	nop
100019ec:	100080b8 	.word	0x100080b8
100019f0:	200429cd 	.word	0x200429cd
100019f4:	200429d3 	.word	0x200429d3
100019f8:	10007df4 	.word	0x10007df4
100019fc:	20042388 	.word	0x20042388
10001a00:	200429d2 	.word	0x200429d2
10001a04:	10007db4 	.word	0x10007db4
10001a08:	10007dd4 	.word	0x10007dd4
10001a0c:	20042958 	.word	0x20042958

10001a10 <mutexes_init>:
10001a10:	b508      	push	{r3, lr}
10001a12:	4805      	ldr	r0, [pc, #20]	@ (10001a28 <mutexes_init+0x18>)
10001a14:	f000 fb92 	bl	1000213c <mutex_init>
10001a18:	4804      	ldr	r0, [pc, #16]	@ (10001a2c <mutexes_init+0x1c>)
10001a1a:	f000 fb8f 	bl	1000213c <mutex_init>
10001a1e:	e8bd 4008 	ldmia.w	sp!, {r3, lr}
10001a22:	4803      	ldr	r0, [pc, #12]	@ (10001a30 <mutexes_init+0x20>)
10001a24:	f000 bb8a 	b.w	1000213c <mutex_init>
10001a28:	20042998 	.word	0x20042998
10001a2c:	20042958 	.word	0x20042958
10001a30:	20042388 	.word	0x20042388

10001a34 <flash_bank_zero>:
10001a34:	4800      	ldr	r0, [pc, #0]	@ (10001a38 <flash_bank_zero+0x4>)
10001a36:	4770      	bx	lr
10001a38:	10100000 	.word	0x10100000

10001a3c <flash_bank_one>:
10001a3c:	4800      	ldr	r0, [pc, #0]	@ (10001a40 <flash_bank_one+0x4>)
10001a3e:	4770      	bx	lr
10001a40:	10109000 	.word	0x10109000

10001a44 <read_persist>:
10001a44:	4800      	ldr	r0, [pc, #0]	@ (10001a48 <read_persist+0x4>)
10001a46:	4770      	bx	lr
10001a48:	100ff000 	.word	0x100ff000

10001a4c <print>:
10001a4c:	b510      	push	{r4, lr}
10001a4e:	1c4b      	adds	r3, r1, #1
10001a50:	b0a2      	sub	sp, #136	@ 0x88
10001a52:	d00c      	beq.n	10001a6e <print+0x22>
10001a54:	460c      	mov	r4, r1
10001a56:	4919      	ldr	r1, [pc, #100]	@ (10001abc <print+0x70>)
10001a58:	4288      	cmp	r0, r1
10001a5a:	d00d      	beq.n	10001a78 <print+0x2c>
10001a5c:	4603      	mov	r3, r0
10001a5e:	2180      	movs	r1, #128	@ 0x80
10001a60:	a802      	add	r0, sp, #8
10001a62:	bb22      	cbnz	r2, 10001aae <print+0x62>
10001a64:	4a16      	ldr	r2, [pc, #88]	@ (10001ac0 <print+0x74>)
10001a66:	9400      	str	r4, [sp, #0]
10001a68:	f003 f878 	bl	10004b5c <__wrap_snprintf>
10001a6c:	e00b      	b.n	10001a86 <print+0x3a>
10001a6e:	4a13      	ldr	r2, [pc, #76]	@ (10001abc <print+0x70>)
10001a70:	4290      	cmp	r0, r2
10001a72:	d115      	bne.n	10001aa0 <print+0x54>
10001a74:	b022      	add	sp, #136	@ 0x88
10001a76:	bd10      	pop	{r4, pc}
10001a78:	4623      	mov	r3, r4
10001a7a:	2180      	movs	r1, #128	@ 0x80
10001a7c:	a802      	add	r0, sp, #8
10001a7e:	b9c2      	cbnz	r2, 10001ab2 <print+0x66>
10001a80:	4a10      	ldr	r2, [pc, #64]	@ (10001ac4 <print+0x78>)
10001a82:	f003 f86b 	bl	10004b5c <__wrap_snprintf>
10001a86:	a802      	add	r0, sp, #8
10001a88:	f005 ff72 	bl	10007970 <strlen>
10001a8c:	a902      	add	r1, sp, #8
10001a8e:	4602      	mov	r2, r0
10001a90:	2002      	movs	r0, #2
10001a92:	f004 fd11 	bl	100064b8 <tud_cdc_n_write>
10001a96:	2002      	movs	r0, #2
10001a98:	f004 fcc6 	bl	10006428 <tud_cdc_n_write_flush>
10001a9c:	b022      	add	sp, #136	@ 0x88
10001a9e:	bd10      	pop	{r4, pc}
10001aa0:	4603      	mov	r3, r0
10001aa2:	2180      	movs	r1, #128	@ 0x80
10001aa4:	4a08      	ldr	r2, [pc, #32]	@ (10001ac8 <print+0x7c>)
10001aa6:	a802      	add	r0, sp, #8
10001aa8:	f003 f858 	bl	10004b5c <__wrap_snprintf>
10001aac:	e7eb      	b.n	10001a86 <print+0x3a>
10001aae:	4a07      	ldr	r2, [pc, #28]	@ (10001acc <print+0x80>)
10001ab0:	e7d9      	b.n	10001a66 <print+0x1a>
10001ab2:	4a07      	ldr	r2, [pc, #28]	@ (10001ad0 <print+0x84>)
10001ab4:	f003 f852 	bl	10004b5c <__wrap_snprintf>
10001ab8:	e7e5      	b.n	10001a86 <print+0x3a>
10001aba:	bf00      	nop
10001abc:	10007e40 	.word	0x10007e40
10001ac0:	10007e4c 	.word	0x10007e4c
10001ac4:	10007e44 	.word	0x10007e44
10001ac8:	10007e28 	.word	0x10007e28
10001acc:	10007e38 	.word	0x10007e38
10001ad0:	10007e30 	.word	0x10007e30

10001ad4 <gpio_set_function>:
10001ad4:	b410      	push	{r4}
10001ad6:	f44f 7480 	mov.w	r4, #256	@ 0x100
10001ada:	4b0c      	ldr	r3, [pc, #48]	@ (10001b0c <gpio_set_function+0x38>)
10001adc:	f853 2020 	ldr.w	r2, [r3, r0, lsl #2]
10001ae0:	eb03 0380 	add.w	r3, r3, r0, lsl #2
10001ae4:	00c0      	lsls	r0, r0, #3
10001ae6:	f082 0240 	eor.w	r2, r2, #64	@ 0x40
10001aea:	f100 4080 	add.w	r0, r0, #1073741824	@ 0x40000000
10001aee:	f503 5c80 	add.w	ip, r3, #4096	@ 0x1000
10001af2:	f002 02c0 	and.w	r2, r2, #192	@ 0xc0
10001af6:	f500 3020 	add.w	r0, r0, #163840	@ 0x28000
10001afa:	f503 5340 	add.w	r3, r3, #12288	@ 0x3000
10001afe:	f8cc 2000 	str.w	r2, [ip]
10001b02:	6041      	str	r1, [r0, #4]
10001b04:	601c      	str	r4, [r3, #0]
10001b06:	f85d 4b04 	ldr.w	r4, [sp], #4
10001b0a:	4770      	bx	lr
10001b0c:	40038004 	.word	0x40038004

10001b10 <gpio_init>:
10001b10:	b430      	push	{r4, r5}
10001b12:	f04f 0300 	mov.w	r3, #0
10001b16:	ec43 0044 	gpioc_bit_oe_put r0, r3
10001b1a:	ec43 0040 	gpioc_bit_out_put r0, r3
10001b1e:	2505      	movs	r5, #5
10001b20:	f44f 7480 	mov.w	r4, #256	@ 0x100
10001b24:	4b0b      	ldr	r3, [pc, #44]	@ (10001b54 <gpio_init+0x44>)
10001b26:	00c2      	lsls	r2, r0, #3
10001b28:	f853 1020 	ldr.w	r1, [r3, r0, lsl #2]
10001b2c:	eb03 0080 	add.w	r0, r3, r0, lsl #2
10001b30:	f081 0140 	eor.w	r1, r1, #64	@ 0x40
10001b34:	f102 4380 	add.w	r3, r2, #1073741824	@ 0x40000000
10001b38:	f503 3320 	add.w	r3, r3, #163840	@ 0x28000
10001b3c:	f001 02c0 	and.w	r2, r1, #192	@ 0xc0
10001b40:	f500 5180 	add.w	r1, r0, #4096	@ 0x1000
10001b44:	f500 5040 	add.w	r0, r0, #12288	@ 0x3000
10001b48:	600a      	str	r2, [r1, #0]
10001b4a:	605d      	str	r5, [r3, #4]
10001b4c:	6004      	str	r4, [r0, #0]
10001b4e:	bc30      	pop	{r4, r5}
10001b50:	4770      	bx	lr
10001b52:	bf00      	nop
10001b54:	40038004 	.word	0x40038004

10001b58 <gpio_deinit>:
10001b58:	b410      	push	{r4}
10001b5a:	f44f 7180 	mov.w	r1, #256	@ 0x100
10001b5e:	241f      	movs	r4, #31
10001b60:	4b0c      	ldr	r3, [pc, #48]	@ (10001b94 <gpio_deinit+0x3c>)
10001b62:	f853 2020 	ldr.w	r2, [r3, r0, lsl #2]
10001b66:	eb03 0380 	add.w	r3, r3, r0, lsl #2
10001b6a:	00c0      	lsls	r0, r0, #3
10001b6c:	f082 0240 	eor.w	r2, r2, #64	@ 0x40
10001b70:	f100 4080 	add.w	r0, r0, #1073741824	@ 0x40000000
10001b74:	f503 5c80 	add.w	ip, r3, #4096	@ 0x1000
10001b78:	f002 02c0 	and.w	r2, r2, #192	@ 0xc0
10001b7c:	f500 3020 	add.w	r0, r0, #163840	@ 0x28000
10001b80:	f503 5340 	add.w	r3, r3, #12288	@ 0x3000
10001b84:	f8cc 2000 	str.w	r2, [ip]
10001b88:	6044      	str	r4, [r0, #4]
10001b8a:	f85d 4b04 	ldr.w	r4, [sp], #4
10001b8e:	6019      	str	r1, [r3, #0]
10001b90:	4770      	bx	lr
10001b92:	bf00      	nop
10001b94:	40038004 	.word	0x40038004

10001b98 <panic>:
10001b98:	b40f      	push	{r0, r1, r2, r3}
10001b9a:	b500      	push	{lr}
10001b9c:	b083      	sub	sp, #12
10001b9e:	9c04      	ldr	r4, [sp, #16]
10001ba0:	4807      	ldr	r0, [pc, #28]	@ (10001bc0 <panic+0x28>)
10001ba2:	f003 f94b 	bl	10004e3c <__wrap_puts>
10001ba6:	b13c      	cbz	r4, 10001bb8 <panic+0x20>
10001ba8:	a905      	add	r1, sp, #20
10001baa:	4620      	mov	r0, r4
10001bac:	9101      	str	r1, [sp, #4]
10001bae:	f002 ffeb 	bl	10004b88 <weak_raw_vprintf>
10001bb2:	4804      	ldr	r0, [pc, #16]	@ (10001bc4 <panic+0x2c>)
10001bb4:	f003 f942 	bl	10004e3c <__wrap_puts>
10001bb8:	2001      	movs	r0, #1
10001bba:	f002 fffd 	bl	10004bb8 <_exit>
10001bbe:	bf00      	nop
10001bc0:	10007e54 	.word	0x10007e54
10001bc4:	10007e64 	.word	0x10007e64

10001bc8 <hw_claim_lock>:
10001bc8:	f3ef 8010 	mrs	r0, PRIMASK
10001bcc:	b672      	cpsid	i
10001bce:	4b06      	ldr	r3, [pc, #24]	@ (10001be8 <hw_claim_lock+0x20>)
10001bd0:	e8d3 1fcf 	ldaexb	r1, [r3]
10001bd4:	2201      	movs	r2, #1
10001bd6:	2900      	cmp	r1, #0
10001bd8:	d1fa      	bne.n	10001bd0 <hw_claim_lock+0x8>
10001bda:	e8c3 2f41 	strexb	r1, r2, [r3]
10001bde:	2900      	cmp	r1, #0
10001be0:	d1f6      	bne.n	10001bd0 <hw_claim_lock+0x8>
10001be2:	f3bf 8f5f 	dmb	sy
10001be6:	4770      	bx	lr
10001be8:	200421ff 	.word	0x200421ff

10001bec <hw_claim_unlock>:
10001bec:	2300      	movs	r3, #0
10001bee:	4a03      	ldr	r2, [pc, #12]	@ (10001bfc <hw_claim_unlock+0x10>)
10001bf0:	e8c2 3f8f 	stlb	r3, [r2]
10001bf4:	f380 8810 	msr	PRIMASK, r0
10001bf8:	4770      	bx	lr
10001bfa:	bf00      	nop
10001bfc:	200421ff 	.word	0x200421ff

10001c00 <hw_claim_or_assert>:
10001c00:	b570      	push	{r4, r5, r6, lr}
10001c02:	4686      	mov	lr, r0
10001c04:	f3ef 8510 	mrs	r5, PRIMASK
10001c08:	b672      	cpsid	i
10001c0a:	4c12      	ldr	r4, [pc, #72]	@ (10001c54 <hw_claim_or_assert+0x54>)
10001c0c:	e8d4 6fcf 	ldaexb	r6, [r4]
10001c10:	2001      	movs	r0, #1
10001c12:	2e00      	cmp	r6, #0
10001c14:	d1fa      	bne.n	10001c0c <hw_claim_or_assert+0xc>
10001c16:	e8c4 0f46 	strexb	r6, r0, [r4]
10001c1a:	2e00      	cmp	r6, #0
10001c1c:	d1f6      	bne.n	10001c0c <hw_claim_or_assert+0xc>
10001c1e:	f3bf 8f5f 	dmb	sy
10001c22:	f04f 0c01 	mov.w	ip, #1
10001c26:	08c8      	lsrs	r0, r1, #3
10001c28:	f001 0307 	and.w	r3, r1, #7
10001c2c:	fa0c f303 	lsl.w	r3, ip, r3
10001c30:	f81e c000 	ldrb.w	ip, [lr, r0]
10001c34:	ea1c 0603 	ands.w	r6, ip, r3
10001c38:	d108      	bne.n	10001c4c <hw_claim_or_assert+0x4c>
10001c3a:	ea4c 0c03 	orr.w	ip, ip, r3
10001c3e:	f80e c000 	strb.w	ip, [lr, r0]
10001c42:	e8c4 6f8f 	stlb	r6, [r4]
10001c46:	f385 8810 	msr	PRIMASK, r5
10001c4a:	bd70      	pop	{r4, r5, r6, pc}
10001c4c:	4610      	mov	r0, r2
10001c4e:	f7ff ffa3 	bl	10001b98 <panic>
10001c52:	bf00      	nop
10001c54:	200421ff 	.word	0x200421ff

10001c58 <hw_claim_unused_from_range>:
10001c58:	b5f8      	push	{r3, r4, r5, r6, r7, lr}
10001c5a:	f3ef 8510 	mrs	r5, PRIMASK
10001c5e:	b672      	cpsid	i
10001c60:	4c23      	ldr	r4, [pc, #140]	@ (10001cf0 <hw_claim_unused_from_range+0x98>)
10001c62:	e8d4 7fcf 	ldaexb	r7, [r4]
10001c66:	2601      	movs	r6, #1
10001c68:	2f00      	cmp	r7, #0
10001c6a:	d1fa      	bne.n	10001c62 <hw_claim_unused_from_range+0xa>
10001c6c:	e8c4 6f47 	strexb	r7, r6, [r4]
10001c70:	2f00      	cmp	r7, #0
10001c72:	d1f6      	bne.n	10001c62 <hw_claim_unused_from_range+0xa>
10001c74:	f3bf 8f5f 	dmb	sy
10001c78:	429a      	cmp	r2, r3
10001c7a:	d827      	bhi.n	10001ccc <hw_claim_unused_from_range+0x74>
10001c7c:	2601      	movs	r6, #1
10001c7e:	08d7      	lsrs	r7, r2, #3
10001c80:	f810 e007 	ldrb.w	lr, [r0, r7]
10001c84:	f002 0c07 	and.w	ip, r2, #7
10001c88:	fa06 fc0c 	lsl.w	ip, r6, ip
10001c8c:	ea1e 0f0c 	tst.w	lr, ip
10001c90:	eb00 07d2 	add.w	r7, r0, r2, lsr #3
10001c94:	d10d      	bne.n	10001cb2 <hw_claim_unused_from_range+0x5a>
10001c96:	e025      	b.n	10001ce4 <hw_claim_unused_from_range+0x8c>
10001c98:	ea4f 0ed2 	mov.w	lr, r2, lsr #3
10001c9c:	f810 e00e 	ldrb.w	lr, [r0, lr]
10001ca0:	f002 0c07 	and.w	ip, r2, #7
10001ca4:	fa06 fc0c 	lsl.w	ip, r6, ip
10001ca8:	ea1e 0f0c 	tst.w	lr, ip
10001cac:	eb00 07d2 	add.w	r7, r0, r2, lsr #3
10001cb0:	d018      	beq.n	10001ce4 <hw_claim_unused_from_range+0x8c>
10001cb2:	3201      	adds	r2, #1
10001cb4:	4293      	cmp	r3, r2
10001cb6:	d2ef      	bcs.n	10001c98 <hw_claim_unused_from_range+0x40>
10001cb8:	f04f 30ff 	mov.w	r0, #4294967295
10001cbc:	2300      	movs	r3, #0
10001cbe:	e8c4 3f8f 	stlb	r3, [r4]
10001cc2:	f385 8810 	msr	PRIMASK, r5
10001cc6:	4298      	cmp	r0, r3
10001cc8:	db07      	blt.n	10001cda <hw_claim_unused_from_range+0x82>
10001cca:	bdf8      	pop	{r3, r4, r5, r6, r7, pc}
10001ccc:	2300      	movs	r3, #0
10001cce:	e8c4 3f8f 	stlb	r3, [r4]
10001cd2:	f385 8810 	msr	PRIMASK, r5
10001cd6:	f04f 30ff 	mov.w	r0, #4294967295
10001cda:	2900      	cmp	r1, #0
10001cdc:	d0f5      	beq.n	10001cca <hw_claim_unused_from_range+0x72>
10001cde:	9806      	ldr	r0, [sp, #24]
10001ce0:	f7ff ff5a 	bl	10001b98 <panic>
10001ce4:	ea4e 0e0c 	orr.w	lr, lr, ip
10001ce8:	4610      	mov	r0, r2
10001cea:	f887 e000 	strb.w	lr, [r7]
10001cee:	e7e5      	b.n	10001cbc <hw_claim_unused_from_range+0x64>
10001cf0:	200421ff 	.word	0x200421ff

10001cf4 <next_striped_spin_lock_num>:
10001cf4:	4a04      	ldr	r2, [pc, #16]	@ (10001d08 <next_striped_spin_lock_num+0x14>)
10001cf6:	7810      	ldrb	r0, [r2, #0]
10001cf8:	1c43      	adds	r3, r0, #1
10001cfa:	b2db      	uxtb	r3, r3
10001cfc:	2b18      	cmp	r3, #24
10001cfe:	bf28      	it	cs
10001d00:	2310      	movcs	r3, #16
10001d02:	7013      	strb	r3, [r2, #0]
10001d04:	4770      	bx	lr
10001d06:	bf00      	nop
10001d08:	200015da 	.word	0x200015da

10001d0c <spin_lock_claim_unused>:
10001d0c:	b510      	push	{r4, lr}
10001d0e:	4c05      	ldr	r4, [pc, #20]	@ (10001d24 <spin_lock_claim_unused+0x18>)
10001d10:	b082      	sub	sp, #8
10001d12:	4601      	mov	r1, r0
10001d14:	231f      	movs	r3, #31
10001d16:	2218      	movs	r2, #24
10001d18:	9400      	str	r4, [sp, #0]
10001d1a:	4803      	ldr	r0, [pc, #12]	@ (10001d28 <spin_lock_claim_unused+0x1c>)
10001d1c:	f7ff ff9c 	bl	10001c58 <hw_claim_unused_from_range>
10001d20:	b002      	add	sp, #8
10001d22:	bd10      	pop	{r4, pc}
10001d24:	10007e68 	.word	0x10007e68
10001d28:	2004249c 	.word	0x2004249c

10001d2c <spinlock_set_extexclall>:
10001d2c:	f04f 22e0 	mov.w	r2, #3758153728	@ 0xe000e000
10001d30:	6893      	ldr	r3, [r2, #8]
10001d32:	f043 5300 	orr.w	r3, r3, #536870912	@ 0x20000000
10001d36:	6093      	str	r3, [r2, #8]
10001d38:	4770      	bx	lr
10001d3a:	bf00      	nop

10001d3c <spin_locks_reset>:
10001d3c:	2100      	movs	r1, #0
10001d3e:	4b04      	ldr	r3, [pc, #16]	@ (10001d50 <spin_locks_reset+0x14>)
10001d40:	f103 0220 	add.w	r2, r3, #32
10001d44:	e8c3 1f8f 	stlb	r1, [r3]
10001d48:	3301      	adds	r3, #1
10001d4a:	4293      	cmp	r3, r2
10001d4c:	d1fa      	bne.n	10001d44 <spin_locks_reset+0x8>
10001d4e:	4770      	bx	lr
10001d50:	200421f4 	.word	0x200421f4

10001d54 <runtime_init_per_core_irq_priorities>:
10001d54:	f04f 23e0 	mov.w	r3, #3758153728	@ 0xe000e000
10001d58:	f04f 3280 	mov.w	r2, #2155905152	@ 0x80808080
10001d5c:	f8c3 2400 	str.w	r2, [r3, #1024]	@ 0x400
10001d60:	f8c3 2404 	str.w	r2, [r3, #1028]	@ 0x404
10001d64:	f8c3 2408 	str.w	r2, [r3, #1032]	@ 0x408
10001d68:	f8c3 240c 	str.w	r2, [r3, #1036]	@ 0x40c
10001d6c:	f8c3 2410 	str.w	r2, [r3, #1040]	@ 0x410
10001d70:	f8c3 2414 	str.w	r2, [r3, #1044]	@ 0x414
10001d74:	f8c3 2418 	str.w	r2, [r3, #1048]	@ 0x418
10001d78:	f8c3 241c 	str.w	r2, [r3, #1052]	@ 0x41c
10001d7c:	f8c3 2420 	str.w	r2, [r3, #1056]	@ 0x420
10001d80:	f8c3 2424 	str.w	r2, [r3, #1060]	@ 0x424
10001d84:	f8c3 2428 	str.w	r2, [r3, #1064]	@ 0x428
10001d88:	f8c3 242c 	str.w	r2, [r3, #1068]	@ 0x42c
10001d8c:	f8c3 2430 	str.w	r2, [r3, #1072]	@ 0x430
10001d90:	4770      	bx	lr
10001d92:	bf00      	nop

10001d94 <irq_set_enabled>:
10001d94:	2301      	movs	r3, #1
10001d96:	f000 021f 	and.w	r2, r0, #31
10001d9a:	4093      	lsls	r3, r2
10001d9c:	0940      	lsrs	r0, r0, #5
10001d9e:	b141      	cbz	r1, 10001db2 <irq_set_enabled+0x1e>
10001da0:	0080      	lsls	r0, r0, #2
10001da2:	f100 4060 	add.w	r0, r0, #3758096384	@ 0xe0000000
10001da6:	f500 4061 	add.w	r0, r0, #57600	@ 0xe100
10001daa:	f8c0 3180 	str.w	r3, [r0, #384]	@ 0x180
10001dae:	6003      	str	r3, [r0, #0]
10001db0:	4770      	bx	lr
10001db2:	4a02      	ldr	r2, [pc, #8]	@ (10001dbc <irq_set_enabled+0x28>)
10001db4:	3020      	adds	r0, #32
10001db6:	f842 3020 	str.w	r3, [r2, r0, lsl #2]
10001dba:	4770      	bx	lr
10001dbc:	e000e100 	.word	0xe000e100

10001dc0 <irq_is_enabled>:
10001dc0:	2301      	movs	r3, #1
10001dc2:	4a06      	ldr	r2, [pc, #24]	@ (10001ddc <irq_is_enabled+0x1c>)
10001dc4:	0941      	lsrs	r1, r0, #5
10001dc6:	f852 2021 	ldr.w	r2, [r2, r1, lsl #2]
10001dca:	f000 001f 	and.w	r0, r0, #31
10001dce:	4083      	lsls	r3, r0
10001dd0:	4213      	tst	r3, r2
10001dd2:	bf14      	ite	ne
10001dd4:	2001      	movne	r0, #1
10001dd6:	2000      	moveq	r0, #0
10001dd8:	4770      	bx	lr
10001dda:	bf00      	nop
10001ddc:	e000e100 	.word	0xe000e100

10001de0 <irq_set_exclusive_handler>:
10001de0:	b5f8      	push	{r3, r4, r5, r6, r7, lr}
10001de2:	460d      	mov	r5, r1
10001de4:	f3ef 8710 	mrs	r7, PRIMASK
10001de8:	b672      	cpsid	i
10001dea:	4e12      	ldr	r6, [pc, #72]	@ (10001e34 <irq_set_exclusive_handler+0x54>)
10001dec:	e8d6 2fcf 	ldaexb	r2, [r6]
10001df0:	2301      	movs	r3, #1
10001df2:	2a00      	cmp	r2, #0
10001df4:	d1fa      	bne.n	10001dec <irq_set_exclusive_handler+0xc>
10001df6:	e8c6 3f42 	strexb	r2, r3, [r6]
10001dfa:	2a00      	cmp	r2, #0
10001dfc:	d1f6      	bne.n	10001dec <irq_set_exclusive_handler+0xc>
10001dfe:	f3bf 8f5f 	dmb	sy
10001e02:	4b0d      	ldr	r3, [pc, #52]	@ (10001e38 <irq_set_exclusive_handler+0x58>)
10001e04:	f100 0410 	add.w	r4, r0, #16
10001e08:	689b      	ldr	r3, [r3, #8]
10001e0a:	4a0c      	ldr	r2, [pc, #48]	@ (10001e3c <irq_set_exclusive_handler+0x5c>)
10001e0c:	f853 3024 	ldr.w	r3, [r3, r4, lsl #2]
10001e10:	4293      	cmp	r3, r2
10001e12:	d003      	beq.n	10001e1c <irq_set_exclusive_handler+0x3c>
10001e14:	4299      	cmp	r1, r3
10001e16:	d001      	beq.n	10001e1c <irq_set_exclusive_handler+0x3c>
10001e18:	f001 f96a 	bl	100030f0 <hard_assertion_failure>
10001e1c:	4b06      	ldr	r3, [pc, #24]	@ (10001e38 <irq_set_exclusive_handler+0x58>)
10001e1e:	689b      	ldr	r3, [r3, #8]
10001e20:	f843 5024 	str.w	r5, [r3, r4, lsl #2]
10001e24:	f3bf 8f5f 	dmb	sy
10001e28:	2300      	movs	r3, #0
10001e2a:	e8c6 3f8f 	stlb	r3, [r6]
10001e2e:	f387 8810 	msr	PRIMASK, r7
10001e32:	bdf8      	pop	{r3, r4, r5, r6, r7, pc}
10001e34:	200421fd 	.word	0x200421fd
10001e38:	e000ed00 	.word	0xe000ed00
10001e3c:	1000011d 	.word	0x1000011d

10001e40 <irq_add_shared_handler>:
10001e40:	e92d 4ff0 	stmdb	sp!, {r4, r5, r6, r7, r8, r9, sl, fp, lr}
10001e44:	4681      	mov	r9, r0
10001e46:	468b      	mov	fp, r1
10001e48:	4616      	mov	r6, r2
10001e4a:	b083      	sub	sp, #12
10001e4c:	f3ef 8310 	mrs	r3, PRIMASK
10001e50:	b672      	cpsid	i
10001e52:	f8df a1d0 	ldr.w	sl, [pc, #464]	@ 10002024 <irq_add_shared_handler+0x1e4>
10001e56:	9300      	str	r3, [sp, #0]
10001e58:	e8da 1fcf 	ldaexb	r1, [sl]
10001e5c:	2301      	movs	r3, #1
10001e5e:	2900      	cmp	r1, #0
10001e60:	d1fa      	bne.n	10001e58 <irq_add_shared_handler+0x18>
10001e62:	e8ca 3f41 	strexb	r1, r3, [sl]
10001e66:	2900      	cmp	r1, #0
10001e68:	d1f6      	bne.n	10001e58 <irq_add_shared_handler+0x18>
10001e6a:	f3bf 8f5f 	dmb	sy
10001e6e:	4b66      	ldr	r3, [pc, #408]	@ (10002008 <irq_add_shared_handler+0x1c8>)
10001e70:	f993 4000 	ldrsb.w	r4, [r3]
10001e74:	2c00      	cmp	r4, #0
10001e76:	f2c0 80a0 	blt.w	10001fba <irq_add_shared_handler+0x17a>
10001e7a:	4d64      	ldr	r5, [pc, #400]	@ (1000200c <irq_add_shared_handler+0x1cc>)
10001e7c:	eb04 0744 	add.w	r7, r4, r4, lsl #1
10001e80:	eb05 0887 	add.w	r8, r5, r7, lsl #2
10001e84:	f898 1006 	ldrb.w	r1, [r8, #6]
10001e88:	f109 0910 	add.w	r9, r9, #16
10001e8c:	7019      	strb	r1, [r3, #0]
10001e8e:	4b60      	ldr	r3, [pc, #384]	@ (10002010 <irq_add_shared_handler+0x1d0>)
10001e90:	00bf      	lsls	r7, r7, #2
10001e92:	689b      	ldr	r3, [r3, #8]
10001e94:	f853 0029 	ldr.w	r0, [r3, r9, lsl #2]
10001e98:	0063      	lsls	r3, r4, #1
10001e9a:	1b41      	subs	r1, r0, r5
10001e9c:	292f      	cmp	r1, #47	@ 0x2f
10001e9e:	d92f      	bls.n	10001f00 <irq_add_shared_handler+0xc0>
10001ea0:	495c      	ldr	r1, [pc, #368]	@ (10002014 <irq_add_shared_handler+0x1d4>)
10001ea2:	4288      	cmp	r0, r1
10001ea4:	f040 80a4 	bne.w	10001ff0 <irq_add_shared_handler+0x1b0>
10001ea8:	441c      	add	r4, r3
10001eaa:	4b5b      	ldr	r3, [pc, #364]	@ (10002018 <irq_add_shared_handler+0x1d8>)
10001eac:	3702      	adds	r7, #2
10001eae:	442f      	add	r7, r5
10001eb0:	3b04      	subs	r3, #4
10001eb2:	1bdb      	subs	r3, r3, r7
10001eb4:	f3c3 034a 	ubfx	r3, r3, #1, #11
10001eb8:	ea6f 43c3 	mvn.w	r3, r3, lsl #19
10001ebc:	f44f 4121 	mov.w	r1, #41216	@ 0xa100
10001ec0:	ea6f 43d3 	mvn.w	r3, r3, lsr #19
10001ec4:	f825 1024 	strh.w	r1, [r5, r4, lsl #2]
10001ec8:	eb05 0484 	add.w	r4, r5, r4, lsl #2
10001ecc:	8063      	strh	r3, [r4, #2]
10001ece:	f64b 5301 	movw	r3, #48385	@ 0xbd01
10001ed2:	80a3      	strh	r3, [r4, #4]
10001ed4:	23ff      	movs	r3, #255	@ 0xff
10001ed6:	f048 0001 	orr.w	r0, r8, #1
10001eda:	71e6      	strb	r6, [r4, #7]
10001edc:	f8c4 b008 	str.w	fp, [r4, #8]
10001ee0:	71a3      	strb	r3, [r4, #6]
10001ee2:	4b4b      	ldr	r3, [pc, #300]	@ (10002010 <irq_add_shared_handler+0x1d0>)
10001ee4:	689b      	ldr	r3, [r3, #8]
10001ee6:	f843 0029 	str.w	r0, [r3, r9, lsl #2]
10001eea:	f3bf 8f5f 	dmb	sy
10001eee:	2300      	movs	r3, #0
10001ef0:	e8ca 3f8f 	stlb	r3, [sl]
10001ef4:	9b00      	ldr	r3, [sp, #0]
10001ef6:	f383 8810 	msr	PRIMASK, r3
10001efa:	b003      	add	sp, #12
10001efc:	e8bd 8ff0 	ldmia.w	sp!, {r4, r5, r6, r7, r8, r9, sl, fp, pc}
10001f00:	f020 0e01 	bic.w	lr, r0, #1
10001f04:	f89e 1007 	ldrb.w	r1, [lr, #7]
10001f08:	42b1      	cmp	r1, r6
10001f0a:	d82e      	bhi.n	10001f6a <irq_add_shared_handler+0x12a>
10001f0c:	f44f 4321 	mov.w	r3, #41216	@ 0xa100
10001f10:	53eb      	strh	r3, [r5, r7]
10001f12:	4b41      	ldr	r3, [pc, #260]	@ (10002018 <irq_add_shared_handler+0x1d8>)
10001f14:	1cb9      	adds	r1, r7, #2
10001f16:	4429      	add	r1, r5
10001f18:	3b04      	subs	r3, #4
10001f1a:	3704      	adds	r7, #4
10001f1c:	1a5b      	subs	r3, r3, r1
10001f1e:	442f      	add	r7, r5
10001f20:	f1ae 0104 	sub.w	r1, lr, #4
10001f24:	4c3d      	ldr	r4, [pc, #244]	@ (1000201c <irq_add_shared_handler+0x1dc>)
10001f26:	1bc9      	subs	r1, r1, r7
10001f28:	f3c1 014a 	ubfx	r1, r1, #1, #11
10001f2c:	4321      	orrs	r1, r4
10001f2e:	f8a8 1004 	strh.w	r1, [r8, #4]
10001f32:	f3c3 034a 	ubfx	r3, r3, #1, #11
10001f36:	493a      	ldr	r1, [pc, #232]	@ (10002020 <irq_add_shared_handler+0x1e0>)
10001f38:	4323      	orrs	r3, r4
10001f3a:	f8a8 3002 	strh.w	r3, [r8, #2]
10001f3e:	f64a 20aa 	movw	r0, #43690	@ 0xaaaa
10001f42:	4673      	mov	r3, lr
10001f44:	1b5b      	subs	r3, r3, r5
10001f46:	415b      	adcs	r3, r3
10001f48:	4358      	muls	r0, r3
10001f4a:	0d00      	lsrs	r0, r0, #20
10001f4c:	f888 6007 	strb.w	r6, [r8, #7]
10001f50:	f888 0006 	strb.w	r0, [r8, #6]
10001f54:	f8c8 b008 	str.w	fp, [r8, #8]
10001f58:	f048 0001 	orr.w	r0, r8, #1
10001f5c:	f8ce 1000 	str.w	r1, [lr]
10001f60:	e7bf      	b.n	10001ee2 <irq_add_shared_handler+0xa2>
10001f62:	79d1      	ldrb	r1, [r2, #7]
10001f64:	42b1      	cmp	r1, r6
10001f66:	d92e      	bls.n	10001fc6 <irq_add_shared_handler+0x186>
10001f68:	4696      	mov	lr, r2
10001f6a:	f99e c006 	ldrsb.w	ip, [lr, #6]
10001f6e:	eb0c 024c 	add.w	r2, ip, ip, lsl #1
10001f72:	f1bc 0f00 	cmp.w	ip, #0
10001f76:	eb05 0282 	add.w	r2, r5, r2, lsl #2
10001f7a:	daf2      	bge.n	10001f62 <irq_add_shared_handler+0x122>
10001f7c:	f64b 5101 	movw	r1, #48385	@ 0xbd01
10001f80:	f10e 0204 	add.w	r2, lr, #4
10001f84:	f1a8 0704 	sub.w	r7, r8, #4
10001f88:	1abf      	subs	r7, r7, r2
10001f8a:	f3c7 074a 	ubfx	r7, r7, #1, #11
10001f8e:	ea6f 47c7 	mvn.w	r7, r7, lsl #19
10001f92:	ea6f 47d7 	mvn.w	r7, r7, lsr #19
10001f96:	f88e 4006 	strb.w	r4, [lr, #6]
10001f9a:	eb03 0804 	add.w	r8, r3, r4
10001f9e:	4c20      	ldr	r4, [pc, #128]	@ (10002020 <irq_add_shared_handler+0x1e0>)
10001fa0:	eb05 0388 	add.w	r3, r5, r8, lsl #2
10001fa4:	f8ae 7004 	strh.w	r7, [lr, #4]
10001fa8:	f845 4028 	str.w	r4, [r5, r8, lsl #2]
10001fac:	8099      	strh	r1, [r3, #4]
10001fae:	f883 c006 	strb.w	ip, [r3, #6]
10001fb2:	71de      	strb	r6, [r3, #7]
10001fb4:	f8c3 b008 	str.w	fp, [r3, #8]
10001fb8:	e793      	b.n	10001ee2 <irq_add_shared_handler+0xa2>
10001fba:	f001 f899 	bl	100030f0 <hard_assertion_failure>
10001fbe:	4b12      	ldr	r3, [pc, #72]	@ (10002008 <irq_add_shared_handler+0x1c8>)
10001fc0:	f993 4000 	ldrsb.w	r4, [r3]
10001fc4:	e759      	b.n	10001e7a <irq_add_shared_handler+0x3a>
10001fc6:	4672      	mov	r2, lr
10001fc8:	f832 1f04 	ldrh.w	r1, [r2, #4]!
10001fcc:	0549      	lsls	r1, r1, #21
10001fce:	d414      	bmi.n	10001ffa <irq_add_shared_handler+0x1ba>
10001fd0:	1549      	asrs	r1, r1, #21
10001fd2:	3102      	adds	r1, #2
10001fd4:	eb02 0141 	add.w	r1, r2, r1, lsl #1
10001fd8:	9101      	str	r1, [sp, #4]
10001fda:	f06f 0107 	mvn.w	r1, #7
10001fde:	1bc9      	subs	r1, r1, r7
10001fe0:	9f01      	ldr	r7, [sp, #4]
10001fe2:	1b49      	subs	r1, r1, r5
10001fe4:	4439      	add	r1, r7
10001fe6:	f3c1 014a 	ubfx	r1, r1, #1, #11
10001fea:	f441 4160 	orr.w	r1, r1, #57344	@ 0xe000
10001fee:	e7c9      	b.n	10001f84 <irq_add_shared_handler+0x144>
10001ff0:	9301      	str	r3, [sp, #4]
10001ff2:	f001 f87d 	bl	100030f0 <hard_assertion_failure>
10001ff6:	9b01      	ldr	r3, [sp, #4]
10001ff8:	e756      	b.n	10001ea8 <irq_add_shared_handler+0x68>
10001ffa:	f501 11ff 	add.w	r1, r1, #2088960	@ 0x1fe000
10001ffe:	f501 51ff 	add.w	r1, r1, #8160	@ 0x1fe0
10002002:	311f      	adds	r1, #31
10002004:	e7e4      	b.n	10001fd0 <irq_add_shared_handler+0x190>
10002006:	bf00      	nop
10002008:	200429ce 	.word	0x200429ce
1000200c:	200015dc 	.word	0x200015dc
10002010:	e000ed00 	.word	0xe000ed00
10002014:	1000011d 	.word	0x1000011d
10002018:	2000160c 	.word	0x2000160c
1000201c:	ffffe000 	.word	0xffffe000
10002020:	47804801 	.word	0x47804801
10002024:	200421fd 	.word	0x200421fd

10002028 <irq_add_tail_to_free_list>:
10002028:	b5f0      	push	{r4, r5, r6, r7, lr}
1000202a:	f3ef 8505 	mrs	r5, IPSR
1000202e:	b2ed      	uxtb	r5, r5
10002030:	f3ef 8c10 	mrs	ip, PRIMASK
10002034:	b672      	cpsid	i
10002036:	4926      	ldr	r1, [pc, #152]	@ (100020d0 <irq_add_tail_to_free_list+0xa8>)
10002038:	e8d1 2fcf 	ldaexb	r2, [r1]
1000203c:	2301      	movs	r3, #1
1000203e:	2a00      	cmp	r2, #0
10002040:	d1fa      	bne.n	10002038 <irq_add_tail_to_free_list+0x10>
10002042:	e8c1 3f42 	strexb	r2, r3, [r1]
10002046:	2a00      	cmp	r2, #0
10002048:	d1f6      	bne.n	10002038 <irq_add_tail_to_free_list+0x10>
1000204a:	f3bf 8f5f 	dmb	sy
1000204e:	4e21      	ldr	r6, [pc, #132]	@ (100020d4 <irq_add_tail_to_free_list+0xac>)
10002050:	f040 0e01 	orr.w	lr, r0, #1
10002054:	68b4      	ldr	r4, [r6, #8]
10002056:	f64a 23aa 	movw	r3, #43690	@ 0xaaaa
1000205a:	f854 7025 	ldr.w	r7, [r4, r5, lsl #2]
1000205e:	4a1e      	ldr	r2, [pc, #120]	@ (100020d8 <irq_add_tail_to_free_list+0xb0>)
10002060:	4604      	mov	r4, r0
10002062:	1aa4      	subs	r4, r4, r2
10002064:	4164      	adcs	r4, r4
10002066:	4363      	muls	r3, r4
10002068:	0d1b      	lsrs	r3, r3, #20
1000206a:	4577      	cmp	r7, lr
1000206c:	b25b      	sxtb	r3, r3
1000206e:	d01b      	beq.n	100020a8 <irq_add_tail_to_free_list+0x80>
10002070:	f992 4006 	ldrsb.w	r4, [r2, #6]
10002074:	429c      	cmp	r4, r3
10002076:	d01c      	beq.n	100020b2 <irq_add_tail_to_free_list+0x8a>
10002078:	f992 4012 	ldrsb.w	r4, [r2, #18]
1000207c:	429c      	cmp	r4, r3
1000207e:	d023      	beq.n	100020c8 <irq_add_tail_to_free_list+0xa0>
10002080:	f992 401e 	ldrsb.w	r4, [r2, #30]
10002084:	429c      	cmp	r4, r3
10002086:	d021      	beq.n	100020cc <irq_add_tail_to_free_list+0xa4>
10002088:	f992 402a 	ldrsb.w	r4, [r2, #42]	@ 0x2a
1000208c:	429c      	cmp	r4, r3
1000208e:	bf08      	it	eq
10002090:	2403      	moveq	r4, #3
10002092:	d00f      	beq.n	100020b4 <irq_add_tail_to_free_list+0x8c>
10002094:	4a11      	ldr	r2, [pc, #68]	@ (100020dc <irq_add_tail_to_free_list+0xb4>)
10002096:	2400      	movs	r4, #0
10002098:	7815      	ldrb	r5, [r2, #0]
1000209a:	7013      	strb	r3, [r2, #0]
1000209c:	7185      	strb	r5, [r0, #6]
1000209e:	e8c1 4f8f 	stlb	r4, [r1]
100020a2:	f38c 8810 	msr	PRIMASK, ip
100020a6:	bdf0      	pop	{r4, r5, r6, r7, pc}
100020a8:	68b2      	ldr	r2, [r6, #8]
100020aa:	4c0d      	ldr	r4, [pc, #52]	@ (100020e0 <irq_add_tail_to_free_list+0xb8>)
100020ac:	f842 4025 	str.w	r4, [r2, r5, lsl #2]
100020b0:	e7f0      	b.n	10002094 <irq_add_tail_to_free_list+0x6c>
100020b2:	2400      	movs	r4, #0
100020b4:	eb04 0444 	add.w	r4, r4, r4, lsl #1
100020b8:	eb02 0284 	add.w	r2, r2, r4, lsl #2
100020bc:	24ff      	movs	r4, #255	@ 0xff
100020be:	7194      	strb	r4, [r2, #6]
100020c0:	f64b 5401 	movw	r4, #48385	@ 0xbd01
100020c4:	8094      	strh	r4, [r2, #4]
100020c6:	e7e5      	b.n	10002094 <irq_add_tail_to_free_list+0x6c>
100020c8:	2401      	movs	r4, #1
100020ca:	e7f3      	b.n	100020b4 <irq_add_tail_to_free_list+0x8c>
100020cc:	2402      	movs	r4, #2
100020ce:	e7f1      	b.n	100020b4 <irq_add_tail_to_free_list+0x8c>
100020d0:	200421fd 	.word	0x200421fd
100020d4:	e000ed00 	.word	0xe000ed00
100020d8:	200015dc 	.word	0x200015dc
100020dc:	200429ce 	.word	0x200429ce
100020e0:	1000011d 	.word	0x1000011d

100020e4 <lock_init>:
100020e4:	4b01      	ldr	r3, [pc, #4]	@ (100020ec <lock_init+0x8>)
100020e6:	440b      	add	r3, r1
100020e8:	6003      	str	r3, [r0, #0]
100020ea:	4770      	bx	lr
100020ec:	200421f4 	.word	0x200421f4

100020f0 <runtime_init_mutex>:
100020f0:	b570      	push	{r4, r5, r6, lr}
100020f2:	4c10      	ldr	r4, [pc, #64]	@ (10002134 <runtime_init_mutex+0x44>)
100020f4:	4d10      	ldr	r5, [pc, #64]	@ (10002138 <runtime_init_mutex+0x48>)
100020f6:	42ac      	cmp	r4, r5
100020f8:	d20e      	bcs.n	10002118 <runtime_init_mutex+0x28>
100020fa:	26ff      	movs	r6, #255	@ 0xff
100020fc:	6823      	ldr	r3, [r4, #0]
100020fe:	b163      	cbz	r3, 1000211a <runtime_init_mutex+0x2a>
10002100:	f7ff fdf8 	bl	10001cf4 <next_striped_spin_lock_num>
10002104:	4601      	mov	r1, r0
10002106:	4620      	mov	r0, r4
10002108:	f7ff ffec 	bl	100020e4 <lock_init>
1000210c:	80a6      	strh	r6, [r4, #4]
1000210e:	f3bf 8f5f 	dmb	sy
10002112:	3408      	adds	r4, #8
10002114:	42ac      	cmp	r4, r5
10002116:	d3f1      	bcc.n	100020fc <runtime_init_mutex+0xc>
10002118:	bd70      	pop	{r4, r5, r6, pc}
1000211a:	f7ff fdeb 	bl	10001cf4 <next_striped_spin_lock_num>
1000211e:	4601      	mov	r1, r0
10002120:	4620      	mov	r0, r4
10002122:	f7ff ffdf 	bl	100020e4 <lock_init>
10002126:	7126      	strb	r6, [r4, #4]
10002128:	f3bf 8f5f 	dmb	sy
1000212c:	3408      	adds	r4, #8
1000212e:	42ac      	cmp	r4, r5
10002130:	d3e4      	bcc.n	100020fc <runtime_init_mutex+0xc>
10002132:	bd70      	pop	{r4, r5, r6, pc}
10002134:	20001bb8 	.word	0x20001bb8
10002138:	20001bc8 	.word	0x20001bc8

1000213c <mutex_init>:
1000213c:	b510      	push	{r4, lr}
1000213e:	4604      	mov	r4, r0
10002140:	f7ff fdd8 	bl	10001cf4 <next_striped_spin_lock_num>
10002144:	4601      	mov	r1, r0
10002146:	4620      	mov	r0, r4
10002148:	f7ff ffcc 	bl	100020e4 <lock_init>
1000214c:	23ff      	movs	r3, #255	@ 0xff
1000214e:	7123      	strb	r3, [r4, #4]
10002150:	f3bf 8f5f 	dmb	sy
10002154:	bd10      	pop	{r4, pc}
10002156:	bf00      	nop

10002158 <critical_section_init>:
10002158:	b510      	push	{r4, lr}
1000215a:	4604      	mov	r4, r0
1000215c:	2001      	movs	r0, #1
1000215e:	f7ff fdd5 	bl	10001d0c <spin_lock_claim_unused>
10002162:	4b03      	ldr	r3, [pc, #12]	@ (10002170 <critical_section_init+0x18>)
10002164:	4403      	add	r3, r0
10002166:	6023      	str	r3, [r4, #0]
10002168:	f3bf 8f5f 	dmb	sy
1000216c:	bd10      	pop	{r4, pc}
1000216e:	bf00      	nop
10002170:	200421f4 	.word	0x200421f4

10002174 <sleep_until_callback>:
10002174:	4b0d      	ldr	r3, [pc, #52]	@ (100021ac <sleep_until_callback+0x38>)
10002176:	681a      	ldr	r2, [r3, #0]
10002178:	f3ef 8110 	mrs	r1, PRIMASK
1000217c:	b672      	cpsid	i
1000217e:	e8d2 cfcf 	ldaexb	ip, [r2]
10002182:	2001      	movs	r0, #1
10002184:	f1bc 0f00 	cmp.w	ip, #0
10002188:	d1f9      	bne.n	1000217e <sleep_until_callback+0xa>
1000218a:	e8c2 0f4c 	strexb	ip, r0, [r2]
1000218e:	f1bc 0f00 	cmp.w	ip, #0
10002192:	d1f4      	bne.n	1000217e <sleep_until_callback+0xa>
10002194:	f3bf 8f5f 	dmb	sy
10002198:	2200      	movs	r2, #0
1000219a:	681b      	ldr	r3, [r3, #0]
1000219c:	e8c3 2f8f 	stlb	r2, [r3]
100021a0:	f381 8810 	msr	PRIMASK, r1
100021a4:	bf40      	sev
100021a6:	2000      	movs	r0, #0
100021a8:	2100      	movs	r1, #0
100021aa:	4770      	bx	lr
100021ac:	20042994 	.word	0x20042994

100021b0 <alarm_pool_irq_handler>:
100021b0:	e92d 4ff0 	stmdb	sp!, {r4, r5, r6, r7, r8, r9, sl, fp, lr}
100021b4:	ed2d 8b02 	vpush	{d8}
100021b8:	b085      	sub	sp, #20
100021ba:	f3ef 8305 	mrs	r3, IPSR
100021be:	b2db      	uxtb	r3, r3
100021c0:	3b10      	subs	r3, #16
100021c2:	089a      	lsrs	r2, r3, #2
100021c4:	bf18      	it	ne
100021c6:	2201      	movne	r2, #1
100021c8:	f04f 0101 	mov.w	r1, #1
100021cc:	f003 0003 	and.w	r0, r3, #3
100021d0:	bf18      	it	ne
100021d2:	4dab      	ldrne	r5, [pc, #684]	@ (10002480 <alarm_pool_irq_handler+0x2d0>)
100021d4:	4bab      	ldr	r3, [pc, #684]	@ (10002484 <alarm_pool_irq_handler+0x2d4>)
100021d6:	bf08      	it	eq
100021d8:	4dab      	ldreq	r5, [pc, #684]	@ (10002488 <alarm_pool_irq_handler+0x2d8>)
100021da:	eb00 0282 	add.w	r2, r0, r2, lsl #2
100021de:	fa01 fb00 	lsl.w	fp, r1, r0
100021e2:	f853 6022 	ldr.w	r6, [r3, r2, lsl #2]
100021e6:	f505 5341 	add.w	r3, r5, #12352	@ 0x3040
100021ea:	ed9f 8ba3 	vldr	d8, [pc, #652]	@ 10002478 <alarm_pool_irq_handler+0x2c8>
100021ee:	9001      	str	r0, [sp, #4]
100021f0:	f8c3 b004 	str.w	fp, [r3, #4]
100021f4:	f8cd b000 	str.w	fp, [sp]
100021f8:	e02a      	b.n	10002250 <alarm_pool_irq_handler+0xa0>
100021fa:	88b3      	ldrh	r3, [r6, #4]
100021fc:	0418      	lsls	r0, r3, #16
100021fe:	f140 808c 	bpl.w	1000231a <alarm_pool_irq_handler+0x16a>
10002202:	79b3      	ldrb	r3, [r6, #6]
10002204:	2b00      	cmp	r3, #0
10002206:	f040 80d5 	bne.w	100023b4 <alarm_pool_irq_handler+0x204>
1000220a:	f9b6 1008 	ldrsh.w	r1, [r6, #8]
1000220e:	2900      	cmp	r1, #0
10002210:	f2c0 8115 	blt.w	1000243e <alarm_pool_irq_handler+0x28e>
10002214:	6973      	ldr	r3, [r6, #20]
10002216:	eb01 0141 	add.w	r1, r1, r1, lsl #1
1000221a:	eb03 03c1 	add.w	r3, r3, r1, lsl #3
1000221e:	e9d3 4702 	ldrd	r4, r7, [r3, #8]
10002222:	f1b7 3fff 	cmp.w	r7, #4294967295
10002226:	bf08      	it	eq
10002228:	f1b4 3fff 	cmpeq.w	r4, #4294967295
1000222c:	d009      	beq.n	10002242 <alarm_pool_irq_handler+0x92>
1000222e:	9b01      	ldr	r3, [sp, #4]
10002230:	eb05 0183 	add.w	r1, r5, r3, lsl #2
10002234:	6aab      	ldr	r3, [r5, #40]	@ 0x28
10002236:	690a      	ldr	r2, [r1, #16]
10002238:	1ad2      	subs	r2, r2, r3
1000223a:	1ae3      	subs	r3, r4, r3
1000223c:	4293      	cmp	r3, r2
1000223e:	bf38      	it	cc
10002240:	610c      	strcc	r4, [r1, #16]
10002242:	4628      	mov	r0, r5
10002244:	f000 fb3e 	bl	100028c4 <timer_time_us_64>
10002248:	42a0      	cmp	r0, r4
1000224a:	41b9      	sbcs	r1, r7
1000224c:	f2c0 80f7 	blt.w	1000243e <alarm_pool_irq_handler+0x28e>
10002250:	f9b6 4008 	ldrsh.w	r4, [r6, #8]
10002254:	9b00      	ldr	r3, [sp, #0]
10002256:	2c00      	cmp	r4, #0
10002258:	63eb      	str	r3, [r5, #60]	@ 0x3c
1000225a:	dbce      	blt.n	100021fa <alarm_pool_irq_handler+0x4a>
1000225c:	f8d6 9014 	ldr.w	r9, [r6, #20]
10002260:	eb04 0a44 	add.w	sl, r4, r4, lsl #1
10002264:	4628      	mov	r0, r5
10002266:	eb09 07ca 	add.w	r7, r9, sl, lsl #3
1000226a:	e9d7 b802 	ldrd	fp, r8, [r7, #8]
1000226e:	f000 fb29 	bl	100028c4 <timer_time_us_64>
10002272:	4558      	cmp	r0, fp
10002274:	eb71 0108 	sbcs.w	r1, r1, r8
10002278:	dbbf      	blt.n	100021fa <alarm_pool_irq_handler+0x4a>
1000227a:	f1b8 0f00 	cmp.w	r8, #0
1000227e:	f2c0 80c1 	blt.w	10002404 <alarm_pool_irq_handler+0x254>
10002282:	e9d7 3104 	ldrd	r3, r1, [r7, #16]
10002286:	4a81      	ldr	r2, [pc, #516]	@ (1000248c <alarm_pool_irq_handler+0x2dc>)
10002288:	4293      	cmp	r3, r2
1000228a:	f000 80ea 	beq.w	10002462 <alarm_pool_irq_handler+0x2b2>
1000228e:	887a      	ldrh	r2, [r7, #2]
10002290:	f9b6 0008 	ldrsh.w	r0, [r6, #8]
10002294:	b292      	uxth	r2, r2
10002296:	ea42 4000 	orr.w	r0, r2, r0, lsl #16
1000229a:	4798      	blx	r3
1000229c:	4602      	mov	r2, r0
1000229e:	460b      	mov	r3, r1
100022a0:	ea52 0103 	orrs.w	r1, r2, r3
100022a4:	f000 80ae 	beq.w	10002404 <alarm_pool_irq_handler+0x254>
100022a8:	2b00      	cmp	r3, #0
100022aa:	f280 80ce 	bge.w	1000244a <alarm_pool_irq_handler+0x29a>
100022ae:	ebbb 0b02 	subs.w	fp, fp, r2
100022b2:	eb68 0803 	sbc.w	r8, r8, r3
100022b6:	f939 303a 	ldrsh.w	r3, [r9, sl, lsl #3]
100022ba:	e9c7 b802 	strd	fp, r8, [r7, #8]
100022be:	2b00      	cmp	r3, #0
100022c0:	db9b      	blt.n	100021fa <alarm_pool_irq_handler+0x4a>
100022c2:	6971      	ldr	r1, [r6, #20]
100022c4:	eb03 0243 	add.w	r2, r3, r3, lsl #1
100022c8:	eb01 02c2 	add.w	r2, r1, r2, lsl #3
100022cc:	e9d2 7002 	ldrd	r7, r0, [r2, #8]
100022d0:	45bb      	cmp	fp, r7
100022d2:	eb78 0c00 	sbcs.w	ip, r8, r0
100022d6:	ea4f 0243 	mov.w	r2, r3, lsl #1
100022da:	db8e      	blt.n	100021fa <alarm_pool_irq_handler+0x4a>
100022dc:	46b4      	mov	ip, r6
100022de:	f82c 3f08 	strh.w	r3, [ip, #8]!
100022e2:	e00b      	b.n	100022fc <alarm_pool_irq_handler+0x14c>
100022e4:	f931 3032 	ldrsh.w	r3, [r1, r2, lsl #3]
100022e8:	46f4      	mov	ip, lr
100022ea:	2b00      	cmp	r3, #0
100022ec:	db0d      	blt.n	1000230a <alarm_pool_irq_handler+0x15a>
100022ee:	eb03 0043 	add.w	r0, r3, r3, lsl #1
100022f2:	eb01 00c0 	add.w	r0, r1, r0, lsl #3
100022f6:	005a      	lsls	r2, r3, #1
100022f8:	e9d0 7002 	ldrd	r7, r0, [r0, #8]
100022fc:	45bb      	cmp	fp, r7
100022fe:	441a      	add	r2, r3
10002300:	eb78 0000 	sbcs.w	r0, r8, r0
10002304:	eb01 0ec2 	add.w	lr, r1, r2, lsl #3
10002308:	daec      	bge.n	100022e4 <alarm_pool_irq_handler+0x134>
1000230a:	f829 303a 	strh.w	r3, [r9, sl, lsl #3]
1000230e:	f8ac 4000 	strh.w	r4, [ip]
10002312:	88b3      	ldrh	r3, [r6, #4]
10002314:	0418      	lsls	r0, r3, #16
10002316:	f53f af74 	bmi.w	10002202 <alarm_pool_irq_handler+0x52>
1000231a:	6933      	ldr	r3, [r6, #16]
1000231c:	f3ef 8210 	mrs	r2, PRIMASK
10002320:	b672      	cpsid	i
10002322:	e8d3 0fcf 	ldaexb	r0, [r3]
10002326:	2101      	movs	r1, #1
10002328:	2800      	cmp	r0, #0
1000232a:	d1fa      	bne.n	10002322 <alarm_pool_irq_handler+0x172>
1000232c:	e8c3 1f40 	strexb	r0, r1, [r3]
10002330:	2800      	cmp	r0, #0
10002332:	d1f6      	bne.n	10002322 <alarm_pool_irq_handler+0x172>
10002334:	f3bf 8f5f 	dmb	sy
10002338:	f64f 74ff 	movw	r4, #65535	@ 0xffff
1000233c:	88b0      	ldrh	r0, [r6, #4]
1000233e:	2300      	movs	r3, #0
10002340:	6931      	ldr	r1, [r6, #16]
10002342:	b200      	sxth	r0, r0
10002344:	80b4      	strh	r4, [r6, #4]
10002346:	e8c1 3f8f 	stlb	r3, [r1]
1000234a:	f382 8810 	msr	PRIMASK, r2
1000234e:	4298      	cmp	r0, r3
10002350:	f6ff af57 	blt.w	10002202 <alarm_pool_irq_handler+0x52>
10002354:	4607      	mov	r7, r0
10002356:	46a9      	mov	r9, r5
10002358:	6974      	ldr	r4, [r6, #20]
1000235a:	f106 0808 	add.w	r8, r6, #8
1000235e:	eb07 0e47 	add.w	lr, r7, r7, lsl #1
10002362:	eb04 03ce 	add.w	r3, r4, lr, lsl #3
10002366:	e9d3 5002 	ldrd	r5, r0, [r3, #8]
1000236a:	f9b6 3008 	ldrsh.w	r3, [r6, #8]
1000236e:	46c4      	mov	ip, r8
10002370:	2b00      	cmp	r3, #0
10002372:	bfa8      	it	ge
10002374:	46b3      	movge	fp, r6
10002376:	da05      	bge.n	10002384 <alarm_pool_irq_handler+0x1d4>
10002378:	e00f      	b.n	1000239a <alarm_pool_irq_handler+0x1ea>
1000237a:	f934 303a 	ldrsh.w	r3, [r4, sl, lsl #3]
1000237e:	4694      	mov	ip, r2
10002380:	2b00      	cmp	r3, #0
10002382:	db09      	blt.n	10002398 <alarm_pool_irq_handler+0x1e8>
10002384:	eb03 0a43 	add.w	sl, r3, r3, lsl #1
10002388:	eb04 02ca 	add.w	r2, r4, sl, lsl #3
1000238c:	e9d2 6102 	ldrd	r6, r1, [r2, #8]
10002390:	42b5      	cmp	r5, r6
10002392:	eb70 0101 	sbcs.w	r1, r0, r1
10002396:	daf0      	bge.n	1000237a <alarm_pool_irq_handler+0x1ca>
10002398:	465e      	mov	r6, fp
1000239a:	f8ac 7000 	strh.w	r7, [ip]
1000239e:	f934 703e 	ldrsh.w	r7, [r4, lr, lsl #3]
100023a2:	f824 303e 	strh.w	r3, [r4, lr, lsl #3]
100023a6:	2f00      	cmp	r7, #0
100023a8:	dad9      	bge.n	1000235e <alarm_pool_irq_handler+0x1ae>
100023aa:	79b3      	ldrb	r3, [r6, #6]
100023ac:	464d      	mov	r5, r9
100023ae:	2b00      	cmp	r3, #0
100023b0:	f43f af2b 	beq.w	1000220a <alarm_pool_irq_handler+0x5a>
100023b4:	2300      	movs	r3, #0
100023b6:	71b3      	strb	r3, [r6, #6]
100023b8:	f9b6 3008 	ldrsh.w	r3, [r6, #8]
100023bc:	f106 0808 	add.w	r8, r6, #8
100023c0:	1c59      	adds	r1, r3, #1
100023c2:	d03c      	beq.n	1000243e <alarm_pool_irq_handler+0x28e>
100023c4:	4619      	mov	r1, r3
100023c6:	6977      	ldr	r7, [r6, #20]
100023c8:	e003      	b.n	100023d2 <alarm_pool_irq_handler+0x222>
100023ca:	4680      	mov	r8, r0
100023cc:	1c5a      	adds	r2, r3, #1
100023ce:	f43f af1e 	beq.w	1000220e <alarm_pool_irq_handler+0x5e>
100023d2:	eb03 0243 	add.w	r2, r3, r3, lsl #1
100023d6:	eb07 00c2 	add.w	r0, r7, r2, lsl #3
100023da:	f8b0 c002 	ldrh.w	ip, [r0, #2]
100023de:	461c      	mov	r4, r3
100023e0:	f41c 4f00 	tst.w	ip, #32768	@ 0x8000
100023e4:	469e      	mov	lr, r3
100023e6:	f937 3032 	ldrsh.w	r3, [r7, r2, lsl #3]
100023ea:	d0ee      	beq.n	100023ca <alarm_pool_irq_handler+0x21a>
100023ec:	428c      	cmp	r4, r1
100023ee:	ed80 8b02 	vstr	d8, [r0, #8]
100023f2:	d005      	beq.n	10002400 <alarm_pool_irq_handler+0x250>
100023f4:	f8a8 3000 	strh.w	r3, [r8]
100023f8:	8931      	ldrh	r1, [r6, #8]
100023fa:	f827 1032 	strh.w	r1, [r7, r2, lsl #3]
100023fe:	8134      	strh	r4, [r6, #8]
10002400:	4671      	mov	r1, lr
10002402:	e7e3      	b.n	100023cc <alarm_pool_irq_handler+0x21c>
10002404:	f839 303a 	ldrh.w	r3, [r9, sl, lsl #3]
10002408:	8133      	strh	r3, [r6, #8]
1000240a:	6933      	ldr	r3, [r6, #16]
1000240c:	f3ef 8210 	mrs	r2, PRIMASK
10002410:	b672      	cpsid	i
10002412:	e8d3 0fcf 	ldaexb	r0, [r3]
10002416:	2101      	movs	r1, #1
10002418:	2800      	cmp	r0, #0
1000241a:	d1fa      	bne.n	10002412 <alarm_pool_irq_handler+0x262>
1000241c:	e8c3 1f40 	strexb	r0, r1, [r3]
10002420:	2800      	cmp	r0, #0
10002422:	d1f6      	bne.n	10002412 <alarm_pool_irq_handler+0x262>
10002424:	f3bf 8f5f 	dmb	sy
10002428:	8873      	ldrh	r3, [r6, #2]
1000242a:	6931      	ldr	r1, [r6, #16]
1000242c:	f829 303a 	strh.w	r3, [r9, sl, lsl #3]
10002430:	2300      	movs	r3, #0
10002432:	8074      	strh	r4, [r6, #2]
10002434:	e8c1 3f8f 	stlb	r3, [r1]
10002438:	f382 8810 	msr	PRIMASK, r2
1000243c:	e6dd      	b.n	100021fa <alarm_pool_irq_handler+0x4a>
1000243e:	bf40      	sev
10002440:	b005      	add	sp, #20
10002442:	ecbd 8b02 	vpop	{d8}
10002446:	e8bd 8ff0 	ldmia.w	sp!, {r4, r5, r6, r7, r8, r9, sl, fp, pc}
1000244a:	4628      	mov	r0, r5
1000244c:	e9cd 2302 	strd	r2, r3, [sp, #8]
10002450:	f000 fa38 	bl	100028c4 <timer_time_us_64>
10002454:	9a02      	ldr	r2, [sp, #8]
10002456:	9b03      	ldr	r3, [sp, #12]
10002458:	eb10 0b02 	adds.w	fp, r0, r2
1000245c:	eb43 0801 	adc.w	r8, r3, r1
10002460:	e729      	b.n	100022b6 <alarm_pool_irq_handler+0x106>
10002462:	4608      	mov	r0, r1
10002464:	690b      	ldr	r3, [r1, #16]
10002466:	9102      	str	r1, [sp, #8]
10002468:	4798      	blx	r3
1000246a:	2800      	cmp	r0, #0
1000246c:	d0ca      	beq.n	10002404 <alarm_pool_irq_handler+0x254>
1000246e:	9902      	ldr	r1, [sp, #8]
10002470:	e9d1 2300 	ldrd	r2, r3, [r1]
10002474:	e714      	b.n	100022a0 <alarm_pool_irq_handler+0xf0>
10002476:	bf00      	nop
10002478:	ffffffff 	.word	0xffffffff
1000247c:	ffffffff 	.word	0xffffffff
10002480:	400b8000 	.word	0x400b8000
10002484:	2004296c 	.word	0x2004296c
10002488:	400b0000 	.word	0x400b0000
1000248c:	100021b1 	.word	0x100021b1

10002490 <runtime_init_default_alarm_pool>:
10002490:	e92d 4ff8 	stmdb	sp!, {r3, r4, r5, r6, r7, r8, r9, sl, fp, lr}
10002494:	4c36      	ldr	r4, [pc, #216]	@ (10002570 <runtime_init_default_alarm_pool+0xe0>)
10002496:	6925      	ldr	r5, [r4, #16]
10002498:	b12d      	cbz	r5, 100024a6 <runtime_init_default_alarm_pool+0x16>
1000249a:	e8bd 4ff8 	ldmia.w	sp!, {r3, r4, r5, r6, r7, r8, r9, sl, fp, lr}
1000249e:	210a      	movs	r1, #10
100024a0:	4834      	ldr	r0, [pc, #208]	@ (10002574 <runtime_init_default_alarm_pool+0xe4>)
100024a2:	f7ff be1f 	b.w	100020e4 <lock_init>
100024a6:	f8df 80e4 	ldr.w	r8, [pc, #228]	@ 1000258c <runtime_init_default_alarm_pool+0xfc>
100024aa:	2103      	movs	r1, #3
100024ac:	4640      	mov	r0, r8
100024ae:	f000 f9f7 	bl	100028a0 <timer_hardware_alarm_claim>
100024b2:	2603      	movs	r6, #3
100024b4:	f8c4 800c 	str.w	r8, [r4, #12]
100024b8:	f7ff fc1c 	bl	10001cf4 <next_striped_spin_lock_num>
100024bc:	f04f 4c50 	mov.w	ip, #3489660928	@ 0xd0000000
100024c0:	4b2d      	ldr	r3, [pc, #180]	@ (10002578 <runtime_init_default_alarm_pool+0xe8>)
100024c2:	7026      	strb	r6, [r4, #0]
100024c4:	4403      	add	r3, r0
100024c6:	6123      	str	r3, [r4, #16]
100024c8:	f8dc 3000 	ldr.w	r3, [ip]
100024cc:	210f      	movs	r1, #15
100024ce:	7063      	strb	r3, [r4, #1]
100024d0:	6963      	ldr	r3, [r4, #20]
100024d2:	8061      	strh	r1, [r4, #2]
100024d4:	831d      	strh	r5, [r3, #24]
100024d6:	f04f 0504 	mov.w	r5, #4
100024da:	f8a3 5078 	strh.w	r5, [r3, #120]	@ 0x78
100024de:	f04f 0505 	mov.w	r5, #5
100024e2:	f8a3 5090 	strh.w	r5, [r3, #144]	@ 0x90
100024e6:	f04f 0506 	mov.w	r5, #6
100024ea:	f8a3 50a8 	strh.w	r5, [r3, #168]	@ 0xa8
100024ee:	f04f 0507 	mov.w	r5, #7
100024f2:	210e      	movs	r1, #14
100024f4:	f64f 72ff 	movw	r2, #65535	@ 0xffff
100024f8:	2708      	movs	r7, #8
100024fa:	f04f 0e0a 	mov.w	lr, #10
100024fe:	f8a3 50c0 	strh.w	r5, [r3, #192]	@ 0xc0
10002502:	f04f 0901 	mov.w	r9, #1
10002506:	f04f 0c0c 	mov.w	ip, #12
1000250a:	f04f 0b02 	mov.w	fp, #2
1000250e:	f04f 0a09 	mov.w	sl, #9
10002512:	200d      	movs	r0, #13
10002514:	f04f 050b 	mov.w	r5, #11
10002518:	f8a3 1168 	strh.w	r1, [r3, #360]	@ 0x168
1000251c:	4917      	ldr	r1, [pc, #92]	@ (1000257c <runtime_init_default_alarm_pool+0xec>)
1000251e:	80a2      	strh	r2, [r4, #4]
10002520:	f8a3 e108 	strh.w	lr, [r3, #264]	@ 0x108
10002524:	60a1      	str	r1, [r4, #8]
10002526:	f8a3 b048 	strh.w	fp, [r3, #72]	@ 0x48
1000252a:	f8a3 a0f0 	strh.w	sl, [r3, #240]	@ 0xf0
1000252e:	f8a3 5120 	strh.w	r5, [r3, #288]	@ 0x120
10002532:	f8a3 c138 	strh.w	ip, [r3, #312]	@ 0x138
10002536:	f8a3 0150 	strh.w	r0, [r3, #336]	@ 0x150
1000253a:	f8a3 9030 	strh.w	r9, [r3, #48]	@ 0x30
1000253e:	f8a3 6060 	strh.w	r6, [r3, #96]	@ 0x60
10002542:	f8a3 70d8 	strh.w	r7, [r3, #216]	@ 0xd8
10002546:	801a      	strh	r2, [r3, #0]
10002548:	4b0d      	ldr	r3, [pc, #52]	@ (10002580 <runtime_init_default_alarm_pool+0xf0>)
1000254a:	4630      	mov	r0, r6
1000254c:	f8c8 7020 	str.w	r7, [r8, #32]
10002550:	490c      	ldr	r1, [pc, #48]	@ (10002584 <runtime_init_default_alarm_pool+0xf4>)
10002552:	60dc      	str	r4, [r3, #12]
10002554:	f7ff fc44 	bl	10001de0 <irq_set_exclusive_handler>
10002558:	4649      	mov	r1, r9
1000255a:	4630      	mov	r0, r6
1000255c:	f7ff fc1a 	bl	10001d94 <irq_set_enabled>
10002560:	4b09      	ldr	r3, [pc, #36]	@ (10002588 <runtime_init_default_alarm_pool+0xf8>)
10002562:	210a      	movs	r1, #10
10002564:	641f      	str	r7, [r3, #64]	@ 0x40
10002566:	4803      	ldr	r0, [pc, #12]	@ (10002574 <runtime_init_default_alarm_pool+0xe4>)
10002568:	e8bd 4ff8 	ldmia.w	sp!, {r3, r4, r5, r6, r7, r8, r9, sl, fp, lr}
1000256c:	f7ff bdba 	b.w	100020e4 <lock_init>
10002570:	20001624 	.word	0x20001624
10002574:	20042994 	.word	0x20042994
10002578:	200421f4 	.word	0x200421f4
1000257c:	0010ffff 	.word	0x0010ffff
10002580:	2004296c 	.word	0x2004296c
10002584:	100021b1 	.word	0x100021b1
10002588:	400b2000 	.word	0x400b2000
1000258c:	400b0000 	.word	0x400b0000

10002590 <alarm_pool_add_alarm_at_force_in_context>:
10002590:	4601      	mov	r1, r0
10002592:	b5f0      	push	{r4, r5, r6, r7, lr}
10002594:	6900      	ldr	r0, [r0, #16]
10002596:	f3ef 8710 	mrs	r7, PRIMASK
1000259a:	b672      	cpsid	i
1000259c:	e8d0 5fcf 	ldaexb	r5, [r0]
100025a0:	2401      	movs	r4, #1
100025a2:	2d00      	cmp	r5, #0
100025a4:	d1fa      	bne.n	1000259c <alarm_pool_add_alarm_at_force_in_context+0xc>
100025a6:	e8c0 4f45 	strexb	r5, r4, [r0]
100025aa:	2d00      	cmp	r5, #0
100025ac:	d1f6      	bne.n	1000259c <alarm_pool_add_alarm_at_force_in_context+0xc>
100025ae:	f3bf 8f5f 	dmb	sy
100025b2:	f9b1 e002 	ldrsh.w	lr, [r1, #2]
100025b6:	694c      	ldr	r4, [r1, #20]
100025b8:	eb0e 0c4e 	add.w	ip, lr, lr, lsl #1
100025bc:	f1be 0f00 	cmp.w	lr, #0
100025c0:	ea4f 05cc 	mov.w	r5, ip, lsl #3
100025c4:	eb04 0ccc 	add.w	ip, r4, ip, lsl #3
100025c8:	db3d      	blt.n	10002646 <alarm_pool_add_alarm_at_force_in_context+0xb6>
100025ca:	5b60      	ldrh	r0, [r4, r5]
100025cc:	2600      	movs	r6, #0
100025ce:	8048      	strh	r0, [r1, #2]
100025d0:	6908      	ldr	r0, [r1, #16]
100025d2:	e8c0 6f8f 	stlb	r6, [r0]
100025d6:	f387 8810 	msr	PRIMASK, r7
100025da:	f8bc 0002 	ldrh.w	r0, [ip, #2]
100025de:	e9cc 2302 	strd	r2, r3, [ip, #8]
100025e2:	3001      	adds	r0, #1
100025e4:	f3c0 000e 	ubfx	r0, r0, #0, #15
100025e8:	2801      	cmp	r0, #1
100025ea:	bf38      	it	cc
100025ec:	2001      	movcc	r0, #1
100025ee:	9b05      	ldr	r3, [sp, #20]
100025f0:	f8ac 0002 	strh.w	r0, [ip, #2]
100025f4:	f8cc 3010 	str.w	r3, [ip, #16]
100025f8:	9b06      	ldr	r3, [sp, #24]
100025fa:	ea40 400e 	orr.w	r0, r0, lr, lsl #16
100025fe:	f8cc 3014 	str.w	r3, [ip, #20]
10002602:	690b      	ldr	r3, [r1, #16]
10002604:	f3ef 8210 	mrs	r2, PRIMASK
10002608:	b672      	cpsid	i
1000260a:	e8d3 cfcf 	ldaexb	ip, [r3]
1000260e:	2701      	movs	r7, #1
10002610:	f1bc 0f00 	cmp.w	ip, #0
10002614:	d1f9      	bne.n	1000260a <alarm_pool_add_alarm_at_force_in_context+0x7a>
10002616:	e8c3 7f4c 	strexb	ip, r7, [r3]
1000261a:	f1bc 0f00 	cmp.w	ip, #0
1000261e:	d1f4      	bne.n	1000260a <alarm_pool_add_alarm_at_force_in_context+0x7a>
10002620:	f3bf 8f5f 	dmb	sy
10002624:	888b      	ldrh	r3, [r1, #4]
10002626:	5363      	strh	r3, [r4, r5]
10002628:	f8a1 e004 	strh.w	lr, [r1, #4]
1000262c:	690b      	ldr	r3, [r1, #16]
1000262e:	e8c3 6f8f 	stlb	r6, [r3]
10002632:	f382 8810 	msr	PRIMASK, r2
10002636:	2201      	movs	r2, #1
10002638:	68cb      	ldr	r3, [r1, #12]
1000263a:	7809      	ldrb	r1, [r1, #0]
1000263c:	f503 5301 	add.w	r3, r3, #8256	@ 0x2040
10002640:	408a      	lsls	r2, r1
10002642:	605a      	str	r2, [r3, #4]
10002644:	bdf0      	pop	{r4, r5, r6, r7, pc}
10002646:	2300      	movs	r3, #0
10002648:	690a      	ldr	r2, [r1, #16]
1000264a:	e8c2 3f8f 	stlb	r3, [r2]
1000264e:	f387 8810 	msr	PRIMASK, r7
10002652:	f04f 30ff 	mov.w	r0, #4294967295
10002656:	bdf0      	pop	{r4, r5, r6, r7, pc}

10002658 <alarm_pool_cancel_alarm>:
10002658:	4603      	mov	r3, r0
1000265a:	8940      	ldrh	r0, [r0, #10]
1000265c:	ebb0 4f21 	cmp.w	r0, r1, asr #16
10002660:	dd37      	ble.n	100026d2 <alarm_pool_cancel_alarm+0x7a>
10002662:	6958      	ldr	r0, [r3, #20]
10002664:	140a      	asrs	r2, r1, #16
10002666:	eb02 0242 	add.w	r2, r2, r2, lsl #1
1000266a:	b510      	push	{r4, lr}
1000266c:	eb00 00c2 	add.w	r0, r0, r2, lsl #3
10002670:	691c      	ldr	r4, [r3, #16]
10002672:	f3ef 8c10 	mrs	ip, PRIMASK
10002676:	b672      	cpsid	i
10002678:	e8d4 efcf 	ldaexb	lr, [r4]
1000267c:	2201      	movs	r2, #1
1000267e:	f1be 0f00 	cmp.w	lr, #0
10002682:	d1f9      	bne.n	10002678 <alarm_pool_cancel_alarm+0x20>
10002684:	e8c4 2f4e 	strexb	lr, r2, [r4]
10002688:	f1be 0f00 	cmp.w	lr, #0
1000268c:	d1f4      	bne.n	10002678 <alarm_pool_cancel_alarm+0x20>
1000268e:	f3bf 8f5f 	dmb	sy
10002692:	8842      	ldrh	r2, [r0, #2]
10002694:	b289      	uxth	r1, r1
10002696:	b292      	uxth	r2, r2
10002698:	428a      	cmp	r2, r1
1000269a:	d007      	beq.n	100026ac <alarm_pool_cancel_alarm+0x54>
1000269c:	2200      	movs	r2, #0
1000269e:	691b      	ldr	r3, [r3, #16]
100026a0:	e8c3 2f8f 	stlb	r2, [r3]
100026a4:	f38c 8810 	msr	PRIMASK, ip
100026a8:	2000      	movs	r0, #0
100026aa:	bd10      	pop	{r4, pc}
100026ac:	f442 4200 	orr.w	r2, r2, #32768	@ 0x8000
100026b0:	8042      	strh	r2, [r0, #2]
100026b2:	2101      	movs	r1, #1
100026b4:	2200      	movs	r2, #0
100026b6:	6918      	ldr	r0, [r3, #16]
100026b8:	7199      	strb	r1, [r3, #6]
100026ba:	e8c0 2f8f 	stlb	r2, [r0]
100026be:	f38c 8810 	msr	PRIMASK, ip
100026c2:	781c      	ldrb	r4, [r3, #0]
100026c4:	68da      	ldr	r2, [r3, #12]
100026c6:	4608      	mov	r0, r1
100026c8:	f502 5301 	add.w	r3, r2, #8256	@ 0x2040
100026cc:	40a1      	lsls	r1, r4
100026ce:	6059      	str	r1, [r3, #4]
100026d0:	bd10      	pop	{r4, pc}
100026d2:	2000      	movs	r0, #0
100026d4:	4770      	bx	lr
100026d6:	bf00      	nop

100026d8 <sleep_until>:
100026d8:	e92d 41f0 	stmdb	sp!, {r4, r5, r6, r7, r8, lr}
100026dc:	1f86      	subs	r6, r0, #6
100026de:	f141 35ff 	adc.w	r5, r1, #4294967295
100026e2:	42b0      	cmp	r0, r6
100026e4:	eb71 0305 	sbcs.w	r3, r1, r5
100026e8:	bf38      	it	cc
100026ea:	2600      	movcc	r6, #0
100026ec:	b082      	sub	sp, #8
100026ee:	bf38      	it	cc
100026f0:	4635      	movcc	r5, r6
100026f2:	4604      	mov	r4, r0
100026f4:	460f      	mov	r7, r1
100026f6:	f000 f8ed 	bl	100028d4 <time_us_64>
100026fa:	1a30      	subs	r0, r6, r0
100026fc:	eb65 0301 	sbc.w	r3, r5, r1
10002700:	2801      	cmp	r0, #1
10002702:	f173 0300 	sbcs.w	r3, r3, #0
10002706:	da06      	bge.n	10002716 <sleep_until+0x3e>
10002708:	4620      	mov	r0, r4
1000270a:	4639      	mov	r1, r7
1000270c:	b002      	add	sp, #8
1000270e:	e8bd 41f0 	ldmia.w	sp!, {r4, r5, r6, r7, r8, lr}
10002712:	f000 b91b 	b.w	1000294c <busy_wait_until>
10002716:	f000 f8dd 	bl	100028d4 <time_us_64>
1000271a:	4286      	cmp	r6, r0
1000271c:	eb65 0101 	sbc.w	r1, r5, r1
10002720:	2900      	cmp	r1, #0
10002722:	db0a      	blt.n	1000273a <sleep_until+0x62>
10002724:	2100      	movs	r1, #0
10002726:	4b17      	ldr	r3, [pc, #92]	@ (10002784 <sleep_until+0xac>)
10002728:	4632      	mov	r2, r6
1000272a:	9300      	str	r3, [sp, #0]
1000272c:	4816      	ldr	r0, [pc, #88]	@ (10002788 <sleep_until+0xb0>)
1000272e:	462b      	mov	r3, r5
10002730:	9101      	str	r1, [sp, #4]
10002732:	f7ff ff2d 	bl	10002590 <alarm_pool_add_alarm_at_force_in_context>
10002736:	2800      	cmp	r0, #0
10002738:	dbe6      	blt.n	10002708 <sleep_until+0x30>
1000273a:	f04f 0c00 	mov.w	ip, #0
1000273e:	4813      	ldr	r0, [pc, #76]	@ (1000278c <sleep_until+0xb4>)
10002740:	4a13      	ldr	r2, [pc, #76]	@ (10002790 <sleep_until+0xb8>)
10002742:	6a43      	ldr	r3, [r0, #36]	@ 0x24
10002744:	429d      	cmp	r5, r3
10002746:	d804      	bhi.n	10002752 <sleep_until+0x7a>
10002748:	6a81      	ldr	r1, [r0, #40]	@ 0x28
1000274a:	42b1      	cmp	r1, r6
1000274c:	d2dc      	bcs.n	10002708 <sleep_until+0x30>
1000274e:	429d      	cmp	r5, r3
10002750:	d1da      	bne.n	10002708 <sleep_until+0x30>
10002752:	6813      	ldr	r3, [r2, #0]
10002754:	f3ef 8110 	mrs	r1, PRIMASK
10002758:	b672      	cpsid	i
1000275a:	e8d3 8fcf 	ldaexb	r8, [r3]
1000275e:	f05f 0e01 	movs.w	lr, #1
10002762:	f1b8 0f00 	cmp.w	r8, #0
10002766:	d1f8      	bne.n	1000275a <sleep_until+0x82>
10002768:	e8c3 ef48 	strexb	r8, lr, [r3]
1000276c:	f1b8 0f00 	cmp.w	r8, #0
10002770:	d1f3      	bne.n	1000275a <sleep_until+0x82>
10002772:	f3bf 8f5f 	dmb	sy
10002776:	6813      	ldr	r3, [r2, #0]
10002778:	e8c3 cf8f 	stlb	ip, [r3]
1000277c:	f381 8810 	msr	PRIMASK, r1
10002780:	bf20      	wfe
10002782:	e7de      	b.n	10002742 <sleep_until+0x6a>
10002784:	10002175 	.word	0x10002175
10002788:	20001624 	.word	0x20001624
1000278c:	400b0000 	.word	0x400b0000
10002790:	20042994 	.word	0x20042994

10002794 <sleep_us>:
10002794:	b538      	push	{r3, r4, r5, lr}
10002796:	4604      	mov	r4, r0
10002798:	460d      	mov	r5, r1
1000279a:	f000 f89b 	bl	100028d4 <time_us_64>
1000279e:	f04f 32ff 	mov.w	r2, #4294967295
100027a2:	f06f 4300 	mvn.w	r3, #2147483648	@ 0x80000000
100027a6:	1820      	adds	r0, r4, r0
100027a8:	eb45 0101 	adc.w	r1, r5, r1
100027ac:	4282      	cmp	r2, r0
100027ae:	eb73 0401 	sbcs.w	r4, r3, r1
100027b2:	bf38      	it	cc
100027b4:	4619      	movcc	r1, r3
100027b6:	e8bd 4038 	ldmia.w	sp!, {r3, r4, r5, lr}
100027ba:	bf38      	it	cc
100027bc:	4610      	movcc	r0, r2
100027be:	f7ff bf8b 	b.w	100026d8 <sleep_until>
100027c2:	bf00      	nop

100027c4 <sleep_ms>:
100027c4:	b510      	push	{r4, lr}
100027c6:	4604      	mov	r4, r0
100027c8:	f000 f884 	bl	100028d4 <time_us_64>
100027cc:	f44f 737a 	mov.w	r3, #1000	@ 0x3e8
100027d0:	f04f 3cff 	mov.w	ip, #4294967295
100027d4:	f06f 4200 	mvn.w	r2, #2147483648	@ 0x80000000
100027d8:	fbe4 0103 	umlal	r0, r1, r4, r3
100027dc:	e8bd 4010 	ldmia.w	sp!, {r4, lr}
100027e0:	4584      	cmp	ip, r0
100027e2:	eb72 0301 	sbcs.w	r3, r2, r1
100027e6:	bf3c      	itt	cc
100027e8:	4660      	movcc	r0, ip
100027ea:	4611      	movcc	r1, r2
100027ec:	f7ff bf74 	b.w	100026d8 <sleep_until>

100027f0 <best_effort_wfe_or_timeout>:
100027f0:	b5f0      	push	{r4, r5, r6, r7, lr}
100027f2:	4606      	mov	r6, r0
100027f4:	460d      	mov	r5, r1
100027f6:	b083      	sub	sp, #12
100027f8:	f3ef 8405 	mrs	r4, IPSR
100027fc:	b2e4      	uxtb	r4, r4
100027fe:	2c00      	cmp	r4, #0
10002800:	d135      	bne.n	1000286e <best_effort_wfe_or_timeout+0x7e>
10002802:	4f24      	ldr	r7, [pc, #144]	@ (10002894 <best_effort_wfe_or_timeout+0xa4>)
10002804:	783a      	ldrb	r2, [r7, #0]
10002806:	68f9      	ldr	r1, [r7, #12]
10002808:	3204      	adds	r2, #4
1000280a:	6a8b      	ldr	r3, [r1, #40]	@ 0x28
1000280c:	f851 2022 	ldr.w	r2, [r1, r2, lsl #2]
10002810:	1ad2      	subs	r2, r2, r3
10002812:	1ac3      	subs	r3, r0, r3
10002814:	4293      	cmp	r3, r2
10002816:	d307      	bcc.n	10002828 <best_effort_wfe_or_timeout+0x38>
10002818:	bf20      	wfe
1000281a:	4b1f      	ldr	r3, [pc, #124]	@ (10002898 <best_effort_wfe_or_timeout+0xa8>)
1000281c:	6a58      	ldr	r0, [r3, #36]	@ 0x24
1000281e:	42a8      	cmp	r0, r5
10002820:	d21f      	bcs.n	10002862 <best_effort_wfe_or_timeout+0x72>
10002822:	2000      	movs	r0, #0
10002824:	b003      	add	sp, #12
10002826:	bdf0      	pop	{r4, r5, r6, r7, pc}
10002828:	f000 f854 	bl	100028d4 <time_us_64>
1000282c:	4286      	cmp	r6, r0
1000282e:	eb65 0101 	sbc.w	r1, r5, r1
10002832:	2900      	cmp	r1, #0
10002834:	db11      	blt.n	1000285a <best_effort_wfe_or_timeout+0x6a>
10002836:	4b19      	ldr	r3, [pc, #100]	@ (1000289c <best_effort_wfe_or_timeout+0xac>)
10002838:	4638      	mov	r0, r7
1000283a:	e9cd 3400 	strd	r3, r4, [sp]
1000283e:	4632      	mov	r2, r6
10002840:	462b      	mov	r3, r5
10002842:	f7ff fea5 	bl	10002590 <alarm_pool_add_alarm_at_force_in_context>
10002846:	1e01      	subs	r1, r0, #0
10002848:	dd07      	ble.n	1000285a <best_effort_wfe_or_timeout+0x6a>
1000284a:	4b13      	ldr	r3, [pc, #76]	@ (10002898 <best_effort_wfe_or_timeout+0xa8>)
1000284c:	6a5a      	ldr	r2, [r3, #36]	@ 0x24
1000284e:	42aa      	cmp	r2, r5
10002850:	d219      	bcs.n	10002886 <best_effort_wfe_or_timeout+0x96>
10002852:	bf20      	wfe
10002854:	480f      	ldr	r0, [pc, #60]	@ (10002894 <best_effort_wfe_or_timeout+0xa4>)
10002856:	f7ff feff 	bl	10002658 <alarm_pool_cancel_alarm>
1000285a:	4b0f      	ldr	r3, [pc, #60]	@ (10002898 <best_effort_wfe_or_timeout+0xa8>)
1000285c:	6a58      	ldr	r0, [r3, #36]	@ 0x24
1000285e:	42a8      	cmp	r0, r5
10002860:	d3df      	bcc.n	10002822 <best_effort_wfe_or_timeout+0x32>
10002862:	6a9b      	ldr	r3, [r3, #40]	@ 0x28
10002864:	429e      	cmp	r6, r3
10002866:	d809      	bhi.n	1000287c <best_effort_wfe_or_timeout+0x8c>
10002868:	2001      	movs	r0, #1
1000286a:	b003      	add	sp, #12
1000286c:	bdf0      	pop	{r4, r5, r6, r7, pc}
1000286e:	4b0a      	ldr	r3, [pc, #40]	@ (10002898 <best_effort_wfe_or_timeout+0xa8>)
10002870:	6a58      	ldr	r0, [r3, #36]	@ 0x24
10002872:	4288      	cmp	r0, r1
10002874:	d3d5      	bcc.n	10002822 <best_effort_wfe_or_timeout+0x32>
10002876:	6a9b      	ldr	r3, [r3, #40]	@ 0x28
10002878:	42b3      	cmp	r3, r6
1000287a:	d2f5      	bcs.n	10002868 <best_effort_wfe_or_timeout+0x78>
1000287c:	1b40      	subs	r0, r0, r5
1000287e:	bf18      	it	ne
10002880:	2001      	movne	r0, #1
10002882:	b003      	add	sp, #12
10002884:	bdf0      	pop	{r4, r5, r6, r7, pc}
10002886:	6a9b      	ldr	r3, [r3, #40]	@ 0x28
10002888:	429e      	cmp	r6, r3
1000288a:	d9e3      	bls.n	10002854 <best_effort_wfe_or_timeout+0x64>
1000288c:	42aa      	cmp	r2, r5
1000288e:	d1e1      	bne.n	10002854 <best_effort_wfe_or_timeout+0x64>
10002890:	e7df      	b.n	10002852 <best_effort_wfe_or_timeout+0x62>
10002892:	bf00      	nop
10002894:	20001624 	.word	0x20001624
10002898:	400b0000 	.word	0x400b0000
1000289c:	10002175 	.word	0x10002175

100028a0 <timer_hardware_alarm_claim>:
100028a0:	b410      	push	{r4}
100028a2:	4b05      	ldr	r3, [pc, #20]	@ (100028b8 <timer_hardware_alarm_claim+0x18>)
100028a4:	4c05      	ldr	r4, [pc, #20]	@ (100028bc <timer_hardware_alarm_claim+0x1c>)
100028a6:	4a06      	ldr	r2, [pc, #24]	@ (100028c0 <timer_hardware_alarm_claim+0x20>)
100028a8:	42a0      	cmp	r0, r4
100028aa:	bf14      	ite	ne
100028ac:	4618      	movne	r0, r3
100028ae:	1c58      	addeq	r0, r3, #1
100028b0:	f85d 4b04 	ldr.w	r4, [sp], #4
100028b4:	f7ff b9a4 	b.w	10001c00 <hw_claim_or_assert>
100028b8:	200424a0 	.word	0x200424a0
100028bc:	400b8000 	.word	0x400b8000
100028c0:	10007e84 	.word	0x10007e84

100028c4 <timer_time_us_64>:
100028c4:	4603      	mov	r3, r0
100028c6:	6a41      	ldr	r1, [r0, #36]	@ 0x24
100028c8:	460a      	mov	r2, r1
100028ca:	6a98      	ldr	r0, [r3, #40]	@ 0x28
100028cc:	6a59      	ldr	r1, [r3, #36]	@ 0x24
100028ce:	428a      	cmp	r2, r1
100028d0:	d1fa      	bne.n	100028c8 <timer_time_us_64+0x4>
100028d2:	4770      	bx	lr

100028d4 <time_us_64>:
100028d4:	4b03      	ldr	r3, [pc, #12]	@ (100028e4 <time_us_64+0x10>)
100028d6:	6a59      	ldr	r1, [r3, #36]	@ 0x24
100028d8:	460a      	mov	r2, r1
100028da:	6a98      	ldr	r0, [r3, #40]	@ 0x28
100028dc:	6a59      	ldr	r1, [r3, #36]	@ 0x24
100028de:	4291      	cmp	r1, r2
100028e0:	d1fa      	bne.n	100028d8 <time_us_64+0x4>
100028e2:	4770      	bx	lr
100028e4:	400b0000 	.word	0x400b0000

100028e8 <busy_wait_us>:
100028e8:	b410      	push	{r4}
100028ea:	4a17      	ldr	r2, [pc, #92]	@ (10002948 <busy_wait_us+0x60>)
100028ec:	6a53      	ldr	r3, [r2, #36]	@ 0x24
100028ee:	469c      	mov	ip, r3
100028f0:	6a94      	ldr	r4, [r2, #40]	@ 0x28
100028f2:	6a53      	ldr	r3, [r2, #36]	@ 0x24
100028f4:	4563      	cmp	r3, ip
100028f6:	d1fa      	bne.n	100028ee <busy_wait_us+0x6>
100028f8:	1900      	adds	r0, r0, r4
100028fa:	4159      	adcs	r1, r3
100028fc:	f04f 0200 	mov.w	r2, #0
10002900:	bf28      	it	cs
10002902:	2201      	movcs	r2, #1
10002904:	4603      	mov	r3, r0
10002906:	b1ca      	cbz	r2, 1000293c <busy_wait_us+0x54>
10002908:	4b0f      	ldr	r3, [pc, #60]	@ (10002948 <busy_wait_us+0x60>)
1000290a:	6a59      	ldr	r1, [r3, #36]	@ 0x24
1000290c:	1c4b      	adds	r3, r1, #1
1000290e:	bf08      	it	eq
10002910:	460b      	moveq	r3, r1
10002912:	d008      	beq.n	10002926 <busy_wait_us+0x3e>
10002914:	f04f 31ff 	mov.w	r1, #4294967295
10002918:	460b      	mov	r3, r1
1000291a:	480b      	ldr	r0, [pc, #44]	@ (10002948 <busy_wait_us+0x60>)
1000291c:	6a42      	ldr	r2, [r0, #36]	@ 0x24
1000291e:	428a      	cmp	r2, r1
10002920:	d3fc      	bcc.n	1000291c <busy_wait_us+0x34>
10002922:	428a      	cmp	r2, r1
10002924:	d107      	bne.n	10002936 <busy_wait_us+0x4e>
10002926:	4a08      	ldr	r2, [pc, #32]	@ (10002948 <busy_wait_us+0x60>)
10002928:	e002      	b.n	10002930 <busy_wait_us+0x48>
1000292a:	6a50      	ldr	r0, [r2, #36]	@ 0x24
1000292c:	4288      	cmp	r0, r1
1000292e:	d102      	bne.n	10002936 <busy_wait_us+0x4e>
10002930:	6a90      	ldr	r0, [r2, #40]	@ 0x28
10002932:	4298      	cmp	r0, r3
10002934:	d3f9      	bcc.n	1000292a <busy_wait_us+0x42>
10002936:	f85d 4b04 	ldr.w	r4, [sp], #4
1000293a:	4770      	bx	lr
1000293c:	4a02      	ldr	r2, [pc, #8]	@ (10002948 <busy_wait_us+0x60>)
1000293e:	6a52      	ldr	r2, [r2, #36]	@ 0x24
10002940:	4291      	cmp	r1, r2
10002942:	d8ea      	bhi.n	1000291a <busy_wait_us+0x32>
10002944:	e7ed      	b.n	10002922 <busy_wait_us+0x3a>
10002946:	bf00      	nop
10002948:	400b0000 	.word	0x400b0000

1000294c <busy_wait_until>:
1000294c:	4a07      	ldr	r2, [pc, #28]	@ (1000296c <busy_wait_until+0x20>)
1000294e:	6a53      	ldr	r3, [r2, #36]	@ 0x24
10002950:	4299      	cmp	r1, r3
10002952:	d8fc      	bhi.n	1000294e <busy_wait_until+0x2>
10002954:	4299      	cmp	r1, r3
10002956:	d107      	bne.n	10002968 <busy_wait_until+0x1c>
10002958:	4b04      	ldr	r3, [pc, #16]	@ (1000296c <busy_wait_until+0x20>)
1000295a:	e002      	b.n	10002962 <busy_wait_until+0x16>
1000295c:	6a5a      	ldr	r2, [r3, #36]	@ 0x24
1000295e:	4291      	cmp	r1, r2
10002960:	d102      	bne.n	10002968 <busy_wait_until+0x1c>
10002962:	6a9a      	ldr	r2, [r3, #40]	@ 0x28
10002964:	4282      	cmp	r2, r0
10002966:	d3f9      	bcc.n	1000295c <busy_wait_until+0x10>
10002968:	4770      	bx	lr
1000296a:	bf00      	nop
1000296c:	400b0000 	.word	0x400b0000

10002970 <uart_init>:
10002970:	b5f8      	push	{r3, r4, r5, r6, r7, lr}
10002972:	4605      	mov	r5, r0
10002974:	2006      	movs	r0, #6
10002976:	460e      	mov	r6, r1
10002978:	f000 f948 	bl	10002c0c <clock_get_hz>
1000297c:	2800      	cmp	r0, #0
1000297e:	d042      	beq.n	10002a06 <uart_init+0x96>
10002980:	4a35      	ldr	r2, [pc, #212]	@ (10002a58 <uart_init+0xe8>)
10002982:	4836      	ldr	r0, [pc, #216]	@ (10002a5c <uart_init+0xec>)
10002984:	4295      	cmp	r5, r2
10002986:	bf14      	ite	ne
10002988:	f04f 6280 	movne.w	r2, #67108864	@ 0x4000000
1000298c:	f04f 6200 	moveq.w	r2, #134217728	@ 0x8000000
10002990:	4b33      	ldr	r3, [pc, #204]	@ (10002a60 <uart_init+0xf0>)
10002992:	4934      	ldr	r1, [pc, #208]	@ (10002a64 <uart_init+0xf4>)
10002994:	6002      	str	r2, [r0, #0]
10002996:	601a      	str	r2, [r3, #0]
10002998:	688c      	ldr	r4, [r1, #8]
1000299a:	ea32 0404 	bics.w	r4, r2, r4
1000299e:	d1fb      	bne.n	10002998 <uart_init+0x28>
100029a0:	4b2d      	ldr	r3, [pc, #180]	@ (10002a58 <uart_init+0xe8>)
100029a2:	f44f 7180 	mov.w	r1, #256	@ 0x100
100029a6:	1aeb      	subs	r3, r5, r3
100029a8:	fab3 f383 	clz	r3, r3
100029ac:	4a2e      	ldr	r2, [pc, #184]	@ (10002a68 <uart_init+0xf8>)
100029ae:	095b      	lsrs	r3, r3, #5
100029b0:	2006      	movs	r0, #6
100029b2:	f822 1013 	strh.w	r1, [r2, r3, lsl #1]
100029b6:	f000 f929 	bl	10002c0c <clock_get_hz>
100029ba:	00c3      	lsls	r3, r0, #3
100029bc:	fbb3 f3f6 	udiv	r3, r3, r6
100029c0:	3301      	adds	r3, #1
100029c2:	09da      	lsrs	r2, r3, #7
100029c4:	d120      	bne.n	10002a08 <uart_init+0x98>
100029c6:	2640      	movs	r6, #64	@ 0x40
100029c8:	2101      	movs	r1, #1
100029ca:	6269      	str	r1, [r5, #36]	@ 0x24
100029cc:	62aa      	str	r2, [r5, #40]	@ 0x28
100029ce:	6b2f      	ldr	r7, [r5, #48]	@ 0x30
100029d0:	07fb      	lsls	r3, r7, #31
100029d2:	d422      	bmi.n	10002a1a <uart_init+0xaa>
100029d4:	462b      	mov	r3, r5
100029d6:	2200      	movs	r2, #0
100029d8:	f853 1f2c 	ldr.w	r1, [r3, #44]!
100029dc:	2006      	movs	r0, #6
100029de:	f503 5480 	add.w	r4, r3, #4096	@ 0x1000
100029e2:	6022      	str	r2, [r4, #0]
100029e4:	632f      	str	r7, [r5, #48]	@ 0x30
100029e6:	f000 f911 	bl	10002c0c <clock_get_hz>
100029ea:	f240 3101 	movw	r1, #769	@ 0x301
100029ee:	2203      	movs	r2, #3
100029f0:	0080      	lsls	r0, r0, #2
100029f2:	fbb0 f0f6 	udiv	r0, r0, r6
100029f6:	6aeb      	ldr	r3, [r5, #44]	@ 0x2c
100029f8:	f083 0370 	eor.w	r3, r3, #112	@ 0x70
100029fc:	f003 037e 	and.w	r3, r3, #126	@ 0x7e
10002a00:	6023      	str	r3, [r4, #0]
10002a02:	6329      	str	r1, [r5, #48]	@ 0x30
10002a04:	64aa      	str	r2, [r5, #72]	@ 0x48
10002a06:	bdf8      	pop	{r3, r4, r5, r6, r7, pc}
10002a08:	f64f 71fe 	movw	r1, #65534	@ 0xfffe
10002a0c:	428a      	cmp	r2, r1
10002a0e:	d91b      	bls.n	10002a48 <uart_init+0xd8>
10002a10:	4622      	mov	r2, r4
10002a12:	f64f 71ff 	movw	r1, #65535	@ 0xffff
10002a16:	4e15      	ldr	r6, [pc, #84]	@ (10002a6c <uart_init+0xfc>)
10002a18:	e7d7      	b.n	100029ca <uart_init+0x5a>
10002a1a:	f240 3201 	movw	r2, #769	@ 0x301
10002a1e:	f505 5340 	add.w	r3, r5, #12288	@ 0x3000
10002a22:	631a      	str	r2, [r3, #48]	@ 0x30
10002a24:	6a6b      	ldr	r3, [r5, #36]	@ 0x24
10002a26:	6aac      	ldr	r4, [r5, #40]	@ 0x28
10002a28:	2006      	movs	r0, #6
10002a2a:	eb04 1483 	add.w	r4, r4, r3, lsl #6
10002a2e:	f000 f8ed 	bl	10002c0c <clock_get_hz>
10002a32:	4b0f      	ldr	r3, [pc, #60]	@ (10002a70 <uart_init+0x100>)
10002a34:	02a4      	lsls	r4, r4, #10
10002a36:	fba3 2300 	umull	r2, r3, r3, r0
10002a3a:	0adb      	lsrs	r3, r3, #11
10002a3c:	2100      	movs	r1, #0
10002a3e:	fbb4 f0f3 	udiv	r0, r4, r3
10002a42:	f7ff ff51 	bl	100028e8 <busy_wait_us>
10002a46:	e7c5      	b.n	100029d4 <uart_init+0x64>
10002a48:	f3c3 0345 	ubfx	r3, r3, #1, #6
10002a4c:	4611      	mov	r1, r2
10002a4e:	eb03 1682 	add.w	r6, r3, r2, lsl #6
10002a52:	461a      	mov	r2, r3
10002a54:	e7b9      	b.n	100029ca <uart_init+0x5a>
10002a56:	bf00      	nop
10002a58:	40078000 	.word	0x40078000
10002a5c:	40022000 	.word	0x40022000
10002a60:	40023000 	.word	0x40023000
10002a64:	40020000 	.word	0x40020000
10002a68:	200429ac 	.word	0x200429ac
10002a6c:	003fffc0 	.word	0x003fffc0
10002a70:	8f2b7b75 	.word	0x8f2b7b75

10002a74 <uart_set_format>:
10002a74:	3a01      	subs	r2, #1
10002a76:	3905      	subs	r1, #5
10002a78:	00d2      	lsls	r2, r2, #3
10002a7a:	b5f8      	push	{r3, r4, r5, r6, r7, lr}
10002a7c:	4605      	mov	r5, r0
10002a7e:	ea42 1441 	orr.w	r4, r2, r1, lsl #5
10002a82:	b143      	cbz	r3, 10002a96 <uart_set_format+0x22>
10002a84:	f1a3 0301 	sub.w	r3, r3, #1
10002a88:	fab3 f383 	clz	r3, r3
10002a8c:	095b      	lsrs	r3, r3, #5
10002a8e:	ea44 0383 	orr.w	r3, r4, r3, lsl #2
10002a92:	f043 0402 	orr.w	r4, r3, #2
10002a96:	6b2e      	ldr	r6, [r5, #48]	@ 0x30
10002a98:	07f3      	lsls	r3, r6, #31
10002a9a:	d40a      	bmi.n	10002ab2 <uart_set_format+0x3e>
10002a9c:	462b      	mov	r3, r5
10002a9e:	f853 2f2c 	ldr.w	r2, [r3, #44]!
10002aa2:	4062      	eors	r2, r4
10002aa4:	f002 026e 	and.w	r2, r2, #110	@ 0x6e
10002aa8:	f503 5380 	add.w	r3, r3, #4096	@ 0x1000
10002aac:	601a      	str	r2, [r3, #0]
10002aae:	632e      	str	r6, [r5, #48]	@ 0x30
10002ab0:	bdf8      	pop	{r3, r4, r5, r6, r7, pc}
10002ab2:	f240 3201 	movw	r2, #769	@ 0x301
10002ab6:	f505 5340 	add.w	r3, r5, #12288	@ 0x3000
10002aba:	631a      	str	r2, [r3, #48]	@ 0x30
10002abc:	6a6b      	ldr	r3, [r5, #36]	@ 0x24
10002abe:	6aaf      	ldr	r7, [r5, #40]	@ 0x28
10002ac0:	2006      	movs	r0, #6
10002ac2:	eb07 1783 	add.w	r7, r7, r3, lsl #6
10002ac6:	f000 f8a1 	bl	10002c0c <clock_get_hz>
10002aca:	4b05      	ldr	r3, [pc, #20]	@ (10002ae0 <uart_set_format+0x6c>)
10002acc:	02bf      	lsls	r7, r7, #10
10002ace:	fba3 3000 	umull	r3, r0, r3, r0
10002ad2:	0ac0      	lsrs	r0, r0, #11
10002ad4:	2100      	movs	r1, #0
10002ad6:	fbb7 f0f0 	udiv	r0, r7, r0
10002ada:	f7ff ff05 	bl	100028e8 <busy_wait_us>
10002ade:	e7dd      	b.n	10002a9c <uart_set_format+0x28>
10002ae0:	8f2b7b75 	.word	0x8f2b7b75

10002ae4 <uart_set_fifo_enabled>:
10002ae4:	b5f8      	push	{r3, r4, r5, r6, r7, lr}
10002ae6:	6b06      	ldr	r6, [r0, #48]	@ 0x30
10002ae8:	4605      	mov	r5, r0
10002aea:	07f3      	lsls	r3, r6, #31
10002aec:	ea4f 1401 	mov.w	r4, r1, lsl #4
10002af0:	d40a      	bmi.n	10002b08 <uart_set_fifo_enabled+0x24>
10002af2:	462b      	mov	r3, r5
10002af4:	f853 2f2c 	ldr.w	r2, [r3, #44]!
10002af8:	4054      	eors	r4, r2
10002afa:	f004 0410 	and.w	r4, r4, #16
10002afe:	f503 5380 	add.w	r3, r3, #4096	@ 0x1000
10002b02:	601c      	str	r4, [r3, #0]
10002b04:	632e      	str	r6, [r5, #48]	@ 0x30
10002b06:	bdf8      	pop	{r3, r4, r5, r6, r7, pc}
10002b08:	f240 3201 	movw	r2, #769	@ 0x301
10002b0c:	f500 5340 	add.w	r3, r0, #12288	@ 0x3000
10002b10:	631a      	str	r2, [r3, #48]	@ 0x30
10002b12:	6a6b      	ldr	r3, [r5, #36]	@ 0x24
10002b14:	6aaf      	ldr	r7, [r5, #40]	@ 0x28
10002b16:	2006      	movs	r0, #6
10002b18:	eb07 1783 	add.w	r7, r7, r3, lsl #6
10002b1c:	f000 f876 	bl	10002c0c <clock_get_hz>
10002b20:	4b05      	ldr	r3, [pc, #20]	@ (10002b38 <uart_set_fifo_enabled+0x54>)
10002b22:	02bf      	lsls	r7, r7, #10
10002b24:	fba3 3000 	umull	r3, r0, r3, r0
10002b28:	0ac0      	lsrs	r0, r0, #11
10002b2a:	2100      	movs	r1, #0
10002b2c:	fbb7 f0f0 	udiv	r0, r7, r0
10002b30:	f7ff feda 	bl	100028e8 <busy_wait_us>
10002b34:	e7dd      	b.n	10002af2 <uart_set_fifo_enabled+0xe>
10002b36:	bf00      	nop
10002b38:	8f2b7b75 	.word	0x8f2b7b75

10002b3c <clock_configure_undivided>:
10002b3c:	eb00 0c40 	add.w	ip, r0, r0, lsl #1
10002b40:	ea4f 0c8c 	mov.w	ip, ip, lsl #2
10002b44:	f10c 4c80 	add.w	ip, ip, #1073741824	@ 0x40000000
10002b48:	f50c 3c80 	add.w	ip, ip, #65536	@ 0x10000
10002b4c:	b5f0      	push	{r4, r5, r6, r7, lr}
10002b4e:	4616      	mov	r6, r2
10002b50:	f8dc 2004 	ldr.w	r2, [ip, #4]
10002b54:	1f05      	subs	r5, r0, #4
10002b56:	f5b2 3f80 	cmp.w	r2, #65536	@ 0x10000
10002b5a:	bf38      	it	cc
10002b5c:	f44f 3280 	movcc.w	r2, #65536	@ 0x10000
10002b60:	b2ed      	uxtb	r5, r5
10002b62:	bf38      	it	cc
10002b64:	f8cc 2004 	strcc.w	r2, [ip, #4]
10002b68:	2d01      	cmp	r5, #1
10002b6a:	d92a      	bls.n	10002bc2 <clock_configure_undivided+0x86>
10002b6c:	f44f 6700 	mov.w	r7, #2048	@ 0x800
10002b70:	4c25      	ldr	r4, [pc, #148]	@ (10002c08 <clock_configure_undivided+0xcc>)
10002b72:	f50c 5240 	add.w	r2, ip, #12288	@ 0x3000
10002b76:	6017      	str	r7, [r2, #0]
10002b78:	f854 2020 	ldr.w	r2, [r4, r0, lsl #2]
10002b7c:	b9b2      	cbnz	r2, 10002bac <clock_configure_undivided+0x70>
10002b7e:	f8dc 2000 	ldr.w	r2, [ip]
10002b82:	2d01      	cmp	r5, #1
10002b84:	ea82 1246 	eor.w	r2, r2, r6, lsl #5
10002b88:	f002 02e0 	and.w	r2, r2, #224	@ 0xe0
10002b8c:	f50c 5680 	add.w	r6, ip, #4096	@ 0x1000
10002b90:	6032      	str	r2, [r6, #0]
10002b92:	d92a      	bls.n	10002bea <clock_configure_undivided+0xae>
10002b94:	f44f 6100 	mov.w	r1, #2048	@ 0x800
10002b98:	f844 3020 	str.w	r3, [r4, r0, lsl #2]
10002b9c:	f44f 3380 	mov.w	r3, #65536	@ 0x10000
10002ba0:	f50c 5200 	add.w	r2, ip, #8192	@ 0x2000
10002ba4:	6011      	str	r1, [r2, #0]
10002ba6:	f8cc 3004 	str.w	r3, [ip, #4]
10002baa:	bdf0      	pop	{r4, r5, r6, r7, pc}
10002bac:	6967      	ldr	r7, [r4, #20]
10002bae:	fbb7 fef2 	udiv	lr, r7, r2
10002bb2:	f10e 0e01 	add.w	lr, lr, #1
10002bb6:	eb0e 0e4e 	add.w	lr, lr, lr, lsl #1
10002bba:	f1be 0e03 	subs.w	lr, lr, #3
10002bbe:	d2fc      	bcs.n	10002bba <clock_configure_undivided+0x7e>
10002bc0:	e7dd      	b.n	10002b7e <clock_configure_undivided+0x42>
10002bc2:	2901      	cmp	r1, #1
10002bc4:	d1d2      	bne.n	10002b6c <clock_configure_undivided+0x30>
10002bc6:	2403      	movs	r4, #3
10002bc8:	f50c 5240 	add.w	r2, ip, #12288	@ 0x3000
10002bcc:	6014      	str	r4, [r2, #0]
10002bce:	f8dc 2008 	ldr.w	r2, [ip, #8]
10002bd2:	07d2      	lsls	r2, r2, #31
10002bd4:	d5fb      	bpl.n	10002bce <clock_configure_undivided+0x92>
10002bd6:	f8dc 2000 	ldr.w	r2, [ip]
10002bda:	4c0b      	ldr	r4, [pc, #44]	@ (10002c08 <clock_configure_undivided+0xcc>)
10002bdc:	ea82 1246 	eor.w	r2, r2, r6, lsl #5
10002be0:	f002 02e0 	and.w	r2, r2, #224	@ 0xe0
10002be4:	f50c 5680 	add.w	r6, ip, #4096	@ 0x1000
10002be8:	6032      	str	r2, [r6, #0]
10002bea:	2201      	movs	r2, #1
10002bec:	f8dc 5000 	ldr.w	r5, [ip]
10002bf0:	404d      	eors	r5, r1
10002bf2:	f005 0503 	and.w	r5, r5, #3
10002bf6:	6035      	str	r5, [r6, #0]
10002bf8:	fa02 f101 	lsl.w	r1, r2, r1
10002bfc:	f8dc 2008 	ldr.w	r2, [ip, #8]
10002c00:	420a      	tst	r2, r1
10002c02:	d0fb      	beq.n	10002bfc <clock_configure_undivided+0xc0>
10002c04:	e7c6      	b.n	10002b94 <clock_configure_undivided+0x58>
10002c06:	bf00      	nop
10002c08:	200424a4 	.word	0x200424a4

10002c0c <clock_get_hz>:
10002c0c:	4b01      	ldr	r3, [pc, #4]	@ (10002c14 <clock_get_hz+0x8>)
10002c0e:	f853 0020 	ldr.w	r0, [r3, r0, lsl #2]
10002c12:	4770      	bx	lr
10002c14:	200424a4 	.word	0x200424a4

10002c18 <set_sys_clock_pll>:
10002c18:	4b58      	ldr	r3, [pc, #352]	@ (10002d7c <set_sys_clock_pll+0x164>)
10002c1a:	e92d 43f0 	stmdb	sp!, {r4, r5, r6, r7, r8, r9, lr}
10002c1e:	6c1c      	ldr	r4, [r3, #64]	@ 0x40
10002c20:	4617      	mov	r7, r2
10002c22:	f5b4 3f80 	cmp.w	r4, #65536	@ 0x10000
10002c26:	bf38      	it	cc
10002c28:	f44f 3280 	movcc.w	r2, #65536	@ 0x10000
10002c2c:	460e      	mov	r6, r1
10002c2e:	f04f 0103 	mov.w	r1, #3
10002c32:	4680      	mov	r8, r0
10002c34:	b083      	sub	sp, #12
10002c36:	bf38      	it	cc
10002c38:	641a      	strcc	r2, [r3, #64]	@ 0x40
10002c3a:	4a51      	ldr	r2, [pc, #324]	@ (10002d80 <set_sys_clock_pll+0x168>)
10002c3c:	4b4f      	ldr	r3, [pc, #316]	@ (10002d7c <set_sys_clock_pll+0x164>)
10002c3e:	63d1      	str	r1, [r2, #60]	@ 0x3c
10002c40:	6c5c      	ldr	r4, [r3, #68]	@ 0x44
10002c42:	07e5      	lsls	r5, r4, #31
10002c44:	d5fc      	bpl.n	10002c40 <set_sys_clock_pll+0x28>
10002c46:	6bda      	ldr	r2, [r3, #60]	@ 0x3c
10002c48:	494e      	ldr	r1, [pc, #312]	@ (10002d84 <set_sys_clock_pll+0x16c>)
10002c4a:	f082 0220 	eor.w	r2, r2, #32
10002c4e:	f002 02e0 	and.w	r2, r2, #224	@ 0xe0
10002c52:	63ca      	str	r2, [r1, #60]	@ 0x3c
10002c54:	6bdb      	ldr	r3, [r3, #60]	@ 0x3c
10002c56:	4d49      	ldr	r5, [pc, #292]	@ (10002d7c <set_sys_clock_pll+0x164>)
10002c58:	f083 0301 	eor.w	r3, r3, #1
10002c5c:	f003 0303 	and.w	r3, r3, #3
10002c60:	63cb      	str	r3, [r1, #60]	@ 0x3c
10002c62:	6c6c      	ldr	r4, [r5, #68]	@ 0x44
10002c64:	07a4      	lsls	r4, r4, #30
10002c66:	d5fc      	bpl.n	10002c62 <set_sys_clock_pll+0x4a>
10002c68:	f44f 6200 	mov.w	r2, #2048	@ 0x800
10002c6c:	f44f 3980 	mov.w	r9, #65536	@ 0x10000
10002c70:	4b45      	ldr	r3, [pc, #276]	@ (10002d88 <set_sys_clock_pll+0x170>)
10002c72:	4c46      	ldr	r4, [pc, #280]	@ (10002d8c <set_sys_clock_pll+0x174>)
10002c74:	63da      	str	r2, [r3, #60]	@ 0x3c
10002c76:	4b46      	ldr	r3, [pc, #280]	@ (10002d90 <set_sys_clock_pll+0x178>)
10002c78:	4642      	mov	r2, r8
10002c7a:	6163      	str	r3, [r4, #20]
10002c7c:	2101      	movs	r1, #1
10002c7e:	4633      	mov	r3, r6
10002c80:	f8c5 9040 	str.w	r9, [r5, #64]	@ 0x40
10002c84:	4843      	ldr	r0, [pc, #268]	@ (10002d94 <set_sys_clock_pll+0x17c>)
10002c86:	9700      	str	r7, [sp, #0]
10002c88:	f000 f956 	bl	10002f38 <pll_init>
10002c8c:	f44f 6100 	mov.w	r1, #2048	@ 0x800
10002c90:	6b6b      	ldr	r3, [r5, #52]	@ 0x34
10002c92:	fb07 f606 	mul.w	r6, r7, r6
10002c96:	454b      	cmp	r3, r9
10002c98:	bf38      	it	cc
10002c9a:	f8c5 9034 	strcc.w	r9, [r5, #52]	@ 0x34
10002c9e:	4b38      	ldr	r3, [pc, #224]	@ (10002d80 <set_sys_clock_pll+0x168>)
10002ca0:	6922      	ldr	r2, [r4, #16]
10002ca2:	fbb8 f6f6 	udiv	r6, r8, r6
10002ca6:	6319      	str	r1, [r3, #48]	@ 0x30
10002ca8:	b13a      	cbz	r2, 10002cba <set_sys_clock_pll+0xa2>
10002caa:	6963      	ldr	r3, [r4, #20]
10002cac:	fbb3 f3f2 	udiv	r3, r3, r2
10002cb0:	3301      	adds	r3, #1
10002cb2:	eb03 0343 	add.w	r3, r3, r3, lsl #1
10002cb6:	3b03      	subs	r3, #3
10002cb8:	d2fd      	bcs.n	10002cb6 <set_sys_clock_pll+0x9e>
10002cba:	4b30      	ldr	r3, [pc, #192]	@ (10002d7c <set_sys_clock_pll+0x164>)
10002cbc:	4931      	ldr	r1, [pc, #196]	@ (10002d84 <set_sys_clock_pll+0x16c>)
10002cbe:	6b1a      	ldr	r2, [r3, #48]	@ 0x30
10002cc0:	f002 02e0 	and.w	r2, r2, #224	@ 0xe0
10002cc4:	630a      	str	r2, [r1, #48]	@ 0x30
10002cc6:	6b1a      	ldr	r2, [r3, #48]	@ 0x30
10002cc8:	f082 0202 	eor.w	r2, r2, #2
10002ccc:	f002 0203 	and.w	r2, r2, #3
10002cd0:	630a      	str	r2, [r1, #48]	@ 0x30
10002cd2:	6b99      	ldr	r1, [r3, #56]	@ 0x38
10002cd4:	0748      	lsls	r0, r1, #29
10002cd6:	d5fc      	bpl.n	10002cd2 <set_sys_clock_pll+0xba>
10002cd8:	f44f 6500 	mov.w	r5, #2048	@ 0x800
10002cdc:	f44f 3280 	mov.w	r2, #65536	@ 0x10000
10002ce0:	4929      	ldr	r1, [pc, #164]	@ (10002d88 <set_sys_clock_pll+0x170>)
10002ce2:	630d      	str	r5, [r1, #48]	@ 0x30
10002ce4:	492c      	ldr	r1, [pc, #176]	@ (10002d98 <set_sys_clock_pll+0x180>)
10002ce6:	635a      	str	r2, [r3, #52]	@ 0x34
10002ce8:	6121      	str	r1, [r4, #16]
10002cea:	6c19      	ldr	r1, [r3, #64]	@ 0x40
10002cec:	4291      	cmp	r1, r2
10002cee:	f04f 0103 	mov.w	r1, #3
10002cf2:	bf38      	it	cc
10002cf4:	641a      	strcc	r2, [r3, #64]	@ 0x40
10002cf6:	4b22      	ldr	r3, [pc, #136]	@ (10002d80 <set_sys_clock_pll+0x168>)
10002cf8:	4a20      	ldr	r2, [pc, #128]	@ (10002d7c <set_sys_clock_pll+0x164>)
10002cfa:	63d9      	str	r1, [r3, #60]	@ 0x3c
10002cfc:	6c53      	ldr	r3, [r2, #68]	@ 0x44
10002cfe:	07d9      	lsls	r1, r3, #31
10002d00:	d5fc      	bpl.n	10002cfc <set_sys_clock_pll+0xe4>
10002d02:	6bd3      	ldr	r3, [r2, #60]	@ 0x3c
10002d04:	4d1f      	ldr	r5, [pc, #124]	@ (10002d84 <set_sys_clock_pll+0x16c>)
10002d06:	f003 03e0 	and.w	r3, r3, #224	@ 0xe0
10002d0a:	63eb      	str	r3, [r5, #60]	@ 0x3c
10002d0c:	6bd3      	ldr	r3, [r2, #60]	@ 0x3c
10002d0e:	491b      	ldr	r1, [pc, #108]	@ (10002d7c <set_sys_clock_pll+0x164>)
10002d10:	f083 0301 	eor.w	r3, r3, #1
10002d14:	f003 0303 	and.w	r3, r3, #3
10002d18:	63eb      	str	r3, [r5, #60]	@ 0x3c
10002d1a:	6c4b      	ldr	r3, [r1, #68]	@ 0x44
10002d1c:	079b      	lsls	r3, r3, #30
10002d1e:	d5fc      	bpl.n	10002d1a <set_sys_clock_pll+0x102>
10002d20:	f44f 3380 	mov.w	r3, #65536	@ 0x10000
10002d24:	f44f 6500 	mov.w	r5, #2048	@ 0x800
10002d28:	4a17      	ldr	r2, [pc, #92]	@ (10002d88 <set_sys_clock_pll+0x170>)
10002d2a:	6166      	str	r6, [r4, #20]
10002d2c:	63d5      	str	r5, [r2, #60]	@ 0x3c
10002d2e:	640b      	str	r3, [r1, #64]	@ 0x40
10002d30:	6cca      	ldr	r2, [r1, #76]	@ 0x4c
10002d32:	429a      	cmp	r2, r3
10002d34:	bf38      	it	cc
10002d36:	64cb      	strcc	r3, [r1, #76]	@ 0x4c
10002d38:	f44f 6100 	mov.w	r1, #2048	@ 0x800
10002d3c:	4b10      	ldr	r3, [pc, #64]	@ (10002d80 <set_sys_clock_pll+0x168>)
10002d3e:	69a2      	ldr	r2, [r4, #24]
10002d40:	6499      	str	r1, [r3, #72]	@ 0x48
10002d42:	b13a      	cbz	r2, 10002d54 <set_sys_clock_pll+0x13c>
10002d44:	6963      	ldr	r3, [r4, #20]
10002d46:	fbb3 f3f2 	udiv	r3, r3, r2
10002d4a:	3301      	adds	r3, #1
10002d4c:	eb03 0343 	add.w	r3, r3, r3, lsl #1
10002d50:	3b03      	subs	r3, #3
10002d52:	d2fd      	bcs.n	10002d50 <set_sys_clock_pll+0x138>
10002d54:	f44f 6000 	mov.w	r0, #2048	@ 0x800
10002d58:	f44f 3180 	mov.w	r1, #65536	@ 0x10000
10002d5c:	4a07      	ldr	r2, [pc, #28]	@ (10002d7c <set_sys_clock_pll+0x164>)
10002d5e:	4d09      	ldr	r5, [pc, #36]	@ (10002d84 <set_sys_clock_pll+0x16c>)
10002d60:	6c93      	ldr	r3, [r2, #72]	@ 0x48
10002d62:	f083 0340 	eor.w	r3, r3, #64	@ 0x40
10002d66:	f003 03e0 	and.w	r3, r3, #224	@ 0xe0
10002d6a:	64ab      	str	r3, [r5, #72]	@ 0x48
10002d6c:	4b06      	ldr	r3, [pc, #24]	@ (10002d88 <set_sys_clock_pll+0x170>)
10002d6e:	4d08      	ldr	r5, [pc, #32]	@ (10002d90 <set_sys_clock_pll+0x178>)
10002d70:	61a5      	str	r5, [r4, #24]
10002d72:	6498      	str	r0, [r3, #72]	@ 0x48
10002d74:	64d1      	str	r1, [r2, #76]	@ 0x4c
10002d76:	b003      	add	sp, #12
10002d78:	e8bd 83f0 	ldmia.w	sp!, {r4, r5, r6, r7, r8, r9, pc}
10002d7c:	40010000 	.word	0x40010000
10002d80:	40013000 	.word	0x40013000
10002d84:	40011000 	.word	0x40011000
10002d88:	40012000 	.word	0x40012000
10002d8c:	200424a4 	.word	0x200424a4
10002d90:	02dc6c00 	.word	0x02dc6c00
10002d94:	40050000 	.word	0x40050000
10002d98:	00b71b00 	.word	0x00b71b00

10002d9c <check_sys_clock_khz>:
10002d9c:	e92d 4ff0 	stmdb	sp!, {r4, r5, r6, r7, r8, r9, sl, fp, lr}
10002da0:	f44f 78a0 	mov.w	r8, #320	@ 0x140
10002da4:	4699      	mov	r9, r3
10002da6:	b085      	sub	sp, #20
10002da8:	e9cd 1202 	strd	r1, r2, [sp, #8]
10002dac:	4c5f      	ldr	r4, [pc, #380]	@ (10002f2c <check_sys_clock_khz+0x190>)
10002dae:	f8df a184 	ldr.w	sl, [pc, #388]	@ 10002f34 <check_sys_clock_khz+0x198>
10002db2:	4554      	cmp	r4, sl
10002db4:	d90a      	bls.n	10002dcc <check_sys_clock_khz+0x30>
10002db6:	f108 38ff 	add.w	r8, r8, #4294967295
10002dba:	f5a4 543b 	sub.w	r4, r4, #11968	@ 0x2ec0
10002dbe:	f1b8 0f0f 	cmp.w	r8, #15
10002dc2:	f1a4 0420 	sub.w	r4, r4, #32
10002dc6:	d1f4      	bne.n	10002db2 <check_sys_clock_khz+0x16>
10002dc8:	2000      	movs	r0, #0
10002dca:	e069      	b.n	10002ea0 <check_sys_clock_khz+0x104>
10002dcc:	2307      	movs	r3, #7
10002dce:	f504 2237 	add.w	r2, r4, #749568	@ 0xb7000
10002dd2:	9401      	str	r4, [sp, #4]
10002dd4:	fb03 f403 	mul.w	r4, r3, r3
10002dd8:	f502 72d8 	add.w	r2, r2, #432	@ 0x1b0
10002ddc:	fbb2 fef4 	udiv	lr, r2, r4
10002de0:	4570      	cmp	r0, lr
10002de2:	f04f 0c01 	mov.w	ip, #1
10002de6:	f04f 0702 	mov.w	r7, #2
10002dea:	f04f 0603 	mov.w	r6, #3
10002dee:	f04f 0504 	mov.w	r5, #4
10002df2:	f04f 0105 	mov.w	r1, #5
10002df6:	d03f      	beq.n	10002e78 <check_sys_clock_khz+0xdc>
10002df8:	f1b3 0e01 	subs.w	lr, r3, #1
10002dfc:	f000 8094 	beq.w	10002f28 <check_sys_clock_khz+0x18c>
10002e00:	fb0e f403 	mul.w	r4, lr, r3
10002e04:	fbb2 fbf4 	udiv	fp, r2, r4
10002e08:	4558      	cmp	r0, fp
10002e0a:	d04c      	beq.n	10002ea6 <check_sys_clock_khz+0x10a>
10002e0c:	b319      	cbz	r1, 10002e56 <check_sys_clock_khz+0xba>
10002e0e:	fb01 f403 	mul.w	r4, r1, r3
10002e12:	fbb2 fbf4 	udiv	fp, r2, r4
10002e16:	4558      	cmp	r0, fp
10002e18:	d04f      	beq.n	10002eba <check_sys_clock_khz+0x11e>
10002e1a:	b1e5      	cbz	r5, 10002e56 <check_sys_clock_khz+0xba>
10002e1c:	fb05 f403 	mul.w	r4, r5, r3
10002e20:	fbb2 fbf4 	udiv	fp, r2, r4
10002e24:	4558      	cmp	r0, fp
10002e26:	d053      	beq.n	10002ed0 <check_sys_clock_khz+0x134>
10002e28:	b1ae      	cbz	r6, 10002e56 <check_sys_clock_khz+0xba>
10002e2a:	fb06 f403 	mul.w	r4, r6, r3
10002e2e:	fbb2 fbf4 	udiv	fp, r2, r4
10002e32:	4558      	cmp	r0, fp
10002e34:	d057      	beq.n	10002ee6 <check_sys_clock_khz+0x14a>
10002e36:	b177      	cbz	r7, 10002e56 <check_sys_clock_khz+0xba>
10002e38:	fb07 f403 	mul.w	r4, r7, r3
10002e3c:	fbb2 fbf4 	udiv	fp, r2, r4
10002e40:	4558      	cmp	r0, fp
10002e42:	d05b      	beq.n	10002efc <check_sys_clock_khz+0x160>
10002e44:	f1bc 0f00 	cmp.w	ip, #0
10002e48:	d005      	beq.n	10002e56 <check_sys_clock_khz+0xba>
10002e4a:	fb0c f403 	mul.w	r4, ip, r3
10002e4e:	fbb2 fbf4 	udiv	fp, r2, r4
10002e52:	4583      	cmp	fp, r0
10002e54:	d05d      	beq.n	10002f12 <check_sys_clock_khz+0x176>
10002e56:	4673      	mov	r3, lr
10002e58:	fb03 f403 	mul.w	r4, r3, r3
10002e5c:	fbb2 fef4 	udiv	lr, r2, r4
10002e60:	4570      	cmp	r0, lr
10002e62:	f101 31ff 	add.w	r1, r1, #4294967295
10002e66:	f105 35ff 	add.w	r5, r5, #4294967295
10002e6a:	f106 36ff 	add.w	r6, r6, #4294967295
10002e6e:	f107 37ff 	add.w	r7, r7, #4294967295
10002e72:	f10c 3cff 	add.w	ip, ip, #4294967295
10002e76:	d1bf      	bne.n	10002df8 <check_sys_clock_khz+0x5c>
10002e78:	fb04 2410 	mls	r4, r4, r0, r2
10002e7c:	2c00      	cmp	r4, #0
10002e7e:	d1bb      	bne.n	10002df8 <check_sys_clock_khz+0x5c>
10002e80:	469e      	mov	lr, r3
10002e82:	464a      	mov	r2, r9
10002e84:	f8dd b008 	ldr.w	fp, [sp, #8]
10002e88:	f8dd 900c 	ldr.w	r9, [sp, #12]
10002e8c:	2001      	movs	r0, #1
10002e8e:	4928      	ldr	r1, [pc, #160]	@ (10002f30 <check_sys_clock_khz+0x194>)
10002e90:	fb01 f108 	mul.w	r1, r1, r8
10002e94:	f8cb 1000 	str.w	r1, [fp]
10002e98:	f8c9 3000 	str.w	r3, [r9]
10002e9c:	f8c2 e000 	str.w	lr, [r2]
10002ea0:	b005      	add	sp, #20
10002ea2:	e8bd 8ff0 	ldmia.w	sp!, {r4, r5, r6, r7, r8, r9, sl, fp, pc}
10002ea6:	fb04 2410 	mls	r4, r4, r0, r2
10002eaa:	2c00      	cmp	r4, #0
10002eac:	d1ae      	bne.n	10002e0c <check_sys_clock_khz+0x70>
10002eae:	464a      	mov	r2, r9
10002eb0:	f8dd b008 	ldr.w	fp, [sp, #8]
10002eb4:	f8dd 900c 	ldr.w	r9, [sp, #12]
10002eb8:	e7e8      	b.n	10002e8c <check_sys_clock_khz+0xf0>
10002eba:	fb04 2410 	mls	r4, r4, r0, r2
10002ebe:	2c00      	cmp	r4, #0
10002ec0:	d1ab      	bne.n	10002e1a <check_sys_clock_khz+0x7e>
10002ec2:	464a      	mov	r2, r9
10002ec4:	468e      	mov	lr, r1
10002ec6:	f8dd b008 	ldr.w	fp, [sp, #8]
10002eca:	f8dd 900c 	ldr.w	r9, [sp, #12]
10002ece:	e7dd      	b.n	10002e8c <check_sys_clock_khz+0xf0>
10002ed0:	fb04 2410 	mls	r4, r4, r0, r2
10002ed4:	2c00      	cmp	r4, #0
10002ed6:	d1a7      	bne.n	10002e28 <check_sys_clock_khz+0x8c>
10002ed8:	464a      	mov	r2, r9
10002eda:	46ae      	mov	lr, r5
10002edc:	f8dd b008 	ldr.w	fp, [sp, #8]
10002ee0:	f8dd 900c 	ldr.w	r9, [sp, #12]
10002ee4:	e7d2      	b.n	10002e8c <check_sys_clock_khz+0xf0>
10002ee6:	fb04 2410 	mls	r4, r4, r0, r2
10002eea:	2c00      	cmp	r4, #0
10002eec:	d1a3      	bne.n	10002e36 <check_sys_clock_khz+0x9a>
10002eee:	464a      	mov	r2, r9
10002ef0:	46b6      	mov	lr, r6
10002ef2:	f8dd b008 	ldr.w	fp, [sp, #8]
10002ef6:	f8dd 900c 	ldr.w	r9, [sp, #12]
10002efa:	e7c7      	b.n	10002e8c <check_sys_clock_khz+0xf0>
10002efc:	fb04 2410 	mls	r4, r4, r0, r2
10002f00:	2c00      	cmp	r4, #0
10002f02:	d19f      	bne.n	10002e44 <check_sys_clock_khz+0xa8>
10002f04:	464a      	mov	r2, r9
10002f06:	46be      	mov	lr, r7
10002f08:	f8dd b008 	ldr.w	fp, [sp, #8]
10002f0c:	f8dd 900c 	ldr.w	r9, [sp, #12]
10002f10:	e7bc      	b.n	10002e8c <check_sys_clock_khz+0xf0>
10002f12:	fb04 2410 	mls	r4, r4, r0, r2
10002f16:	2c00      	cmp	r4, #0
10002f18:	d19d      	bne.n	10002e56 <check_sys_clock_khz+0xba>
10002f1a:	464a      	mov	r2, r9
10002f1c:	46e6      	mov	lr, ip
10002f1e:	f8dd b008 	ldr.w	fp, [sp, #8]
10002f22:	f8dd 900c 	ldr.w	r9, [sp, #12]
10002f26:	e7b1      	b.n	10002e8c <check_sys_clock_khz+0xf0>
10002f28:	9c01      	ldr	r4, [sp, #4]
10002f2a:	e744      	b.n	10002db6 <check_sys_clock_khz+0x1a>
10002f2c:	002f2650 	.word	0x002f2650
10002f30:	00b71b00 	.word	0x00b71b00
10002f34:	000cf850 	.word	0x000cf850

10002f38 <pll_init>:
10002f38:	b470      	push	{r4, r5, r6}
10002f3a:	9d03      	ldr	r5, [sp, #12]
10002f3c:	6804      	ldr	r4, [r0, #0]
10002f3e:	032d      	lsls	r5, r5, #12
10002f40:	ea45 4503 	orr.w	r5, r5, r3, lsl #16
10002f44:	4b1b      	ldr	r3, [pc, #108]	@ (10002fb4 <pll_init+0x7c>)
10002f46:	2c00      	cmp	r4, #0
10002f48:	fbb3 f3f1 	udiv	r3, r3, r1
10002f4c:	fbb2 f6f3 	udiv	r6, r2, r3
10002f50:	db1f      	blt.n	10002f92 <pll_init+0x5a>
10002f52:	4a19      	ldr	r2, [pc, #100]	@ (10002fb8 <pll_init+0x80>)
10002f54:	4b19      	ldr	r3, [pc, #100]	@ (10002fbc <pll_init+0x84>)
10002f56:	4290      	cmp	r0, r2
10002f58:	bf14      	ite	ne
10002f5a:	f44f 4280 	movne.w	r2, #16384	@ 0x4000
10002f5e:	f44f 4200 	moveq.w	r2, #32768	@ 0x8000
10002f62:	4c17      	ldr	r4, [pc, #92]	@ (10002fc0 <pll_init+0x88>)
10002f64:	601a      	str	r2, [r3, #0]
10002f66:	f503 5380 	add.w	r3, r3, #4096	@ 0x1000
10002f6a:	601a      	str	r2, [r3, #0]
10002f6c:	68a3      	ldr	r3, [r4, #8]
10002f6e:	ea32 0303 	bics.w	r3, r2, r3
10002f72:	d1fb      	bne.n	10002f6c <pll_init+0x34>
10002f74:	2221      	movs	r2, #33	@ 0x21
10002f76:	f500 5340 	add.w	r3, r0, #12288	@ 0x3000
10002f7a:	3304      	adds	r3, #4
10002f7c:	6001      	str	r1, [r0, #0]
10002f7e:	6086      	str	r6, [r0, #8]
10002f80:	601a      	str	r2, [r3, #0]
10002f82:	6802      	ldr	r2, [r0, #0]
10002f84:	2a00      	cmp	r2, #0
10002f86:	dafc      	bge.n	10002f82 <pll_init+0x4a>
10002f88:	2208      	movs	r2, #8
10002f8a:	60c5      	str	r5, [r0, #12]
10002f8c:	601a      	str	r2, [r3, #0]
10002f8e:	bc70      	pop	{r4, r5, r6}
10002f90:	4770      	bx	lr
10002f92:	6803      	ldr	r3, [r0, #0]
10002f94:	f003 033f 	and.w	r3, r3, #63	@ 0x3f
10002f98:	428b      	cmp	r3, r1
10002f9a:	d1da      	bne.n	10002f52 <pll_init+0x1a>
10002f9c:	6883      	ldr	r3, [r0, #8]
10002f9e:	f3c3 030b 	ubfx	r3, r3, #0, #12
10002fa2:	42b3      	cmp	r3, r6
10002fa4:	d1d5      	bne.n	10002f52 <pll_init+0x1a>
10002fa6:	68c3      	ldr	r3, [r0, #12]
10002fa8:	f403 23ee 	and.w	r3, r3, #487424	@ 0x77000
10002fac:	42ab      	cmp	r3, r5
10002fae:	d1d0      	bne.n	10002f52 <pll_init+0x1a>
10002fb0:	e7ed      	b.n	10002f8e <pll_init+0x56>
10002fb2:	bf00      	nop
10002fb4:	00b71b00 	.word	0x00b71b00
10002fb8:	40058000 	.word	0x40058000
10002fbc:	40022000 	.word	0x40022000
10002fc0:	40020000 	.word	0x40020000

10002fc4 <vreg_set_voltage>:
10002fc4:	4b0a      	ldr	r3, [pc, #40]	@ (10002ff0 <vreg_set_voltage+0x2c>)
10002fc6:	490b      	ldr	r1, [pc, #44]	@ (10002ff4 <vreg_set_voltage+0x30>)
10002fc8:	4a0b      	ldr	r2, [pc, #44]	@ (10002ff8 <vreg_set_voltage+0x34>)
10002fca:	6059      	str	r1, [r3, #4]
10002fcc:	68d3      	ldr	r3, [r2, #12]
10002fce:	0419      	lsls	r1, r3, #16
10002fd0:	d4fc      	bmi.n	10002fcc <vreg_set_voltage+0x8>
10002fd2:	4b0a      	ldr	r3, [pc, #40]	@ (10002ffc <vreg_set_voltage+0x38>)
10002fd4:	68d2      	ldr	r2, [r2, #12]
10002fd6:	ea43 1300 	orr.w	r3, r3, r0, lsl #4
10002fda:	4909      	ldr	r1, [pc, #36]	@ (10003000 <vreg_set_voltage+0x3c>)
10002fdc:	4053      	eors	r3, r2
10002fde:	4809      	ldr	r0, [pc, #36]	@ (10003004 <vreg_set_voltage+0x40>)
10002fe0:	4019      	ands	r1, r3
10002fe2:	4a05      	ldr	r2, [pc, #20]	@ (10002ff8 <vreg_set_voltage+0x34>)
10002fe4:	60c1      	str	r1, [r0, #12]
10002fe6:	68d3      	ldr	r3, [r2, #12]
10002fe8:	041b      	lsls	r3, r3, #16
10002fea:	d4fc      	bmi.n	10002fe6 <vreg_set_voltage+0x22>
10002fec:	4770      	bx	lr
10002fee:	bf00      	nop
10002ff0:	40102000 	.word	0x40102000
10002ff4:	5afe2000 	.word	0x5afe2000
10002ff8:	40100000 	.word	0x40100000
10002ffc:	5afe0000 	.word	0x5afe0000
10003000:	5afe01f0 	.word	0x5afe01f0
10003004:	40101000 	.word	0x40101000

10003008 <tick_start>:
10003008:	2301      	movs	r3, #1
1000300a:	eb00 0040 	add.w	r0, r0, r0, lsl #1
1000300e:	0080      	lsls	r0, r0, #2
10003010:	f100 4080 	add.w	r0, r0, #1073741824	@ 0x40000000
10003014:	f500 1084 	add.w	r0, r0, #1081344	@ 0x108000
10003018:	6041      	str	r1, [r0, #4]
1000301a:	6003      	str	r3, [r0, #0]
1000301c:	4770      	bx	lr
1000301e:	bf00      	nop

10003020 <rom_reboot.constprop.0.isra.0>:
10003020:	2300      	movs	r3, #0
10003022:	b570      	push	{r4, r5, r6, lr}
10003024:	8adb      	ldrh	r3, [r3, #22]
10003026:	4604      	mov	r4, r0
10003028:	460d      	mov	r5, r1
1000302a:	2200      	movs	r2, #0
1000302c:	e842 f200 	tt	r2, r2
10003030:	0252      	lsls	r2, r2, #9
10003032:	bf54      	ite	pl
10003034:	2110      	movpl	r1, #16
10003036:	2104      	movmi	r1, #4
10003038:	f244 2052 	movw	r0, #16978	@ 0x4252
1000303c:	4798      	blx	r3
1000303e:	4686      	mov	lr, r0
10003040:	462b      	mov	r3, r5
10003042:	4622      	mov	r2, r4
10003044:	46f4      	mov	ip, lr
10003046:	e8bd 4070 	ldmia.w	sp!, {r4, r5, r6, lr}
1000304a:	210a      	movs	r1, #10
1000304c:	f44f 7081 	mov.w	r0, #258	@ 0x102
10003050:	4760      	bx	ip
10003052:	bf00      	nop

10003054 <rom_func_lookup>:
10003054:	2300      	movs	r3, #0
10003056:	8adb      	ldrh	r3, [r3, #22]
10003058:	2200      	movs	r2, #0
1000305a:	e842 f200 	tt	r2, r2
1000305e:	0252      	lsls	r2, r2, #9
10003060:	d401      	bmi.n	10003066 <rom_func_lookup+0x12>
10003062:	2110      	movs	r1, #16
10003064:	4718      	bx	r3
10003066:	2104      	movs	r1, #4
10003068:	4718      	bx	r3
1000306a:	bf00      	nop

1000306c <rom_data_lookup>:
1000306c:	2300      	movs	r3, #0
1000306e:	2140      	movs	r1, #64	@ 0x40
10003070:	8adb      	ldrh	r3, [r3, #22]
10003072:	4718      	bx	r3

10003074 <rom_reset_usb_boot>:
10003074:	b508      	push	{r3, lr}
10003076:	4603      	mov	r3, r0
10003078:	4608      	mov	r0, r1
1000307a:	b12b      	cbz	r3, 10003088 <rom_reset_usb_boot+0x14>
1000307c:	fa93 f3a3 	rbit	r3, r3
10003080:	fab3 f383 	clz	r3, r3
10003084:	f041 0020 	orr.w	r0, r1, #32
10003088:	4619      	mov	r1, r3
1000308a:	f7ff ffc9 	bl	10003020 <rom_reboot.constprop.0.isra.0>
1000308e:	bf00      	nop

10003090 <runtime_init_bootrom_locking_enable>:
10003090:	4a03      	ldr	r2, [pc, #12]	@ (100030a0 <runtime_init_bootrom_locking_enable+0x10>)
10003092:	f8d2 3828 	ldr.w	r3, [r2, #2088]	@ 0x828
10003096:	2b00      	cmp	r3, #0
10003098:	d0fb      	beq.n	10003092 <runtime_init_bootrom_locking_enable+0x2>
1000309a:	f3bf 8f5f 	dmb	sy
1000309e:	4770      	bx	lr
100030a0:	400e0000 	.word	0x400e0000

100030a4 <runtime_init_boot_locks_reset>:
100030a4:	2100      	movs	r1, #0
100030a6:	4b04      	ldr	r3, [pc, #16]	@ (100030b8 <runtime_init_boot_locks_reset+0x14>)
100030a8:	4a04      	ldr	r2, [pc, #16]	@ (100030bc <runtime_init_boot_locks_reset+0x18>)
100030aa:	f3bf 8f5f 	dmb	sy
100030ae:	f843 1b04 	str.w	r1, [r3], #4
100030b2:	4293      	cmp	r3, r2
100030b4:	d1f9      	bne.n	100030aa <runtime_init_boot_locks_reset+0x6>
100030b6:	4770      	bx	lr
100030b8:	400e080c 	.word	0x400e080c
100030bc:	400e082c 	.word	0x400e082c

100030c0 <xosc_init>:
100030c0:	b410      	push	{r4}
100030c2:	202f      	movs	r0, #47	@ 0x2f
100030c4:	f44f 642a 	mov.w	r4, #2720	@ 0xaa0
100030c8:	4a05      	ldr	r2, [pc, #20]	@ (100030e0 <xosc_init+0x20>)
100030ca:	4b06      	ldr	r3, [pc, #24]	@ (100030e4 <xosc_init+0x24>)
100030cc:	4906      	ldr	r1, [pc, #24]	@ (100030e8 <xosc_init+0x28>)
100030ce:	6014      	str	r4, [r2, #0]
100030d0:	60d0      	str	r0, [r2, #12]
100030d2:	6019      	str	r1, [r3, #0]
100030d4:	6853      	ldr	r3, [r2, #4]
100030d6:	2b00      	cmp	r3, #0
100030d8:	dafc      	bge.n	100030d4 <xosc_init+0x14>
100030da:	f85d 4b04 	ldr.w	r4, [sp], #4
100030de:	4770      	bx	lr
100030e0:	40048000 	.word	0x40048000
100030e4:	4004a000 	.word	0x4004a000
100030e8:	00fab000 	.word	0x00fab000

100030ec <first_per_core_initializer>:
100030ec:	4770      	bx	lr
100030ee:	bf00      	nop

100030f0 <hard_assertion_failure>:
100030f0:	b508      	push	{r3, lr}
100030f2:	4801      	ldr	r0, [pc, #4]	@ (100030f8 <hard_assertion_failure+0x8>)
100030f4:	f7fe fd50 	bl	10001b98 <panic>
100030f8:	10007ea8 	.word	0x10007ea8

100030fc <runtime_run_initializers>:
100030fc:	b538      	push	{r3, r4, r5, lr}
100030fe:	4c05      	ldr	r4, [pc, #20]	@ (10003114 <runtime_run_initializers+0x18>)
10003100:	4d05      	ldr	r5, [pc, #20]	@ (10003118 <runtime_run_initializers+0x1c>)
10003102:	42ac      	cmp	r4, r5
10003104:	d204      	bcs.n	10003110 <runtime_run_initializers+0x14>
10003106:	f854 3b04 	ldr.w	r3, [r4], #4
1000310a:	4798      	blx	r3
1000310c:	42ac      	cmp	r4, r5
1000310e:	d3fa      	bcc.n	10003106 <runtime_run_initializers+0xa>
10003110:	bd38      	pop	{r3, r4, r5, pc}
10003112:	bf00      	nop
10003114:	10007ce8 	.word	0x10007ce8
10003118:	10007d28 	.word	0x10007d28

1000311c <runtime_run_per_core_initializers>:
1000311c:	b538      	push	{r3, r4, r5, lr}
1000311e:	4c05      	ldr	r4, [pc, #20]	@ (10003134 <runtime_run_per_core_initializers+0x18>)
10003120:	4d05      	ldr	r5, [pc, #20]	@ (10003138 <runtime_run_per_core_initializers+0x1c>)
10003122:	42ac      	cmp	r4, r5
10003124:	d204      	bcs.n	10003130 <runtime_run_per_core_initializers+0x14>
10003126:	f854 3b04 	ldr.w	r3, [r4], #4
1000312a:	4798      	blx	r3
1000312c:	42ac      	cmp	r4, r5
1000312e:	d3fa      	bcc.n	10003126 <runtime_run_per_core_initializers+0xa>
10003130:	bd38      	pop	{r3, r4, r5, pc}
10003132:	bf00      	nop
10003134:	10007d14 	.word	0x10007d14
10003138:	10007d28 	.word	0x10007d28

1000313c <runtime_init_early_resets>:
1000313c:	b410      	push	{r4}
1000313e:	4807      	ldr	r0, [pc, #28]	@ (1000315c <runtime_init_early_resets+0x20>)
10003140:	4c07      	ldr	r4, [pc, #28]	@ (10003160 <runtime_init_early_resets+0x24>)
10003142:	4b08      	ldr	r3, [pc, #32]	@ (10003164 <runtime_init_early_resets+0x28>)
10003144:	4a08      	ldr	r2, [pc, #32]	@ (10003168 <runtime_init_early_resets+0x2c>)
10003146:	4909      	ldr	r1, [pc, #36]	@ (1000316c <runtime_init_early_resets+0x30>)
10003148:	6004      	str	r4, [r0, #0]
1000314a:	601a      	str	r2, [r3, #0]
1000314c:	688b      	ldr	r3, [r1, #8]
1000314e:	ea32 0303 	bics.w	r3, r2, r3
10003152:	d1fb      	bne.n	1000314c <runtime_init_early_resets+0x10>
10003154:	f85d 4b04 	ldr.w	r4, [sp], #4
10003158:	4770      	bx	lr
1000315a:	bf00      	nop
1000315c:	40022000 	.word	0x40022000
10003160:	efef3b7f 	.word	0xefef3b7f
10003164:	40023000 	.word	0x40023000
10003168:	03f3fff6 	.word	0x03f3fff6
1000316c:	40020000 	.word	0x40020000

10003170 <runtime_init_usb_power_down>:
10003170:	4b04      	ldr	r3, [pc, #16]	@ (10003184 <runtime_init_usb_power_down+0x14>)
10003172:	6cdb      	ldr	r3, [r3, #76]	@ 0x4c
10003174:	f5b3 4f00 	cmp.w	r3, #32768	@ 0x8000
10003178:	d103      	bne.n	10003182 <runtime_init_usb_power_down+0x12>
1000317a:	f44f 2280 	mov.w	r2, #262144	@ 0x40000
1000317e:	4b02      	ldr	r3, [pc, #8]	@ (10003188 <runtime_init_usb_power_down+0x18>)
10003180:	64da      	str	r2, [r3, #76]	@ 0x4c
10003182:	4770      	bx	lr
10003184:	50110000 	.word	0x50110000
10003188:	50112000 	.word	0x50112000

1000318c <runtime_init_per_core_enable_coprocessors>:
1000318c:	f04f 22e0 	mov.w	r2, #3758153728	@ 0xe000e000
10003190:	4b04      	ldr	r3, [pc, #16]	@ (100031a4 <runtime_init_per_core_enable_coprocessors+0x18>)
10003192:	f8d2 1d88 	ldr.w	r1, [r2, #3464]	@ 0xd88
10003196:	430b      	orrs	r3, r1
10003198:	f8c2 3d88 	str.w	r3, [r2, #3464]	@ 0xd88
1000319c:	ee10 0430 	dcp_rcmp r0
100031a0:	4770      	bx	lr
100031a2:	bf00      	nop
100031a4:	00300303 	.word	0x00300303

100031a8 <runtime_init_post_clock_resets>:
100031a8:	f06f 4160 	mvn.w	r1, #3758096384	@ 0xe0000000
100031ac:	4b04      	ldr	r3, [pc, #16]	@ (100031c0 <runtime_init_post_clock_resets+0x18>)
100031ae:	4a05      	ldr	r2, [pc, #20]	@ (100031c4 <runtime_init_post_clock_resets+0x1c>)
100031b0:	6019      	str	r1, [r3, #0]
100031b2:	6893      	ldr	r3, [r2, #8]
100031b4:	43db      	mvns	r3, r3
100031b6:	f033 4360 	bics.w	r3, r3, #3758096384	@ 0xe0000000
100031ba:	d1fa      	bne.n	100031b2 <runtime_init_post_clock_resets+0xa>
100031bc:	4770      	bx	lr
100031be:	bf00      	nop
100031c0:	40023000 	.word	0x40023000
100031c4:	40020000 	.word	0x40020000

100031c8 <runtime_init_bootrom_reset>:
100031c8:	b510      	push	{r4, lr}
100031ca:	f245 2053 	movw	r0, #21075	@ 0x5253
100031ce:	f7ff ff41 	bl	10003054 <rom_func_lookup>
100031d2:	e8bd 4010 	ldmia.w	sp!, {r4, lr}
100031d6:	4603      	mov	r3, r0
100031d8:	2004      	movs	r0, #4
100031da:	4718      	bx	r3

100031dc <runtime_init_per_core_bootrom_reset>:
100031dc:	b510      	push	{r4, lr}
100031de:	f245 2053 	movw	r0, #21075	@ 0x5253
100031e2:	f7ff ff37 	bl	10003054 <rom_func_lookup>
100031e6:	e8bd 4010 	ldmia.w	sp!, {r4, lr}
100031ea:	4603      	mov	r3, r0
100031ec:	2001      	movs	r0, #1
100031ee:	4718      	bx	r3

100031f0 <runtime_init_spin_locks_reset>:
100031f0:	f7fe bda4 	b.w	10001d3c <spin_locks_reset>

100031f4 <runtime_init_install_ram_vector_table>:
100031f4:	b510      	push	{r4, lr}
100031f6:	4b05      	ldr	r3, [pc, #20]	@ (1000320c <runtime_init_install_ram_vector_table+0x18>)
100031f8:	4c05      	ldr	r4, [pc, #20]	@ (10003210 <runtime_init_install_ram_vector_table+0x1c>)
100031fa:	f44f 7288 	mov.w	r2, #272	@ 0x110
100031fe:	4618      	mov	r0, r3
10003200:	68a1      	ldr	r1, [r4, #8]
10003202:	f004 fb3f 	bl	10007884 <memcpy>
10003206:	60a0      	str	r0, [r4, #8]
10003208:	bd10      	pop	{r4, pc}
1000320a:	bf00      	nop
1000320c:	20000000 	.word	0x20000000
10003210:	e000ed00 	.word	0xe000ed00

10003214 <runtime_init_clocks>:
10003214:	2300      	movs	r3, #0
10003216:	b570      	push	{r4, r5, r6, lr}
10003218:	4c2b      	ldr	r4, [pc, #172]	@ (100032c8 <runtime_init_clocks+0xb4>)
1000321a:	b082      	sub	sp, #8
1000321c:	f8c4 3084 	str.w	r3, [r4, #132]	@ 0x84
10003220:	f7ff ff4e 	bl	100030c0 <xosc_init>
10003224:	2201      	movs	r2, #1
10003226:	4b29      	ldr	r3, [pc, #164]	@ (100032cc <runtime_init_clocks+0xb8>)
10003228:	63da      	str	r2, [r3, #60]	@ 0x3c
1000322a:	6c63      	ldr	r3, [r4, #68]	@ 0x44
1000322c:	2b01      	cmp	r3, #1
1000322e:	d1fc      	bne.n	1000322a <runtime_init_clocks+0x16>
10003230:	2103      	movs	r1, #3
10003232:	4a26      	ldr	r2, [pc, #152]	@ (100032cc <runtime_init_clocks+0xb8>)
10003234:	4b24      	ldr	r3, [pc, #144]	@ (100032c8 <runtime_init_clocks+0xb4>)
10003236:	6311      	str	r1, [r2, #48]	@ 0x30
10003238:	6b9c      	ldr	r4, [r3, #56]	@ 0x38
1000323a:	2c01      	cmp	r4, #1
1000323c:	d1fc      	bne.n	10003238 <runtime_init_clocks+0x24>
1000323e:	2602      	movs	r6, #2
10003240:	2505      	movs	r5, #5
10003242:	4621      	mov	r1, r4
10003244:	2305      	movs	r3, #5
10003246:	4a22      	ldr	r2, [pc, #136]	@ (100032d0 <runtime_init_clocks+0xbc>)
10003248:	4822      	ldr	r0, [pc, #136]	@ (100032d4 <runtime_init_clocks+0xc0>)
1000324a:	9600      	str	r6, [sp, #0]
1000324c:	f7ff fe74 	bl	10002f38 <pll_init>
10003250:	4621      	mov	r1, r4
10003252:	462b      	mov	r3, r5
10003254:	4a20      	ldr	r2, [pc, #128]	@ (100032d8 <runtime_init_clocks+0xc4>)
10003256:	4821      	ldr	r0, [pc, #132]	@ (100032dc <runtime_init_clocks+0xc8>)
10003258:	9500      	str	r5, [sp, #0]
1000325a:	f7ff fe6d 	bl	10002f38 <pll_init>
1000325e:	2200      	movs	r2, #0
10003260:	2004      	movs	r0, #4
10003262:	4631      	mov	r1, r6
10003264:	4b1e      	ldr	r3, [pc, #120]	@ (100032e0 <runtime_init_clocks+0xcc>)
10003266:	f7ff fc69 	bl	10002b3c <clock_configure_undivided>
1000326a:	4621      	mov	r1, r4
1000326c:	4628      	mov	r0, r5
1000326e:	2200      	movs	r2, #0
10003270:	4b1c      	ldr	r3, [pc, #112]	@ (100032e4 <runtime_init_clocks+0xd0>)
10003272:	f7ff fc63 	bl	10002b3c <clock_configure_undivided>
10003276:	2200      	movs	r2, #0
10003278:	2008      	movs	r0, #8
1000327a:	4611      	mov	r1, r2
1000327c:	4b1a      	ldr	r3, [pc, #104]	@ (100032e8 <runtime_init_clocks+0xd4>)
1000327e:	f7ff fc5d 	bl	10002b3c <clock_configure_undivided>
10003282:	2200      	movs	r2, #0
10003284:	2009      	movs	r0, #9
10003286:	4611      	mov	r1, r2
10003288:	4b17      	ldr	r3, [pc, #92]	@ (100032e8 <runtime_init_clocks+0xd4>)
1000328a:	f7ff fc57 	bl	10002b3c <clock_configure_undivided>
1000328e:	2200      	movs	r2, #0
10003290:	2006      	movs	r0, #6
10003292:	4611      	mov	r1, r2
10003294:	4b13      	ldr	r3, [pc, #76]	@ (100032e4 <runtime_init_clocks+0xd0>)
10003296:	f7ff fc51 	bl	10002b3c <clock_configure_undivided>
1000329a:	2200      	movs	r2, #0
1000329c:	4b11      	ldr	r3, [pc, #68]	@ (100032e4 <runtime_init_clocks+0xd0>)
1000329e:	2007      	movs	r0, #7
100032a0:	4611      	mov	r1, r2
100032a2:	f7ff fc4b 	bl	10002b3c <clock_configure_undivided>
100032a6:	2004      	movs	r0, #4
100032a8:	f7ff fcb0 	bl	10002c0c <clock_get_hz>
100032ac:	2400      	movs	r4, #0
100032ae:	4b0f      	ldr	r3, [pc, #60]	@ (100032ec <runtime_init_clocks+0xd8>)
100032b0:	fba3 3500 	umull	r3, r5, r3, r0
100032b4:	0cad      	lsrs	r5, r5, #18
100032b6:	b2e0      	uxtb	r0, r4
100032b8:	4629      	mov	r1, r5
100032ba:	3401      	adds	r4, #1
100032bc:	f7ff fea4 	bl	10003008 <tick_start>
100032c0:	2c06      	cmp	r4, #6
100032c2:	d1f8      	bne.n	100032b6 <runtime_init_clocks+0xa2>
100032c4:	b002      	add	sp, #8
100032c6:	bd70      	pop	{r4, r5, r6, pc}
100032c8:	40010000 	.word	0x40010000
100032cc:	40013000 	.word	0x40013000
100032d0:	59682f00 	.word	0x59682f00
100032d4:	40050000 	.word	0x40050000
100032d8:	47868c00 	.word	0x47868c00
100032dc:	40058000 	.word	0x40058000
100032e0:	00b71b00 	.word	0x00b71b00
100032e4:	08f0d180 	.word	0x08f0d180
100032e8:	02dc6c00 	.word	0x02dc6c00
100032ec:	431bde83 	.word	0x431bde83

100032f0 <generic_save_state>:
100032f0:	b086      	sub	sp, #24
100032f2:	b403      	push	{r0, r1}
100032f4:	fc51 0408 	dcp_pxmd r0, r1
100032f8:	e9cd 0102 	strd	r0, r1, [sp, #8]
100032fc:	fc51 0409 	dcp_pymd r0, r1
10003300:	e9cd 0104 	strd	r0, r1, [sp, #16]
10003304:	ec51 040a 	dcp_refd r0, r1
10003308:	e9cd 0106 	strd	r0, r1, [sp, #24]
1000330c:	bc03      	pop	{r0, r1}
1000330e:	47f0      	blx	lr

10003310 <generic_restore_state>:
10003310:	e8bd 5000 	ldmia.w	sp!, {ip, lr}
10003314:	ec4e c400 	dcp_wxmd ip, lr
10003318:	e8bd 5000 	ldmia.w	sp!, {ip, lr}
1000331c:	ec4e c401 	dcp_wymd ip, lr
10003320:	e8bd 5000 	ldmia.w	sp!, {ip, lr}
10003324:	ec4e c402 	dcp_wefd ip, lr
10003328:	bd00      	pop	{pc}
1000332a:	0000      	movs	r0, r0
1000332c:	b500      	push	{lr}
1000332e:	f7ff ffdf 	bl	100032f0 <generic_save_state>
10003332:	e002      	b.n	1000333a <__wrap___aeabi_dadd+0x6>

10003334 <__wrap___aeabi_dadd>:
10003334:	fe10 f430 	dcp_pcmp APSR_nzcv
10003338:	d4f8      	bmi.n	1000332c <generic_restore_state+0x1c>
1000333a:	ec41 0410 	dcp_wxup r0, r1
1000333e:	ec43 2411 	dcp_wyup r2, r3
10003342:	ee00 0401 	dcp_add0
10003346:	ee10 0401 	dcp_add1
1000334a:	ee80 0420 	dcp_nrdd
1000334e:	ec51 0410 	dcp_rdda r0, r1
10003352:	4770      	bx	lr
10003354:	b500      	push	{lr}
10003356:	f7ff ffcb 	bl	100032f0 <generic_save_state>
1000335a:	e002      	b.n	10003362 <__wrap___aeabi_dsub+0x6>

1000335c <__wrap___aeabi_dsub>:
1000335c:	fe10 f430 	dcp_pcmp APSR_nzcv
10003360:	d4f8      	bmi.n	10003354 <__wrap___aeabi_dadd+0x20>
10003362:	ec41 0410 	dcp_wxup r0, r1
10003366:	ec43 2411 	dcp_wyup r2, r3
1000336a:	ee00 0401 	dcp_add0
1000336e:	ee10 0421 	dcp_sub1
10003372:	ee80 0420 	dcp_nrdd
10003376:	ec51 0430 	dcp_rdds r0, r1
1000337a:	4770      	bx	lr
1000337c:	b500      	push	{lr}
1000337e:	f7ff ffb7 	bl	100032f0 <generic_save_state>
10003382:	e002      	b.n	1000338a <__wrap___aeabi_dmul+0x6>

10003384 <__wrap___aeabi_dmul>:
10003384:	fe10 f430 	dcp_pcmp APSR_nzcv
10003388:	d4f8      	bmi.n	1000337c <__wrap___aeabi_dsub+0x20>
1000338a:	b510      	push	{r4, lr}
1000338c:	ec41 0410 	dcp_wxup r0, r1
10003390:	ec43 2411 	dcp_wyup r2, r3
10003394:	ec51 0404 	dcp_rxms r0, r1, #0x0
10003398:	ec53 2405 	dcp_ryms r2, r3, #0x0
1000339c:	fba0 4c02 	umull	r4, ip, r0, r2
100033a0:	f05f 0e00 	movs.w	lr, #0
100033a4:	fbe0 ce03 	umlal	ip, lr, r0, r3
100033a8:	fbe1 ce02 	umlal	ip, lr, r1, r2
100033ac:	ec4c 4420 	dcp_wxms r4, ip
100033b0:	2400      	movs	r4, #0
100033b2:	fbe1 e403 	umlal	lr, r4, r1, r3
100033b6:	ec44 e430 	dcp_wxmo lr, r4
100033ba:	ee80 0420 	dcp_nrdd
100033be:	ec51 0450 	dcp_rddm r0, r1
100033c2:	e8bd 4010 	ldmia.w	sp!, {r4, lr}
100033c6:	4770      	bx	lr
100033c8:	b500      	push	{lr}
100033ca:	f7ff ff91 	bl	100032f0 <generic_save_state>
100033ce:	e002      	b.n	100033d6 <__wrap___aeabi_ddiv+0x6>

100033d0 <__wrap___aeabi_ddiv>:
100033d0:	fe10 f430 	dcp_pcmp APSR_nzcv
100033d4:	d4f8      	bmi.n	100033c8 <__wrap___aeabi_dmul+0x44>
100033d6:	ec41 0410 	dcp_wxup r0, r1
100033da:	ec43 2411 	dcp_wyup r2, r3
100033de:	ec51 0421 	dcp_rymr r0, r1
100033e2:	fba0 1201 	umull	r1, r2, r0, r1
100033e6:	ea6f 0282 	mvn.w	r2, r2, lsl #2
100033ea:	fb52 0010 	smmlar	r0, r2, r0, r0
100033ee:	fb52 f212 	smmulr	r2, r2, r2
100033f2:	fb52 0010 	smmlar	r0, r2, r0, r0
100033f6:	eba0 7cd0 	sub.w	ip, r0, r0, lsr #31
100033fa:	ec53 2404 	dcp_rxms r2, r3, #0x0
100033fe:	fb5c f113 	smmulr	r1, ip, r3
10003402:	ec53 2415 	dcp_ryms r2, r3, #0x1
10003406:	fba1 2002 	umull	r2, r0, r1, r2
1000340a:	fb01 0003 	mla	r0, r1, r3, r0
1000340e:	ec53 2444 	dcp_rxms r2, r3, #0x4
10003412:	eba2 0000 	sub.w	r0, r2, r0
10003416:	fb50 f21c 	smmulr	r2, r0, ip
1000341a:	ea4f 1311 	mov.w	r3, r1, lsr #4
1000341e:	eb12 7001 	adds.w	r0, r2, r1, lsl #28
10003422:	eb43 71e2 	adc.w	r1, r3, r2, asr #31
10003426:	ea40 5051 	orr.w	r0, r0, r1, lsr #21
1000342a:	ea20 5091 	bic.w	r0, r0, r1, lsr #22
1000342e:	f020 0007 	bic.w	r0, r0, #7
10003432:	ec53 2475 	dcp_ryms r2, r3, #0x7
10003436:	fba0 3c02 	umull	r3, ip, r0, r2
1000343a:	ec53 2475 	dcp_ryms r2, r3, #0x7
1000343e:	fb00 cc03 	mla	ip, r0, r3, ip
10003442:	fb01 cc02 	mla	ip, r1, r2, ip
10003446:	ec53 2404 	dcp_rxms r2, r3, #0x0
1000344a:	ebac 4c82 	sub.w	ip, ip, r2, lsl #18
1000344e:	ea40 705c 	orr.w	r0, r0, ip, lsr #29
10003452:	f1a0 0001 	sub.w	r0, r0, #1
10003456:	ec41 0440 	dcp_wxdd r0, r1
1000345a:	ee80 0420 	dcp_nrdd
1000345e:	ec51 0470 	dcp_rddd r0, r1
10003462:	4770      	bx	lr
10003464:	b500      	push	{lr}
10003466:	f7ff ff43 	bl	100032f0 <generic_save_state>
1000346a:	e002      	b.n	10003472 <__wrap___aeabi_i2d+0x6>

1000346c <__wrap___aeabi_i2d>:
1000346c:	fe10 f430 	dcp_pcmp APSR_nzcv
10003470:	d4f8      	bmi.n	10003464 <__wrap___aeabi_ddiv+0x94>
10003472:	ec40 0470 	dcp_wxic r0, r0
10003476:	ee00 0401 	dcp_add0
1000347a:	ee10 0421 	dcp_sub1
1000347e:	ee80 0420 	dcp_nrdd
10003482:	ec51 0430 	dcp_rdds r0, r1
10003486:	4770      	bx	lr
10003488:	b500      	push	{lr}
1000348a:	f7ff ff31 	bl	100032f0 <generic_save_state>
1000348e:	e002      	b.n	10003496 <__wrap___aeabi_ui2d+0x6>

10003490 <__wrap___aeabi_ui2d>:
10003490:	fe10 f430 	dcp_pcmp APSR_nzcv
10003494:	d4f8      	bmi.n	10003488 <__wrap___aeabi_i2d+0x1c>
10003496:	ec40 0460 	dcp_wxuc r0, r0
1000349a:	ee00 0401 	dcp_add0
1000349e:	ee10 0421 	dcp_sub1
100034a2:	ee80 0420 	dcp_nrdd
100034a6:	ec51 0430 	dcp_rdds r0, r1
100034aa:	4770      	bx	lr
100034ac:	b500      	push	{lr}
100034ae:	f7ff ff1f 	bl	100032f0 <generic_save_state>
100034b2:	e002      	b.n	100034ba <__wrap___aeabi_d2iz+0x6>

100034b4 <__wrap___aeabi_d2iz>:
100034b4:	fe10 f430 	dcp_pcmp APSR_nzcv
100034b8:	d4f8      	bmi.n	100034ac <__wrap___aeabi_ui2d+0x1c>
100034ba:	ec41 0480 	dcp_wxdc r0, r1
100034be:	ee00 0401 	dcp_add0
100034c2:	ee10 0401 	dcp_add1
100034c6:	ee80 0440 	dcp_ntdc
100034ca:	ee10 0413 	dcp_rdic r0
100034ce:	4770      	bx	lr
100034d0:	b500      	push	{lr}
100034d2:	f7ff ff0d 	bl	100032f0 <generic_save_state>
100034d6:	e002      	b.n	100034de <__wrap___aeabi_d2uiz+0x6>

100034d8 <__wrap___aeabi_d2uiz>:
100034d8:	fe10 f430 	dcp_pcmp APSR_nzcv
100034dc:	d4f8      	bmi.n	100034d0 <__wrap___aeabi_d2iz+0x1c>
100034de:	ec41 0480 	dcp_wxdc r0, r1
100034e2:	ee00 0401 	dcp_add0
100034e6:	ee10 0401 	dcp_add1
100034ea:	ee80 0440 	dcp_ntdc
100034ee:	ee10 0433 	dcp_rduc r0
100034f2:	4770      	bx	lr
100034f4:	b500      	push	{lr}
100034f6:	f7ff fefb 	bl	100032f0 <generic_save_state>
100034fa:	e002      	b.n	10003502 <__wrap___aeabi_dcmpun+0x6>

100034fc <__wrap___aeabi_dcmpun>:
100034fc:	fe10 f430 	dcp_pcmp APSR_nzcv
10003500:	d4f8      	bmi.n	100034f4 <__wrap___aeabi_d2uiz+0x1c>
10003502:	ec41 0410 	dcp_wxup r0, r1
10003506:	ec43 2411 	dcp_wyup r2, r3
1000350a:	ee00 0401 	dcp_add0
1000350e:	ee10 0430 	dcp_rcmp r0
10003512:	f3c0 7000 	ubfx	r0, r0, #28, #1
10003516:	4770      	bx	lr
10003518:	b500      	push	{lr}
1000351a:	f7ff fee9 	bl	100032f0 <generic_save_state>
1000351e:	e002      	b.n	10003526 <__wrap___aeabi_dcmplt+0x6>

10003520 <__wrap___aeabi_dcmplt>:
10003520:	fe10 f430 	dcp_pcmp APSR_nzcv
10003524:	d4f8      	bmi.n	10003518 <__wrap___aeabi_dcmpun+0x1c>
10003526:	ec43 2410 	dcp_wxup r2, r3
1000352a:	ec41 0411 	dcp_wyup r0, r1
1000352e:	ee00 0401 	dcp_add0
10003532:	ee10 f430 	dcp_rcmp APSR_nzcv
10003536:	bf8c      	ite	hi
10003538:	2001      	movhi	r0, #1
1000353a:	2000      	movls	r0, #0
1000353c:	4770      	bx	lr
1000353e:	bf00      	nop
10003540:	b500      	push	{lr}
10003542:	f7ff fed5 	bl	100032f0 <generic_save_state>
10003546:	e002      	b.n	1000354e <__wrap___aeabi_dcmpge+0x6>

10003548 <__wrap___aeabi_dcmpge>:
10003548:	fe10 f430 	dcp_pcmp APSR_nzcv
1000354c:	d4f8      	bmi.n	10003540 <__wrap___aeabi_dcmplt+0x20>
1000354e:	ec41 0410 	dcp_wxup r0, r1
10003552:	ec43 2411 	dcp_wyup r2, r3
10003556:	ee00 0401 	dcp_add0
1000355a:	ee10 f430 	dcp_rcmp APSR_nzcv
1000355e:	bf2c      	ite	cs
10003560:	2001      	movcs	r0, #1
10003562:	2000      	movcc	r0, #0
10003564:	4770      	bx	lr
10003566:	bf00      	nop
10003568:	b500      	push	{lr}
1000356a:	f7ff fec1 	bl	100032f0 <generic_save_state>
1000356e:	e002      	b.n	10003576 <__wrap___aeabi_dcmpgt+0x6>

10003570 <__wrap___aeabi_dcmpgt>:
10003570:	fe10 f430 	dcp_pcmp APSR_nzcv
10003574:	d4f8      	bmi.n	10003568 <__wrap___aeabi_dcmpge+0x20>
10003576:	ec41 0410 	dcp_wxup r0, r1
1000357a:	ec43 2411 	dcp_wyup r2, r3
1000357e:	ee00 0401 	dcp_add0
10003582:	ee10 f430 	dcp_rcmp APSR_nzcv
10003586:	bf8c      	ite	hi
10003588:	2001      	movhi	r0, #1
1000358a:	2000      	movls	r0, #0
1000358c:	4770      	bx	lr
1000358e:	bf00      	nop

10003590 <__wrap_malloc>:
10003590:	b538      	push	{r3, r4, r5, lr}
10003592:	4604      	mov	r4, r0
10003594:	4809      	ldr	r0, [pc, #36]	@ (100035bc <__wrap_malloc+0x2c>)
10003596:	f004 fb8b 	bl	10007cb0 <__mutex_enter_blocking_veneer>
1000359a:	4620      	mov	r0, r4
1000359c:	f003 fe38 	bl	10007210 <malloc>
100035a0:	4605      	mov	r5, r0
100035a2:	4806      	ldr	r0, [pc, #24]	@ (100035bc <__wrap_malloc+0x2c>)
100035a4:	f004 fb80 	bl	10007ca8 <__mutex_exit_veneer>
100035a8:	b12d      	cbz	r5, 100035b6 <__wrap_malloc+0x26>
100035aa:	4b05      	ldr	r3, [pc, #20]	@ (100035c0 <__wrap_malloc+0x30>)
100035ac:	442c      	add	r4, r5
100035ae:	429c      	cmp	r4, r3
100035b0:	d801      	bhi.n	100035b6 <__wrap_malloc+0x26>
100035b2:	4628      	mov	r0, r5
100035b4:	bd38      	pop	{r3, r4, r5, pc}
100035b6:	4803      	ldr	r0, [pc, #12]	@ (100035c4 <__wrap_malloc+0x34>)
100035b8:	f7fe faee 	bl	10001b98 <panic>
100035bc:	20001bb8 	.word	0x20001bb8
100035c0:	20080000 	.word	0x20080000
100035c4:	10007eb4 	.word	0x10007eb4

100035c8 <_out_buffer>:
100035c8:	429a      	cmp	r2, r3
100035ca:	bf38      	it	cc
100035cc:	5488      	strbcc	r0, [r1, r2]
100035ce:	4770      	bx	lr

100035d0 <_out_null>:
100035d0:	4770      	bx	lr
100035d2:	bf00      	nop

100035d4 <_out_rev>:
100035d4:	e92d 4ff0 	stmdb	sp!, {r4, r5, r6, r7, r8, r9, sl, fp, lr}
100035d8:	b083      	sub	sp, #12
100035da:	4699      	mov	r9, r3
100035dc:	e9dd ab0d 	ldrd	sl, fp, [sp, #52]	@ 0x34
100035e0:	9b0f      	ldr	r3, [sp, #60]	@ 0x3c
100035e2:	4688      	mov	r8, r1
100035e4:	4611      	mov	r1, r2
100035e6:	079a      	lsls	r2, r3, #30
100035e8:	4607      	mov	r7, r0
100035ea:	d116      	bne.n	1000361a <_out_rev+0x46>
100035ec:	45da      	cmp	sl, fp
100035ee:	d23a      	bcs.n	10003666 <_out_rev+0x92>
100035f0:	460c      	mov	r4, r1
100035f2:	460d      	mov	r5, r1
100035f4:	ebab 060a 	sub.w	r6, fp, sl
100035f8:	440e      	add	r6, r1
100035fa:	4622      	mov	r2, r4
100035fc:	464b      	mov	r3, r9
100035fe:	4641      	mov	r1, r8
10003600:	2020      	movs	r0, #32
10003602:	3401      	adds	r4, #1
10003604:	47b8      	blx	r7
10003606:	42b4      	cmp	r4, r6
10003608:	d1f7      	bne.n	100035fa <_out_rev+0x26>
1000360a:	4629      	mov	r1, r5
1000360c:	f1ba 0f00 	cmp.w	sl, #0
10003610:	d108      	bne.n	10003624 <_out_rev+0x50>
10003612:	4620      	mov	r0, r4
10003614:	b003      	add	sp, #12
10003616:	e8bd 8ff0 	ldmia.w	sp!, {r4, r5, r6, r7, r8, r9, sl, fp, pc}
1000361a:	460c      	mov	r4, r1
1000361c:	f1ba 0f00 	cmp.w	sl, #0
10003620:	d010      	beq.n	10003644 <_out_rev+0x70>
10003622:	460e      	mov	r6, r1
10003624:	4655      	mov	r5, sl
10003626:	9b0c      	ldr	r3, [sp, #48]	@ 0x30
10003628:	442e      	add	r6, r5
1000362a:	449a      	add	sl, r3
1000362c:	9101      	str	r1, [sp, #4]
1000362e:	1b72      	subs	r2, r6, r5
10003630:	464b      	mov	r3, r9
10003632:	3d01      	subs	r5, #1
10003634:	4641      	mov	r1, r8
10003636:	f81a 0d01 	ldrb.w	r0, [sl, #-1]!
1000363a:	4634      	mov	r4, r6
1000363c:	47b8      	blx	r7
1000363e:	2d00      	cmp	r5, #0
10003640:	d1f5      	bne.n	1000362e <_out_rev+0x5a>
10003642:	9901      	ldr	r1, [sp, #4]
10003644:	9b0f      	ldr	r3, [sp, #60]	@ 0x3c
10003646:	079b      	lsls	r3, r3, #30
10003648:	d5e3      	bpl.n	10003612 <_out_rev+0x3e>
1000364a:	1a65      	subs	r5, r4, r1
1000364c:	45ab      	cmp	fp, r5
1000364e:	d9e0      	bls.n	10003612 <_out_rev+0x3e>
10003650:	4622      	mov	r2, r4
10003652:	464b      	mov	r3, r9
10003654:	4641      	mov	r1, r8
10003656:	2020      	movs	r0, #32
10003658:	3501      	adds	r5, #1
1000365a:	47b8      	blx	r7
1000365c:	455d      	cmp	r5, fp
1000365e:	f104 0401 	add.w	r4, r4, #1
10003662:	d3f5      	bcc.n	10003650 <_out_rev+0x7c>
10003664:	e7d5      	b.n	10003612 <_out_rev+0x3e>
10003666:	f1ba 0f00 	cmp.w	sl, #0
1000366a:	d1da      	bne.n	10003622 <_out_rev+0x4e>
1000366c:	460c      	mov	r4, r1
1000366e:	e7d0      	b.n	10003612 <_out_rev+0x3e>

10003670 <_ntoa_format>:
10003670:	e92d 4ff0 	stmdb	sp!, {r4, r5, r6, r7, r8, r9, sl, fp, lr}
10003674:	9f0f      	ldr	r7, [sp, #60]	@ 0x3c
10003676:	f8dd e024 	ldr.w	lr, [sp, #36]	@ 0x24
1000367a:	f017 0f02 	tst.w	r7, #2
1000367e:	9c0a      	ldr	r4, [sp, #40]	@ 0x28
10003680:	f89d 902c 	ldrb.w	r9, [sp, #44]	@ 0x2c
10003684:	9d0e      	ldr	r5, [sp, #56]	@ 0x38
10003686:	e9dd 860c 	ldrd	r8, r6, [sp, #48]	@ 0x30
1000368a:	d129      	bne.n	100036e0 <_ntoa_format+0x70>
1000368c:	2d00      	cmp	r5, #0
1000368e:	d16f      	bne.n	10003770 <_ntoa_format+0x100>
10003690:	42b4      	cmp	r4, r6
10003692:	d225      	bcs.n	100036e0 <_ntoa_format+0x70>
10003694:	2c20      	cmp	r4, #32
10003696:	f007 0b01 	and.w	fp, r7, #1
1000369a:	f000 8112 	beq.w	100038c2 <_ntoa_format+0x252>
1000369e:	f104 3cff 	add.w	ip, r4, #4294967295
100036a2:	f04f 0a30 	mov.w	sl, #48	@ 0x30
100036a6:	44f4      	add	ip, lr
100036a8:	e001      	b.n	100036ae <_ntoa_format+0x3e>
100036aa:	2c20      	cmp	r4, #32
100036ac:	d07a      	beq.n	100037a4 <_ntoa_format+0x134>
100036ae:	3401      	adds	r4, #1
100036b0:	42a6      	cmp	r6, r4
100036b2:	f80c af01 	strb.w	sl, [ip, #1]!
100036b6:	d8f8      	bhi.n	100036aa <_ntoa_format+0x3a>
100036b8:	f1bb 0f00 	cmp.w	fp, #0
100036bc:	d010      	beq.n	100036e0 <_ntoa_format+0x70>
100036be:	42ac      	cmp	r4, r5
100036c0:	d20e      	bcs.n	100036e0 <_ntoa_format+0x70>
100036c2:	2c20      	cmp	r4, #32
100036c4:	d074      	beq.n	100037b0 <_ntoa_format+0x140>
100036c6:	f104 3cff 	add.w	ip, r4, #4294967295
100036ca:	f04f 0a30 	mov.w	sl, #48	@ 0x30
100036ce:	44f4      	add	ip, lr
100036d0:	e001      	b.n	100036d6 <_ntoa_format+0x66>
100036d2:	2c20      	cmp	r4, #32
100036d4:	d029      	beq.n	1000372a <_ntoa_format+0xba>
100036d6:	3401      	adds	r4, #1
100036d8:	42ac      	cmp	r4, r5
100036da:	f80c af01 	strb.w	sl, [ip, #1]!
100036de:	d1f8      	bne.n	100036d2 <_ntoa_format+0x62>
100036e0:	f017 0f10 	tst.w	r7, #16
100036e4:	d03a      	beq.n	1000375c <_ntoa_format+0xec>
100036e6:	f417 6f80 	tst.w	r7, #1024	@ 0x400
100036ea:	d128      	bne.n	1000373e <_ntoa_format+0xce>
100036ec:	bb1c      	cbnz	r4, 10003736 <_ntoa_format+0xc6>
100036ee:	f1b8 0f10 	cmp.w	r8, #16
100036f2:	f000 80ca 	beq.w	1000388a <_ntoa_format+0x21a>
100036f6:	f1b8 0f02 	cmp.w	r8, #2
100036fa:	f000 80d4 	beq.w	100038a6 <_ntoa_format+0x236>
100036fe:	2430      	movs	r4, #48	@ 0x30
10003700:	f88e 4000 	strb.w	r4, [lr]
10003704:	2401      	movs	r4, #1
10003706:	f1b9 0f00 	cmp.w	r9, #0
1000370a:	d167      	bne.n	100037dc <_ntoa_format+0x16c>
1000370c:	077e      	lsls	r6, r7, #29
1000370e:	f140 80aa 	bpl.w	10003866 <_ntoa_format+0x1f6>
10003712:	262b      	movs	r6, #43	@ 0x2b
10003714:	f80e 6004 	strb.w	r6, [lr, r4]
10003718:	3401      	adds	r4, #1
1000371a:	e9cd 570b 	strd	r5, r7, [sp, #44]	@ 0x2c
1000371e:	e9cd e409 	strd	lr, r4, [sp, #36]	@ 0x24
10003722:	e8bd 4ff0 	ldmia.w	sp!, {r4, r5, r6, r7, r8, r9, sl, fp, lr}
10003726:	f7ff bf55 	b.w	100035d4 <_out_rev>
1000372a:	06fc      	lsls	r4, r7, #27
1000372c:	f140 8089 	bpl.w	10003842 <_ntoa_format+0x1d2>
10003730:	057c      	lsls	r4, r7, #21
10003732:	d435      	bmi.n	100037a0 <_ntoa_format+0x130>
10003734:	2420      	movs	r4, #32
10003736:	42a6      	cmp	r6, r4
10003738:	d06a      	beq.n	10003810 <_ntoa_format+0x1a0>
1000373a:	42ac      	cmp	r4, r5
1000373c:	d068      	beq.n	10003810 <_ntoa_format+0x1a0>
1000373e:	f1b8 0f10 	cmp.w	r8, #16
10003742:	f000 8087 	beq.w	10003854 <_ntoa_format+0x1e4>
10003746:	f1b8 0f02 	cmp.w	r8, #2
1000374a:	d05a      	beq.n	10003802 <_ntoa_format+0x192>
1000374c:	2c20      	cmp	r4, #32
1000374e:	d0e4      	beq.n	1000371a <_ntoa_format+0xaa>
10003750:	4626      	mov	r6, r4
10003752:	3401      	adds	r4, #1
10003754:	f04f 0c30 	mov.w	ip, #48	@ 0x30
10003758:	f80e c006 	strb.w	ip, [lr, r6]
1000375c:	2c20      	cmp	r4, #32
1000375e:	d1d2      	bne.n	10003706 <_ntoa_format+0x96>
10003760:	e9cd 570b 	strd	r5, r7, [sp, #44]	@ 0x2c
10003764:	e9cd e409 	strd	lr, r4, [sp, #36]	@ 0x24
10003768:	e8bd 4ff0 	ldmia.w	sp!, {r4, r5, r6, r7, r8, r9, sl, fp, lr}
1000376c:	f7ff bf32 	b.w	100035d4 <_out_rev>
10003770:	f017 0b01 	ands.w	fp, r7, #1
10003774:	d03e      	beq.n	100037f4 <_ntoa_format+0x184>
10003776:	f1b9 0f00 	cmp.w	r9, #0
1000377a:	d147      	bne.n	1000380c <_ntoa_format+0x19c>
1000377c:	f017 0f0c 	tst.w	r7, #12
10003780:	d144      	bne.n	1000380c <_ntoa_format+0x19c>
10003782:	42b4      	cmp	r4, r6
10003784:	d29b      	bcs.n	100036be <_ntoa_format+0x4e>
10003786:	2c20      	cmp	r4, #32
10003788:	d189      	bne.n	1000369e <_ntoa_format+0x2e>
1000378a:	2d20      	cmp	r5, #32
1000378c:	d810      	bhi.n	100037b0 <_ntoa_format+0x140>
1000378e:	06fc      	lsls	r4, r7, #27
10003790:	d557      	bpl.n	10003842 <_ntoa_format+0x1d2>
10003792:	057c      	lsls	r4, r7, #21
10003794:	d455      	bmi.n	10003842 <_ntoa_format+0x1d2>
10003796:	2e20      	cmp	r6, #32
10003798:	f000 80b9 	beq.w	1000390e <_ntoa_format+0x29e>
1000379c:	2d20      	cmp	r5, #32
1000379e:	d010      	beq.n	100037c2 <_ntoa_format+0x152>
100037a0:	2420      	movs	r4, #32
100037a2:	e7cc      	b.n	1000373e <_ntoa_format+0xce>
100037a4:	f1bb 0f00 	cmp.w	fp, #0
100037a8:	f000 80a5 	beq.w	100038f6 <_ntoa_format+0x286>
100037ac:	2d20      	cmp	r5, #32
100037ae:	d9bc      	bls.n	1000372a <_ntoa_format+0xba>
100037b0:	06fc      	lsls	r4, r7, #27
100037b2:	d546      	bpl.n	10003842 <_ntoa_format+0x1d2>
100037b4:	057c      	lsls	r4, r7, #21
100037b6:	d444      	bmi.n	10003842 <_ntoa_format+0x1d2>
100037b8:	2e20      	cmp	r6, #32
100037ba:	f000 80a8 	beq.w	1000390e <_ntoa_format+0x29e>
100037be:	2d20      	cmp	r5, #32
100037c0:	d13f      	bne.n	10003842 <_ntoa_format+0x1d2>
100037c2:	462c      	mov	r4, r5
100037c4:	261f      	movs	r6, #31
100037c6:	f1b8 0f10 	cmp.w	r8, #16
100037ca:	d07f      	beq.n	100038cc <_ntoa_format+0x25c>
100037cc:	f1b8 0f02 	cmp.w	r8, #2
100037d0:	d1c0      	bne.n	10003754 <_ntoa_format+0xe4>
100037d2:	f04f 0c62 	mov.w	ip, #98	@ 0x62
100037d6:	f80e c006 	strb.w	ip, [lr, r6]
100037da:	e7b7      	b.n	1000374c <_ntoa_format+0xdc>
100037dc:	262d      	movs	r6, #45	@ 0x2d
100037de:	f80e 6004 	strb.w	r6, [lr, r4]
100037e2:	3401      	adds	r4, #1
100037e4:	e9cd 570b 	strd	r5, r7, [sp, #44]	@ 0x2c
100037e8:	e9cd e409 	strd	lr, r4, [sp, #36]	@ 0x24
100037ec:	e8bd 4ff0 	ldmia.w	sp!, {r4, r5, r6, r7, r8, r9, sl, fp, lr}
100037f0:	f7ff bef0 	b.w	100035d4 <_out_rev>
100037f4:	42b4      	cmp	r4, r6
100037f6:	f4bf af73 	bcs.w	100036e0 <_ntoa_format+0x70>
100037fa:	2c20      	cmp	r4, #32
100037fc:	f47f af4f 	bne.w	1000369e <_ntoa_format+0x2e>
10003800:	e7d6      	b.n	100037b0 <_ntoa_format+0x140>
10003802:	2c20      	cmp	r4, #32
10003804:	d089      	beq.n	1000371a <_ntoa_format+0xaa>
10003806:	4626      	mov	r6, r4
10003808:	3401      	adds	r4, #1
1000380a:	e7e2      	b.n	100037d2 <_ntoa_format+0x162>
1000380c:	3d01      	subs	r5, #1
1000380e:	e7b8      	b.n	10003782 <_ntoa_format+0x112>
10003810:	1e66      	subs	r6, r4, #1
10003812:	d1d8      	bne.n	100037c6 <_ntoa_format+0x156>
10003814:	f1b8 0f10 	cmp.w	r8, #16
10003818:	d064      	beq.n	100038e4 <_ntoa_format+0x274>
1000381a:	f1b8 0f02 	cmp.w	r8, #2
1000381e:	f47f af6e 	bne.w	100036fe <_ntoa_format+0x8e>
10003822:	2662      	movs	r6, #98	@ 0x62
10003824:	f88e 6000 	strb.w	r6, [lr]
10003828:	2630      	movs	r6, #48	@ 0x30
1000382a:	4644      	mov	r4, r8
1000382c:	f88e 6001 	strb.w	r6, [lr, #1]
10003830:	f1b9 0f00 	cmp.w	r9, #0
10003834:	f43f af6a 	beq.w	1000370c <_ntoa_format+0x9c>
10003838:	e7d0      	b.n	100037dc <_ntoa_format+0x16c>
1000383a:	f1b8 0f10 	cmp.w	r8, #16
1000383e:	f47f af6c 	bne.w	1000371a <_ntoa_format+0xaa>
10003842:	2420      	movs	r4, #32
10003844:	e9cd 570b 	strd	r5, r7, [sp, #44]	@ 0x2c
10003848:	e9cd e409 	strd	lr, r4, [sp, #36]	@ 0x24
1000384c:	e8bd 4ff0 	ldmia.w	sp!, {r4, r5, r6, r7, r8, r9, sl, fp, lr}
10003850:	f7ff bec0 	b.w	100035d4 <_out_rev>
10003854:	06be      	lsls	r6, r7, #26
10003856:	d40e      	bmi.n	10003876 <_ntoa_format+0x206>
10003858:	2c20      	cmp	r4, #32
1000385a:	d0f2      	beq.n	10003842 <_ntoa_format+0x1d2>
1000385c:	2678      	movs	r6, #120	@ 0x78
1000385e:	f80e 6004 	strb.w	r6, [lr, r4]
10003862:	3401      	adds	r4, #1
10003864:	e772      	b.n	1000374c <_ntoa_format+0xdc>
10003866:	073e      	lsls	r6, r7, #28
10003868:	f57f af57 	bpl.w	1000371a <_ntoa_format+0xaa>
1000386c:	2620      	movs	r6, #32
1000386e:	f80e 6004 	strb.w	r6, [lr, r4]
10003872:	3401      	adds	r4, #1
10003874:	e751      	b.n	1000371a <_ntoa_format+0xaa>
10003876:	2c20      	cmp	r4, #32
10003878:	d0e3      	beq.n	10003842 <_ntoa_format+0x1d2>
1000387a:	f04f 0c58 	mov.w	ip, #88	@ 0x58
1000387e:	eb0e 0604 	add.w	r6, lr, r4
10003882:	f886 c000 	strb.w	ip, [r6]
10003886:	3401      	adds	r4, #1
10003888:	e760      	b.n	1000374c <_ntoa_format+0xdc>
1000388a:	06be      	lsls	r6, r7, #26
1000388c:	d517      	bpl.n	100038be <_ntoa_format+0x24e>
1000388e:	2458      	movs	r4, #88	@ 0x58
10003890:	f88e 4000 	strb.w	r4, [lr]
10003894:	2430      	movs	r4, #48	@ 0x30
10003896:	f88e 4001 	strb.w	r4, [lr, #1]
1000389a:	2402      	movs	r4, #2
1000389c:	f1b9 0f00 	cmp.w	r9, #0
100038a0:	f43f af34 	beq.w	1000370c <_ntoa_format+0x9c>
100038a4:	e79a      	b.n	100037dc <_ntoa_format+0x16c>
100038a6:	2462      	movs	r4, #98	@ 0x62
100038a8:	f88e 4000 	strb.w	r4, [lr]
100038ac:	2430      	movs	r4, #48	@ 0x30
100038ae:	f88e 4001 	strb.w	r4, [lr, #1]
100038b2:	2402      	movs	r4, #2
100038b4:	f1b9 0f00 	cmp.w	r9, #0
100038b8:	f43f af28 	beq.w	1000370c <_ntoa_format+0x9c>
100038bc:	e78e      	b.n	100037dc <_ntoa_format+0x16c>
100038be:	2478      	movs	r4, #120	@ 0x78
100038c0:	e7f2      	b.n	100038a8 <_ntoa_format+0x238>
100038c2:	f1bb 0f00 	cmp.w	fp, #0
100038c6:	f47f af62 	bne.w	1000378e <_ntoa_format+0x11e>
100038ca:	e771      	b.n	100037b0 <_ntoa_format+0x140>
100038cc:	f017 0f20 	tst.w	r7, #32
100038d0:	bf0c      	ite	eq
100038d2:	f04f 0c78 	moveq.w	ip, #120	@ 0x78
100038d6:	f04f 0c58 	movne.w	ip, #88	@ 0x58
100038da:	1ea6      	subs	r6, r4, #2
100038dc:	f80e c006 	strb.w	ip, [lr, r6]
100038e0:	3c01      	subs	r4, #1
100038e2:	e735      	b.n	10003750 <_ntoa_format+0xe0>
100038e4:	06bc      	lsls	r4, r7, #26
100038e6:	d5ea      	bpl.n	100038be <_ntoa_format+0x24e>
100038e8:	2458      	movs	r4, #88	@ 0x58
100038ea:	f88e 4000 	strb.w	r4, [lr]
100038ee:	2430      	movs	r4, #48	@ 0x30
100038f0:	f88e 4001 	strb.w	r4, [lr, #1]
100038f4:	e7dd      	b.n	100038b2 <_ntoa_format+0x242>
100038f6:	f017 0f10 	tst.w	r7, #16
100038fa:	f43f af0e 	beq.w	1000371a <_ntoa_format+0xaa>
100038fe:	f417 6f80 	tst.w	r7, #1024	@ 0x400
10003902:	d19a      	bne.n	1000383a <_ntoa_format+0x1ca>
10003904:	2e20      	cmp	r6, #32
10003906:	f47f af18 	bne.w	1000373a <_ntoa_format+0xca>
1000390a:	261f      	movs	r6, #31
1000390c:	e75b      	b.n	100037c6 <_ntoa_format+0x156>
1000390e:	4634      	mov	r4, r6
10003910:	261f      	movs	r6, #31
10003912:	e758      	b.n	100037c6 <_ntoa_format+0x156>

10003914 <_out_char>:
10003914:	b900      	cbnz	r0, 10003918 <_out_char+0x4>
10003916:	4770      	bx	lr
10003918:	f001 ba4e 	b.w	10004db8 <__wrap_putchar>
1000391c:	0000      	movs	r0, r0
	...

10003920 <_etoa>:
10003920:	e92d 4ff0 	stmdb	sp!, {r4, r5, r6, r7, r8, r9, sl, fp, lr}
10003924:	b09f      	sub	sp, #124	@ 0x7c
10003926:	ed9d 7b28 	vldr	d7, [sp, #160]	@ 0xa0
1000392a:	e9dd a52a 	ldrd	sl, r5, [sp, #168]	@ 0xa8
1000392e:	ec58 7b17 	vmov	r7, r8, d7
10003932:	4683      	mov	fp, r0
10003934:	461e      	mov	r6, r3
10003936:	910d      	str	r1, [sp, #52]	@ 0x34
10003938:	9210      	str	r2, [sp, #64]	@ 0x40
1000393a:	4643      	mov	r3, r8
1000393c:	463a      	mov	r2, r7
1000393e:	4638      	mov	r0, r7
10003940:	4641      	mov	r1, r8
10003942:	ed8d 7b08 	vstr	d7, [sp, #32]
10003946:	9c2c      	ldr	r4, [sp, #176]	@ 0xb0
10003948:	f7ff fdd8 	bl	100034fc <__wrap___aeabi_dcmpun>
1000394c:	2800      	cmp	r0, #0
1000394e:	f040 80d8 	bne.w	10003b02 <_etoa+0x1e2>
10003952:	4638      	mov	r0, r7
10003954:	4641      	mov	r1, r8
10003956:	f04f 32ff 	mov.w	r2, #4294967295
1000395a:	4b75      	ldr	r3, [pc, #468]	@ (10003b30 <_etoa+0x210>)
1000395c:	f7ff fe08 	bl	10003570 <__wrap___aeabi_dcmpgt>
10003960:	2800      	cmp	r0, #0
10003962:	f040 80ce 	bne.w	10003b02 <_etoa+0x1e2>
10003966:	4638      	mov	r0, r7
10003968:	4641      	mov	r1, r8
1000396a:	f04f 32ff 	mov.w	r2, #4294967295
1000396e:	f46f 1380 	mvn.w	r3, #1048576	@ 0x100000
10003972:	f7ff fdd5 	bl	10003520 <__wrap___aeabi_dcmplt>
10003976:	2800      	cmp	r0, #0
10003978:	f040 80c3 	bne.w	10003b02 <_etoa+0x1e2>
1000397c:	e9dd 7808 	ldrd	r7, r8, [sp, #32]
10003980:	2200      	movs	r2, #0
10003982:	4638      	mov	r0, r7
10003984:	4641      	mov	r1, r8
10003986:	2300      	movs	r3, #0
10003988:	f7ff fdca 	bl	10003520 <__wrap___aeabi_dcmplt>
1000398c:	2800      	cmp	r0, #0
1000398e:	f040 81c0 	bne.w	10003d12 <_etoa+0x3f2>
10003992:	e9cd 780a 	strd	r7, r8, [sp, #40]	@ 0x28
10003996:	e9dd 230a 	ldrd	r2, r3, [sp, #40]	@ 0x28
1000399a:	4690      	mov	r8, r2
1000399c:	461f      	mov	r7, r3
1000399e:	f414 6380 	ands.w	r3, r4, #1024	@ 0x400
100039a2:	bf08      	it	eq
100039a4:	f04f 0a06 	moveq.w	sl, #6
100039a8:	9313      	str	r3, [sp, #76]	@ 0x4c
100039aa:	f404 6200 	and.w	r2, r4, #2048	@ 0x800
100039ae:	ea58 0307 	orrs.w	r3, r8, r7
100039b2:	9211      	str	r2, [sp, #68]	@ 0x44
100039b4:	f040 80c0 	bne.w	10003b38 <_etoa+0x218>
100039b8:	2a00      	cmp	r2, #0
100039ba:	f000 81a2 	beq.w	10003d02 <_etoa+0x3e2>
100039be:	ed9f 7b5a 	vldr	d7, [pc, #360]	@ 10003b28 <_etoa+0x208>
100039c2:	2700      	movs	r7, #0
100039c4:	ed8d 7b0e 	vstr	d7, [sp, #56]	@ 0x38
100039c8:	f04f 0900 	mov.w	r9, #0
100039cc:	45ba      	cmp	sl, r7
100039ce:	bfcc      	ite	gt
100039d0:	ebaa 0a07 	subgt.w	sl, sl, r7
100039d4:	f04f 0a00 	movle.w	sl, #0
100039d8:	464f      	mov	r7, r9
100039da:	bfc8      	it	gt
100039dc:	f10a 3aff 	addgt.w	sl, sl, #4294967295
100039e0:	f444 6480 	orr.w	r4, r4, #1024	@ 0x400
100039e4:	454d      	cmp	r5, r9
100039e6:	bf94      	ite	ls
100039e8:	f04f 0800 	movls.w	r8, #0
100039ec:	eba5 0809 	subhi.w	r8, r5, r9
100039f0:	f014 0302 	ands.w	r3, r4, #2
100039f4:	9311      	str	r3, [sp, #68]	@ 0x44
100039f6:	d004      	beq.n	10003a02 <_etoa+0xe2>
100039f8:	f1b9 0f00 	cmp.w	r9, #0
100039fc:	bf18      	it	ne
100039fe:	f04f 0800 	movne.w	r8, #0
10003a02:	b13f      	cbz	r7, 10003a14 <_etoa+0xf4>
10003a04:	e9dd 010a 	ldrd	r0, r1, [sp, #40]	@ 0x28
10003a08:	e9dd 230e 	ldrd	r2, r3, [sp, #56]	@ 0x38
10003a0c:	f7ff fce0 	bl	100033d0 <__wrap___aeabi_ddiv>
10003a10:	e9cd 010a 	strd	r0, r1, [sp, #40]	@ 0x28
10003a14:	e9dd 0108 	ldrd	r0, r1, [sp, #32]
10003a18:	2200      	movs	r2, #0
10003a1a:	2300      	movs	r3, #0
10003a1c:	f7ff fd80 	bl	10003520 <__wrap___aeabi_dcmplt>
10003a20:	b130      	cbz	r0, 10003a30 <_etoa+0x110>
10003a22:	e9dd 010a 	ldrd	r0, r1, [sp, #40]	@ 0x28
10003a26:	4602      	mov	r2, r0
10003a28:	f101 4300 	add.w	r3, r1, #2147483648	@ 0x80000000
10003a2c:	e9cd 230a 	strd	r2, r3, [sp, #40]	@ 0x28
10003a30:	ed9d 7b0a 	vldr	d7, [sp, #40]	@ 0x28
10003a34:	e9cd a802 	strd	sl, r8, [sp, #8]
10003a38:	f8dd a034 	ldr.w	sl, [sp, #52]	@ 0x34
10003a3c:	f424 6300 	bic.w	r3, r4, #2048	@ 0x800
10003a40:	9304      	str	r3, [sp, #16]
10003a42:	ed8d 7b00 	vstr	d7, [sp]
10003a46:	4633      	mov	r3, r6
10003a48:	4651      	mov	r1, sl
10003a4a:	4658      	mov	r0, fp
10003a4c:	9a10      	ldr	r2, [sp, #64]	@ 0x40
10003a4e:	f000 f997 	bl	10003d80 <_ftoa>
10003a52:	4680      	mov	r8, r0
10003a54:	f1b9 0f00 	cmp.w	r9, #0
10003a58:	d04f      	beq.n	10003afa <_etoa+0x1da>
10003a5a:	f014 0f20 	tst.w	r4, #32
10003a5e:	4602      	mov	r2, r0
10003a60:	f100 0401 	add.w	r4, r0, #1
10003a64:	4633      	mov	r3, r6
10003a66:	bf0c      	ite	eq
10003a68:	2065      	moveq	r0, #101	@ 0x65
10003a6a:	2045      	movne	r0, #69	@ 0x45
10003a6c:	4651      	mov	r1, sl
10003a6e:	47d8      	blx	fp
10003a70:	f109 30ff 	add.w	r0, r9, #4294967295
10003a74:	ea87 7ce7 	eor.w	ip, r7, r7, asr #31
10003a78:	f10d 0958 	add.w	r9, sp, #88	@ 0x58
10003a7c:	2200      	movs	r2, #0
10003a7e:	464b      	mov	r3, r9
10003a80:	f8df 80b0 	ldr.w	r8, [pc, #176]	@ 10003b34 <_etoa+0x214>
10003a84:	ebac 7ce7 	sub.w	ip, ip, r7, asr #31
10003a88:	ea4f 7ed7 	mov.w	lr, r7, lsr #31
10003a8c:	e001      	b.n	10003a92 <_etoa+0x172>
10003a8e:	2a20      	cmp	r2, #32
10003a90:	d010      	beq.n	10003ab4 <_etoa+0x194>
10003a92:	46e2      	mov	sl, ip
10003a94:	fba8 710c 	umull	r7, r1, r8, ip
10003a98:	08c9      	lsrs	r1, r1, #3
10003a9a:	eb01 0781 	add.w	r7, r1, r1, lsl #2
10003a9e:	ebac 0747 	sub.w	r7, ip, r7, lsl #1
10003aa2:	3730      	adds	r7, #48	@ 0x30
10003aa4:	f1ba 0f09 	cmp.w	sl, #9
10003aa8:	468c      	mov	ip, r1
10003aaa:	f102 0201 	add.w	r2, r2, #1
10003aae:	f803 7b01 	strb.w	r7, [r3], #1
10003ab2:	d8ec      	bhi.n	10003a8e <_etoa+0x16e>
10003ab4:	2305      	movs	r3, #5
10003ab6:	9005      	str	r0, [sp, #20]
10003ab8:	9306      	str	r3, [sp, #24]
10003aba:	2000      	movs	r0, #0
10003abc:	230a      	movs	r3, #10
10003abe:	9f0d      	ldr	r7, [sp, #52]	@ 0x34
10003ac0:	e9cd 3003 	strd	r3, r0, [sp, #12]
10003ac4:	e9cd 2e01 	strd	r2, lr, [sp, #4]
10003ac8:	4633      	mov	r3, r6
10003aca:	4622      	mov	r2, r4
10003acc:	4639      	mov	r1, r7
10003ace:	4658      	mov	r0, fp
10003ad0:	f8cd 9000 	str.w	r9, [sp]
10003ad4:	f7ff fdcc 	bl	10003670 <_ntoa_format>
10003ad8:	9b11      	ldr	r3, [sp, #68]	@ 0x44
10003ada:	4680      	mov	r8, r0
10003adc:	b16b      	cbz	r3, 10003afa <_etoa+0x1da>
10003ade:	9b10      	ldr	r3, [sp, #64]	@ 0x40
10003ae0:	1ac4      	subs	r4, r0, r3
10003ae2:	42a5      	cmp	r5, r4
10003ae4:	d909      	bls.n	10003afa <_etoa+0x1da>
10003ae6:	4642      	mov	r2, r8
10003ae8:	4633      	mov	r3, r6
10003aea:	4639      	mov	r1, r7
10003aec:	2020      	movs	r0, #32
10003aee:	3401      	adds	r4, #1
10003af0:	47d8      	blx	fp
10003af2:	42a5      	cmp	r5, r4
10003af4:	f108 0801 	add.w	r8, r8, #1
10003af8:	d8f5      	bhi.n	10003ae6 <_etoa+0x1c6>
10003afa:	4640      	mov	r0, r8
10003afc:	b01f      	add	sp, #124	@ 0x7c
10003afe:	e8bd 8ff0 	ldmia.w	sp!, {r4, r5, r6, r7, r8, r9, sl, fp, pc}
10003b02:	ed9d 7b08 	vldr	d7, [sp, #32]
10003b06:	4633      	mov	r3, r6
10003b08:	4658      	mov	r0, fp
10003b0a:	9a10      	ldr	r2, [sp, #64]	@ 0x40
10003b0c:	990d      	ldr	r1, [sp, #52]	@ 0x34
10003b0e:	ed8d 7b28 	vstr	d7, [sp, #160]	@ 0xa0
10003b12:	e9cd 542b 	strd	r5, r4, [sp, #172]	@ 0xac
10003b16:	f8cd a0a8 	str.w	sl, [sp, #168]	@ 0xa8
10003b1a:	b01f      	add	sp, #124	@ 0x7c
10003b1c:	e8bd 4ff0 	ldmia.w	sp!, {r4, r5, r6, r7, r8, r9, sl, fp, lr}
10003b20:	f000 b92e 	b.w	10003d80 <_ftoa>
10003b24:	f3af 8000 	nop.w
	...
10003b30:	7fefffff 	.word	0x7fefffff
10003b34:	cccccccd 	.word	0xcccccccd
10003b38:	f3c7 500a 	ubfx	r0, r7, #20, #11
10003b3c:	f2a0 30ff 	subw	r0, r0, #1023	@ 0x3ff
10003b40:	f7ff fc94 	bl	1000346c <__wrap___aeabi_i2d>
10003b44:	a38a      	add	r3, pc, #552	@ (adr r3, 10003d70 <_etoa+0x450>)
10003b46:	e9d3 2300 	ldrd	r2, r3, [r3]
10003b4a:	f7ff fc1b 	bl	10003384 <__wrap___aeabi_dmul>
10003b4e:	a38a      	add	r3, pc, #552	@ (adr r3, 10003d78 <_etoa+0x458>)
10003b50:	e9d3 2300 	ldrd	r2, r3, [r3]
10003b54:	f7ff fbee 	bl	10003334 <__wrap___aeabi_dadd>
10003b58:	f3c7 0713 	ubfx	r7, r7, #0, #20
10003b5c:	e9cd 010e 	strd	r0, r1, [sp, #56]	@ 0x38
10003b60:	f047 517f 	orr.w	r1, r7, #1069547520	@ 0x3fc00000
10003b64:	4640      	mov	r0, r8
10003b66:	2200      	movs	r2, #0
10003b68:	4b7b      	ldr	r3, [pc, #492]	@ (10003d58 <_etoa+0x438>)
10003b6a:	f441 1140 	orr.w	r1, r1, #3145728	@ 0x300000
10003b6e:	f7ff fbf5 	bl	1000335c <__wrap___aeabi_dsub>
10003b72:	a36b      	add	r3, pc, #428	@ (adr r3, 10003d20 <_etoa+0x400>)
10003b74:	e9d3 2300 	ldrd	r2, r3, [r3]
10003b78:	f7ff fc04 	bl	10003384 <__wrap___aeabi_dmul>
10003b7c:	4602      	mov	r2, r0
10003b7e:	460b      	mov	r3, r1
10003b80:	e9dd 010e 	ldrd	r0, r1, [sp, #56]	@ 0x38
10003b84:	f7ff fbd6 	bl	10003334 <__wrap___aeabi_dadd>
10003b88:	f7ff fc94 	bl	100034b4 <__wrap___aeabi_d2iz>
10003b8c:	4607      	mov	r7, r0
10003b8e:	f7ff fc6d 	bl	1000346c <__wrap___aeabi_i2d>
10003b92:	a365      	add	r3, pc, #404	@ (adr r3, 10003d28 <_etoa+0x408>)
10003b94:	e9d3 2300 	ldrd	r2, r3, [r3]
10003b98:	4680      	mov	r8, r0
10003b9a:	4689      	mov	r9, r1
10003b9c:	f7ff fbf2 	bl	10003384 <__wrap___aeabi_dmul>
10003ba0:	2200      	movs	r2, #0
10003ba2:	4b6e      	ldr	r3, [pc, #440]	@ (10003d5c <_etoa+0x43c>)
10003ba4:	f7ff fbc6 	bl	10003334 <__wrap___aeabi_dadd>
10003ba8:	f7ff fc84 	bl	100034b4 <__wrap___aeabi_d2iz>
10003bac:	4603      	mov	r3, r0
10003bae:	4649      	mov	r1, r9
10003bb0:	4640      	mov	r0, r8
10003bb2:	9312      	str	r3, [sp, #72]	@ 0x48
10003bb4:	a35e      	add	r3, pc, #376	@ (adr r3, 10003d30 <_etoa+0x410>)
10003bb6:	e9d3 2300 	ldrd	r2, r3, [r3]
10003bba:	f7ff fbe3 	bl	10003384 <__wrap___aeabi_dmul>
10003bbe:	4680      	mov	r8, r0
10003bc0:	9812      	ldr	r0, [sp, #72]	@ 0x48
10003bc2:	4689      	mov	r9, r1
10003bc4:	f7ff fc52 	bl	1000346c <__wrap___aeabi_i2d>
10003bc8:	a35b      	add	r3, pc, #364	@ (adr r3, 10003d38 <_etoa+0x418>)
10003bca:	e9d3 2300 	ldrd	r2, r3, [r3]
10003bce:	f7ff fbd9 	bl	10003384 <__wrap___aeabi_dmul>
10003bd2:	4602      	mov	r2, r0
10003bd4:	460b      	mov	r3, r1
10003bd6:	4640      	mov	r0, r8
10003bd8:	4649      	mov	r1, r9
10003bda:	f7ff fbbf 	bl	1000335c <__wrap___aeabi_dsub>
10003bde:	4602      	mov	r2, r0
10003be0:	460b      	mov	r3, r1
10003be2:	4680      	mov	r8, r0
10003be4:	4689      	mov	r9, r1
10003be6:	f7ff fbcd 	bl	10003384 <__wrap___aeabi_dmul>
10003bea:	4642      	mov	r2, r8
10003bec:	464b      	mov	r3, r9
10003bee:	e9cd 010e 	strd	r0, r1, [sp, #56]	@ 0x38
10003bf2:	4640      	mov	r0, r8
10003bf4:	4649      	mov	r1, r9
10003bf6:	f7ff fb9d 	bl	10003334 <__wrap___aeabi_dadd>
10003bfa:	2200      	movs	r2, #0
10003bfc:	e9cd 0114 	strd	r0, r1, [sp, #80]	@ 0x50
10003c00:	e9dd 010e 	ldrd	r0, r1, [sp, #56]	@ 0x38
10003c04:	4b56      	ldr	r3, [pc, #344]	@ (10003d60 <_etoa+0x440>)
10003c06:	f7ff fbe3 	bl	100033d0 <__wrap___aeabi_ddiv>
10003c0a:	2200      	movs	r2, #0
10003c0c:	4b55      	ldr	r3, [pc, #340]	@ (10003d64 <_etoa+0x444>)
10003c0e:	f7ff fb91 	bl	10003334 <__wrap___aeabi_dadd>
10003c12:	4602      	mov	r2, r0
10003c14:	460b      	mov	r3, r1
10003c16:	e9dd 010e 	ldrd	r0, r1, [sp, #56]	@ 0x38
10003c1a:	f7ff fbd9 	bl	100033d0 <__wrap___aeabi_ddiv>
10003c1e:	2200      	movs	r2, #0
10003c20:	4b51      	ldr	r3, [pc, #324]	@ (10003d68 <_etoa+0x448>)
10003c22:	f7ff fb87 	bl	10003334 <__wrap___aeabi_dadd>
10003c26:	4602      	mov	r2, r0
10003c28:	460b      	mov	r3, r1
10003c2a:	e9dd 010e 	ldrd	r0, r1, [sp, #56]	@ 0x38
10003c2e:	f7ff fbcf 	bl	100033d0 <__wrap___aeabi_ddiv>
10003c32:	4642      	mov	r2, r8
10003c34:	464b      	mov	r3, r9
10003c36:	4680      	mov	r8, r0
10003c38:	4689      	mov	r9, r1
10003c3a:	2000      	movs	r0, #0
10003c3c:	f04f 4180 	mov.w	r1, #1073741824	@ 0x40000000
10003c40:	f7ff fb8c 	bl	1000335c <__wrap___aeabi_dsub>
10003c44:	4602      	mov	r2, r0
10003c46:	460b      	mov	r3, r1
10003c48:	4640      	mov	r0, r8
10003c4a:	4649      	mov	r1, r9
10003c4c:	f7ff fb72 	bl	10003334 <__wrap___aeabi_dadd>
10003c50:	4602      	mov	r2, r0
10003c52:	460b      	mov	r3, r1
10003c54:	e9dd 0114 	ldrd	r0, r1, [sp, #80]	@ 0x50
10003c58:	f7ff fbba 	bl	100033d0 <__wrap___aeabi_ddiv>
10003c5c:	2200      	movs	r2, #0
10003c5e:	4b43      	ldr	r3, [pc, #268]	@ (10003d6c <_etoa+0x44c>)
10003c60:	f7ff fb68 	bl	10003334 <__wrap___aeabi_dadd>
10003c64:	9b12      	ldr	r3, [sp, #72]	@ 0x48
10003c66:	2200      	movs	r2, #0
10003c68:	f203 3cff 	addw	ip, r3, #1023	@ 0x3ff
10003c6c:	ea4f 530c 	mov.w	r3, ip, lsl #20
10003c70:	f7ff fb88 	bl	10003384 <__wrap___aeabi_dmul>
10003c74:	4680      	mov	r8, r0
10003c76:	4689      	mov	r9, r1
10003c78:	e9dd 010a 	ldrd	r0, r1, [sp, #40]	@ 0x28
10003c7c:	4642      	mov	r2, r8
10003c7e:	464b      	mov	r3, r9
10003c80:	e9cd 890e 	strd	r8, r9, [sp, #56]	@ 0x38
10003c84:	f7ff fc4c 	bl	10003520 <__wrap___aeabi_dcmplt>
10003c88:	bb68      	cbnz	r0, 10003ce6 <_etoa+0x3c6>
10003c8a:	4643      	mov	r3, r8
10003c8c:	4649      	mov	r1, r9
10003c8e:	f107 0263 	add.w	r2, r7, #99	@ 0x63
10003c92:	2ac6      	cmp	r2, #198	@ 0xc6
10003c94:	9a11      	ldr	r2, [sp, #68]	@ 0x44
10003c96:	bf8c      	ite	hi
10003c98:	f04f 0905 	movhi.w	r9, #5
10003c9c:	f04f 0904 	movls.w	r9, #4
10003ca0:	2a00      	cmp	r2, #0
10003ca2:	f43f ae9f 	beq.w	100039e4 <_etoa+0xc4>
10003ca6:	430b      	orrs	r3, r1
10003ca8:	f43f ae8e 	beq.w	100039c8 <_etoa+0xa8>
10003cac:	e9dd 010a 	ldrd	r0, r1, [sp, #40]	@ 0x28
10003cb0:	a323      	add	r3, pc, #140	@ (adr r3, 10003d40 <_etoa+0x420>)
10003cb2:	e9d3 2300 	ldrd	r2, r3, [r3]
10003cb6:	f7ff fc47 	bl	10003548 <__wrap___aeabi_dcmpge>
10003cba:	b148      	cbz	r0, 10003cd0 <_etoa+0x3b0>
10003cbc:	e9dd 010a 	ldrd	r0, r1, [sp, #40]	@ 0x28
10003cc0:	a321      	add	r3, pc, #132	@ (adr r3, 10003d48 <_etoa+0x428>)
10003cc2:	e9d3 2300 	ldrd	r2, r3, [r3]
10003cc6:	f7ff fc2b 	bl	10003520 <__wrap___aeabi_dcmplt>
10003cca:	2800      	cmp	r0, #0
10003ccc:	f47f ae7c 	bne.w	100039c8 <_etoa+0xa8>
10003cd0:	f1ba 0f00 	cmp.w	sl, #0
10003cd4:	f43f ae86 	beq.w	100039e4 <_etoa+0xc4>
10003cd8:	9b13      	ldr	r3, [sp, #76]	@ 0x4c
10003cda:	2b00      	cmp	r3, #0
10003cdc:	f43f ae82 	beq.w	100039e4 <_etoa+0xc4>
10003ce0:	f10a 3aff 	add.w	sl, sl, #4294967295
10003ce4:	e67e      	b.n	100039e4 <_etoa+0xc4>
10003ce6:	2200      	movs	r2, #0
10003ce8:	4b1e      	ldr	r3, [pc, #120]	@ (10003d64 <_etoa+0x444>)
10003cea:	4640      	mov	r0, r8
10003cec:	4649      	mov	r1, r9
10003cee:	f7ff fb6f 	bl	100033d0 <__wrap___aeabi_ddiv>
10003cf2:	460a      	mov	r2, r1
10003cf4:	4601      	mov	r1, r0
10003cf6:	4603      	mov	r3, r0
10003cf8:	e9cd 120e 	strd	r1, r2, [sp, #56]	@ 0x38
10003cfc:	3f01      	subs	r7, #1
10003cfe:	4611      	mov	r1, r2
10003d00:	e7c5      	b.n	10003c8e <_etoa+0x36e>
10003d02:	ed9f 7b13 	vldr	d7, [pc, #76]	@ 10003d50 <_etoa+0x430>
10003d06:	4617      	mov	r7, r2
10003d08:	f04f 0904 	mov.w	r9, #4
10003d0c:	ed8d 7b0e 	vstr	d7, [sp, #56]	@ 0x38
10003d10:	e668      	b.n	100039e4 <_etoa+0xc4>
10003d12:	f108 4300 	add.w	r3, r8, #2147483648	@ 0x80000000
10003d16:	970a      	str	r7, [sp, #40]	@ 0x28
10003d18:	930b      	str	r3, [sp, #44]	@ 0x2c
10003d1a:	e63c      	b.n	10003996 <_etoa+0x76>
10003d1c:	f3af 8000 	nop.w
10003d20:	636f4361 	.word	0x636f4361
10003d24:	3fd287a7 	.word	0x3fd287a7
10003d28:	0979a371 	.word	0x0979a371
10003d2c:	400a934f 	.word	0x400a934f
10003d30:	bbb55516 	.word	0xbbb55516
10003d34:	40026bb1 	.word	0x40026bb1
10003d38:	fefa39ef 	.word	0xfefa39ef
10003d3c:	3fe62e42 	.word	0x3fe62e42
10003d40:	eb1c432d 	.word	0xeb1c432d
10003d44:	3f1a36e2 	.word	0x3f1a36e2
10003d48:	00000000 	.word	0x00000000
10003d4c:	412e8480 	.word	0x412e8480
	...
10003d58:	3ff80000 	.word	0x3ff80000
10003d5c:	3fe00000 	.word	0x3fe00000
10003d60:	402c0000 	.word	0x402c0000
10003d64:	40240000 	.word	0x40240000
10003d68:	40180000 	.word	0x40180000
10003d6c:	3ff00000 	.word	0x3ff00000
10003d70:	509f79fb 	.word	0x509f79fb
10003d74:	3fd34413 	.word	0x3fd34413
10003d78:	8b60c8b3 	.word	0x8b60c8b3
10003d7c:	3fc68a28 	.word	0x3fc68a28

10003d80 <_ftoa>:
10003d80:	e92d 4ff0 	stmdb	sp!, {r4, r5, r6, r7, r8, r9, sl, fp, lr}
10003d84:	b097      	sub	sp, #92	@ 0x5c
10003d86:	e9dd 8920 	ldrd	r8, r9, [sp, #128]	@ 0x80
10003d8a:	e9cd 0104 	strd	r0, r1, [sp, #16]
10003d8e:	e9dd 4b22 	ldrd	r4, fp, [sp, #136]	@ 0x88
10003d92:	e9cd 2306 	strd	r2, r3, [sp, #24]
10003d96:	4640      	mov	r0, r8
10003d98:	4642      	mov	r2, r8
10003d9a:	464b      	mov	r3, r9
10003d9c:	4649      	mov	r1, r9
10003d9e:	f8dd a090 	ldr.w	sl, [sp, #144]	@ 0x90
10003da2:	f7ff fbab 	bl	100034fc <__wrap___aeabi_dcmpun>
10003da6:	2800      	cmp	r0, #0
10003da8:	f040 81c5 	bne.w	10004136 <_ftoa+0x3b6>
10003dac:	4640      	mov	r0, r8
10003dae:	4649      	mov	r1, r9
10003db0:	f04f 32ff 	mov.w	r2, #4294967295
10003db4:	f46f 1380 	mvn.w	r3, #1048576	@ 0x100000
10003db8:	f7ff fbb2 	bl	10003520 <__wrap___aeabi_dcmplt>
10003dbc:	2800      	cmp	r0, #0
10003dbe:	f040 811d 	bne.w	10003ffc <_ftoa+0x27c>
10003dc2:	4640      	mov	r0, r8
10003dc4:	4649      	mov	r1, r9
10003dc6:	f04f 32ff 	mov.w	r2, #4294967295
10003dca:	4bc1      	ldr	r3, [pc, #772]	@ (100040d0 <_ftoa+0x350>)
10003dcc:	f7ff fbd0 	bl	10003570 <__wrap___aeabi_dcmpgt>
10003dd0:	2800      	cmp	r0, #0
10003dd2:	f040 80e3 	bne.w	10003f9c <_ftoa+0x21c>
10003dd6:	a3b8      	add	r3, pc, #736	@ (adr r3, 100040b8 <_ftoa+0x338>)
10003dd8:	e9d3 2300 	ldrd	r2, r3, [r3]
10003ddc:	4640      	mov	r0, r8
10003dde:	4649      	mov	r1, r9
10003de0:	f7ff fbc6 	bl	10003570 <__wrap___aeabi_dcmpgt>
10003de4:	2800      	cmp	r0, #0
10003de6:	f040 80cb 	bne.w	10003f80 <_ftoa+0x200>
10003dea:	a3b5      	add	r3, pc, #724	@ (adr r3, 100040c0 <_ftoa+0x340>)
10003dec:	e9d3 2300 	ldrd	r2, r3, [r3]
10003df0:	4640      	mov	r0, r8
10003df2:	4649      	mov	r1, r9
10003df4:	f7ff fb94 	bl	10003520 <__wrap___aeabi_dcmplt>
10003df8:	2800      	cmp	r0, #0
10003dfa:	f040 80c1 	bne.w	10003f80 <_ftoa+0x200>
10003dfe:	4640      	mov	r0, r8
10003e00:	4649      	mov	r1, r9
10003e02:	2200      	movs	r2, #0
10003e04:	2300      	movs	r3, #0
10003e06:	f7ff fb8b 	bl	10003520 <__wrap___aeabi_dcmplt>
10003e0a:	2800      	cmp	r0, #0
10003e0c:	f040 80e0 	bne.w	10003fd0 <_ftoa+0x250>
10003e10:	f41a 6580 	ands.w	r5, sl, #1024	@ 0x400
10003e14:	900d      	str	r0, [sp, #52]	@ 0x34
10003e16:	f000 80e9 	beq.w	10003fec <_ftoa+0x26c>
10003e1a:	2c09      	cmp	r4, #9
10003e1c:	f240 8196 	bls.w	1000414c <_ftoa+0x3cc>
10003e20:	ab0e      	add	r3, sp, #56	@ 0x38
10003e22:	461a      	mov	r2, r3
10003e24:	930c      	str	r3, [sp, #48]	@ 0x30
10003e26:	2130      	movs	r1, #48	@ 0x30
10003e28:	2300      	movs	r3, #0
10003e2a:	f1a4 0509 	sub.w	r5, r4, #9
10003e2e:	3301      	adds	r3, #1
10003e30:	2b20      	cmp	r3, #32
10003e32:	f802 1b01 	strb.w	r1, [r2], #1
10003e36:	eba4 0603 	sub.w	r6, r4, r3
10003e3a:	f000 813a 	beq.w	100040b2 <_ftoa+0x332>
10003e3e:	42ab      	cmp	r3, r5
10003e40:	d1f5      	bne.n	10003e2e <_ftoa+0xae>
10003e42:	ed9f 7b9d 	vldr	d7, [pc, #628]	@ 100040b8 <_ftoa+0x338>
10003e46:	ed8d 7b08 	vstr	d7, [sp, #32]
10003e4a:	4649      	mov	r1, r9
10003e4c:	4640      	mov	r0, r8
10003e4e:	f7ff fb31 	bl	100034b4 <__wrap___aeabi_d2iz>
10003e52:	4604      	mov	r4, r0
10003e54:	f7ff fb0a 	bl	1000346c <__wrap___aeabi_i2d>
10003e58:	4602      	mov	r2, r0
10003e5a:	460b      	mov	r3, r1
10003e5c:	4640      	mov	r0, r8
10003e5e:	4649      	mov	r1, r9
10003e60:	f7ff fa7c 	bl	1000335c <__wrap___aeabi_dsub>
10003e64:	e9dd 2308 	ldrd	r2, r3, [sp, #32]
10003e68:	f7ff fa8c 	bl	10003384 <__wrap___aeabi_dmul>
10003e6c:	4602      	mov	r2, r0
10003e6e:	460b      	mov	r3, r1
10003e70:	e9cd 230a 	strd	r2, r3, [sp, #40]	@ 0x28
10003e74:	f7ff fb30 	bl	100034d8 <__wrap___aeabi_d2uiz>
10003e78:	4607      	mov	r7, r0
10003e7a:	f7ff fb09 	bl	10003490 <__wrap___aeabi_ui2d>
10003e7e:	4602      	mov	r2, r0
10003e80:	460b      	mov	r3, r1
10003e82:	e9dd 010a 	ldrd	r0, r1, [sp, #40]	@ 0x28
10003e86:	f7ff fa69 	bl	1000335c <__wrap___aeabi_dsub>
10003e8a:	4602      	mov	r2, r0
10003e8c:	460b      	mov	r3, r1
10003e8e:	e9cd 230a 	strd	r2, r3, [sp, #40]	@ 0x28
10003e92:	2200      	movs	r2, #0
10003e94:	4b8f      	ldr	r3, [pc, #572]	@ (100040d4 <_ftoa+0x354>)
10003e96:	f7ff fb6b 	bl	10003570 <__wrap___aeabi_dcmpgt>
10003e9a:	2800      	cmp	r0, #0
10003e9c:	f000 80db 	beq.w	10004056 <_ftoa+0x2d6>
10003ea0:	3701      	adds	r7, #1
10003ea2:	4638      	mov	r0, r7
10003ea4:	f7ff faf4 	bl	10003490 <__wrap___aeabi_ui2d>
10003ea8:	e9dd 2308 	ldrd	r2, r3, [sp, #32]
10003eac:	f7ff fb4c 	bl	10003548 <__wrap___aeabi_dcmpge>
10003eb0:	b108      	cbz	r0, 10003eb6 <_ftoa+0x136>
10003eb2:	2700      	movs	r7, #0
10003eb4:	3401      	adds	r4, #1
10003eb6:	2e00      	cmp	r6, #0
10003eb8:	f040 80b1 	bne.w	1000401e <_ftoa+0x29e>
10003ebc:	4620      	mov	r0, r4
10003ebe:	f7ff fad5 	bl	1000346c <__wrap___aeabi_i2d>
10003ec2:	4602      	mov	r2, r0
10003ec4:	460b      	mov	r3, r1
10003ec6:	4640      	mov	r0, r8
10003ec8:	4649      	mov	r1, r9
10003eca:	f7ff fa47 	bl	1000335c <__wrap___aeabi_dsub>
10003ece:	2200      	movs	r2, #0
10003ed0:	4b80      	ldr	r3, [pc, #512]	@ (100040d4 <_ftoa+0x354>)
10003ed2:	4606      	mov	r6, r0
10003ed4:	460f      	mov	r7, r1
10003ed6:	f7ff fb23 	bl	10003520 <__wrap___aeabi_dcmplt>
10003eda:	b940      	cbnz	r0, 10003eee <_ftoa+0x16e>
10003edc:	4630      	mov	r0, r6
10003ede:	4639      	mov	r1, r7
10003ee0:	2200      	movs	r2, #0
10003ee2:	4b7c      	ldr	r3, [pc, #496]	@ (100040d4 <_ftoa+0x354>)
10003ee4:	f7ff fb44 	bl	10003570 <__wrap___aeabi_dcmpgt>
10003ee8:	2800      	cmp	r0, #0
10003eea:	f000 8115 	beq.w	10004118 <_ftoa+0x398>
10003eee:	9b0c      	ldr	r3, [sp, #48]	@ 0x30
10003ef0:	1e69      	subs	r1, r5, #1
10003ef2:	4879      	ldr	r0, [pc, #484]	@ (100040d8 <_ftoa+0x358>)
10003ef4:	4419      	add	r1, r3
10003ef6:	e010      	b.n	10003f1a <_ftoa+0x19a>
10003ef8:	fb80 6204 	smull	r6, r2, r0, r4
10003efc:	ebc3 03a2 	rsb	r3, r3, r2, asr #2
10003f00:	eb03 0283 	add.w	r2, r3, r3, lsl #2
10003f04:	eba4 0442 	sub.w	r4, r4, r2, lsl #1
10003f08:	f104 0230 	add.w	r2, r4, #48	@ 0x30
10003f0c:	3501      	adds	r5, #1
10003f0e:	461c      	mov	r4, r3
10003f10:	f801 2f01 	strb.w	r2, [r1, #1]!
10003f14:	2b00      	cmp	r3, #0
10003f16:	f000 80ab 	beq.w	10004070 <_ftoa+0x2f0>
10003f1a:	2d20      	cmp	r5, #32
10003f1c:	ea4f 73e4 	mov.w	r3, r4, asr #31
10003f20:	d1ea      	bne.n	10003ef8 <_ftoa+0x178>
10003f22:	f00a 0303 	and.w	r3, sl, #3
10003f26:	2b01      	cmp	r3, #1
10003f28:	d11c      	bne.n	10003f64 <_ftoa+0x1e4>
10003f2a:	f1bb 0f00 	cmp.w	fp, #0
10003f2e:	d019      	beq.n	10003f64 <_ftoa+0x1e4>
10003f30:	9b0d      	ldr	r3, [sp, #52]	@ 0x34
10003f32:	2b00      	cmp	r3, #0
10003f34:	f040 80f9 	bne.w	1000412a <_ftoa+0x3aa>
10003f38:	f01a 0f0c 	tst.w	sl, #12
10003f3c:	f040 80f5 	bne.w	1000412a <_ftoa+0x3aa>
10003f40:	45ab      	cmp	fp, r5
10003f42:	f240 80d3 	bls.w	100040ec <_ftoa+0x36c>
10003f46:	2d20      	cmp	r5, #32
10003f48:	d00b      	beq.n	10003f62 <_ftoa+0x1e2>
10003f4a:	2230      	movs	r2, #48	@ 0x30
10003f4c:	990c      	ldr	r1, [sp, #48]	@ 0x30
10003f4e:	1e6b      	subs	r3, r5, #1
10003f50:	440b      	add	r3, r1
10003f52:	3501      	adds	r5, #1
10003f54:	455d      	cmp	r5, fp
10003f56:	f803 2f01 	strb.w	r2, [r3, #1]!
10003f5a:	f000 808d 	beq.w	10004078 <_ftoa+0x2f8>
10003f5e:	2d20      	cmp	r5, #32
10003f60:	d1f7      	bne.n	10003f52 <_ftoa+0x1d2>
10003f62:	2520      	movs	r5, #32
10003f64:	e9dd 2306 	ldrd	r2, r3, [sp, #24]
10003f68:	e9dd 0104 	ldrd	r0, r1, [sp, #16]
10003f6c:	9c0c      	ldr	r4, [sp, #48]	@ 0x30
10003f6e:	e9cd ba02 	strd	fp, sl, [sp, #8]
10003f72:	9501      	str	r5, [sp, #4]
10003f74:	9400      	str	r4, [sp, #0]
10003f76:	f7ff fb2d 	bl	100035d4 <_out_rev>
10003f7a:	b017      	add	sp, #92	@ 0x5c
10003f7c:	e8bd 8ff0 	ldmia.w	sp!, {r4, r5, r6, r7, r8, r9, sl, fp, pc}
10003f80:	e9cd 8920 	strd	r8, r9, [sp, #128]	@ 0x80
10003f84:	e9dd 2306 	ldrd	r2, r3, [sp, #24]
10003f88:	e9dd 0104 	ldrd	r0, r1, [sp, #16]
10003f8c:	e9cd ba23 	strd	fp, sl, [sp, #140]	@ 0x8c
10003f90:	9422      	str	r4, [sp, #136]	@ 0x88
10003f92:	b017      	add	sp, #92	@ 0x5c
10003f94:	e8bd 4ff0 	ldmia.w	sp!, {r4, r5, r6, r7, r8, r9, sl, fp, lr}
10003f98:	f7ff bcc2 	b.w	10003920 <_etoa>
10003f9c:	4d4f      	ldr	r5, [pc, #316]	@ (100040dc <_ftoa+0x35c>)
10003f9e:	f8cd a08c 	str.w	sl, [sp, #140]	@ 0x8c
10003fa2:	f00a 0a04 	and.w	sl, sl, #4
10003fa6:	f1ba 0f00 	cmp.w	sl, #0
10003faa:	4c4d      	ldr	r4, [pc, #308]	@ (100040e0 <_ftoa+0x360>)
10003fac:	bf18      	it	ne
10003fae:	462c      	movne	r4, r5
10003fb0:	e9dd 2306 	ldrd	r2, r3, [sp, #24]
10003fb4:	e9dd 0104 	ldrd	r0, r1, [sp, #16]
10003fb8:	9420      	str	r4, [sp, #128]	@ 0x80
10003fba:	bf0c      	ite	eq
10003fbc:	2403      	moveq	r4, #3
10003fbe:	2404      	movne	r4, #4
10003fc0:	f8cd b088 	str.w	fp, [sp, #136]	@ 0x88
10003fc4:	9421      	str	r4, [sp, #132]	@ 0x84
10003fc6:	b017      	add	sp, #92	@ 0x5c
10003fc8:	e8bd 4ff0 	ldmia.w	sp!, {r4, r5, r6, r7, r8, r9, sl, fp, lr}
10003fcc:	f7ff bb02 	b.w	100035d4 <_out_rev>
10003fd0:	464b      	mov	r3, r9
10003fd2:	4642      	mov	r2, r8
10003fd4:	2000      	movs	r0, #0
10003fd6:	2100      	movs	r1, #0
10003fd8:	f7ff f9c0 	bl	1000335c <__wrap___aeabi_dsub>
10003fdc:	2301      	movs	r3, #1
10003fde:	f41a 6580 	ands.w	r5, sl, #1024	@ 0x400
10003fe2:	4680      	mov	r8, r0
10003fe4:	4689      	mov	r9, r1
10003fe6:	930d      	str	r3, [sp, #52]	@ 0x34
10003fe8:	f47f af17 	bne.w	10003e1a <_ftoa+0x9a>
10003fec:	ed9f 7b36 	vldr	d7, [pc, #216]	@ 100040c8 <_ftoa+0x348>
10003ff0:	ab0e      	add	r3, sp, #56	@ 0x38
10003ff2:	2606      	movs	r6, #6
10003ff4:	ed8d 7b08 	vstr	d7, [sp, #32]
10003ff8:	930c      	str	r3, [sp, #48]	@ 0x30
10003ffa:	e726      	b.n	10003e4a <_ftoa+0xca>
10003ffc:	2404      	movs	r4, #4
10003ffe:	e9dd 2306 	ldrd	r2, r3, [sp, #24]
10004002:	e9dd 0104 	ldrd	r0, r1, [sp, #16]
10004006:	4d37      	ldr	r5, [pc, #220]	@ (100040e4 <_ftoa+0x364>)
10004008:	f8cd a08c 	str.w	sl, [sp, #140]	@ 0x8c
1000400c:	f8cd b088 	str.w	fp, [sp, #136]	@ 0x88
10004010:	9520      	str	r5, [sp, #128]	@ 0x80
10004012:	9421      	str	r4, [sp, #132]	@ 0x84
10004014:	b017      	add	sp, #92	@ 0x5c
10004016:	e8bd 4ff0 	ldmia.w	sp!, {r4, r5, r6, r7, r8, r9, sl, fp, lr}
1000401a:	f7ff badb 	b.w	100035d4 <_out_rev>
1000401e:	9b0c      	ldr	r3, [sp, #48]	@ 0x30
10004020:	1e68      	subs	r0, r5, #1
10004022:	f8df c0c4 	ldr.w	ip, [pc, #196]	@ 100040e8 <_ftoa+0x368>
10004026:	4418      	add	r0, r3
10004028:	e00d      	b.n	10004046 <_ftoa+0x2c6>
1000402a:	fbac 2107 	umull	r2, r1, ip, r7
1000402e:	08c9      	lsrs	r1, r1, #3
10004030:	eb01 0281 	add.w	r2, r1, r1, lsl #2
10004034:	eba7 0242 	sub.w	r2, r7, r2, lsl #1
10004038:	3230      	adds	r2, #48	@ 0x30
1000403a:	2f09      	cmp	r7, #9
1000403c:	f800 2f01 	strb.w	r2, [r0, #1]!
10004040:	d927      	bls.n	10004092 <_ftoa+0x312>
10004042:	460f      	mov	r7, r1
10004044:	461d      	mov	r5, r3
10004046:	2d20      	cmp	r5, #32
10004048:	f105 0301 	add.w	r3, r5, #1
1000404c:	f106 36ff 	add.w	r6, r6, #4294967295
10004050:	d1eb      	bne.n	1000402a <_ftoa+0x2aa>
10004052:	2520      	movs	r5, #32
10004054:	e74b      	b.n	10003eee <_ftoa+0x16e>
10004056:	2200      	movs	r2, #0
10004058:	e9dd 010a 	ldrd	r0, r1, [sp, #40]	@ 0x28
1000405c:	4b1d      	ldr	r3, [pc, #116]	@ (100040d4 <_ftoa+0x354>)
1000405e:	f7ff fa5f 	bl	10003520 <__wrap___aeabi_dcmplt>
10004062:	2800      	cmp	r0, #0
10004064:	f47f af27 	bne.w	10003eb6 <_ftoa+0x136>
10004068:	2f00      	cmp	r7, #0
1000406a:	d15a      	bne.n	10004122 <_ftoa+0x3a2>
1000406c:	3701      	adds	r7, #1
1000406e:	e722      	b.n	10003eb6 <_ftoa+0x136>
10004070:	f00a 0303 	and.w	r3, sl, #3
10004074:	2b01      	cmp	r3, #1
10004076:	d075      	beq.n	10004164 <_ftoa+0x3e4>
10004078:	2d20      	cmp	r5, #32
1000407a:	f43f af73 	beq.w	10003f64 <_ftoa+0x1e4>
1000407e:	9b0d      	ldr	r3, [sp, #52]	@ 0x34
10004080:	b3bb      	cbz	r3, 100040f2 <_ftoa+0x372>
10004082:	222d      	movs	r2, #45	@ 0x2d
10004084:	f105 0358 	add.w	r3, r5, #88	@ 0x58
10004088:	446b      	add	r3, sp
1000408a:	f803 2c20 	strb.w	r2, [r3, #-32]
1000408e:	3501      	adds	r5, #1
10004090:	e768      	b.n	10003f64 <_ftoa+0x1e4>
10004092:	2b20      	cmp	r3, #32
10004094:	d0dd      	beq.n	10004052 <_ftoa+0x2d2>
10004096:	b3ae      	cbz	r6, 10004104 <_ftoa+0x384>
10004098:	9a0c      	ldr	r2, [sp, #48]	@ 0x30
1000409a:	441e      	add	r6, r3
1000409c:	4415      	add	r5, r2
1000409e:	2230      	movs	r2, #48	@ 0x30
100040a0:	e001      	b.n	100040a6 <_ftoa+0x326>
100040a2:	42b3      	cmp	r3, r6
100040a4:	d02e      	beq.n	10004104 <_ftoa+0x384>
100040a6:	3301      	adds	r3, #1
100040a8:	2b20      	cmp	r3, #32
100040aa:	f805 2f01 	strb.w	r2, [r5, #1]!
100040ae:	d1f8      	bne.n	100040a2 <_ftoa+0x322>
100040b0:	e7cf      	b.n	10004052 <_ftoa+0x2d2>
100040b2:	461d      	mov	r5, r3
100040b4:	e6c5      	b.n	10003e42 <_ftoa+0xc2>
100040b6:	bf00      	nop
100040b8:	00000000 	.word	0x00000000
100040bc:	41cdcd65 	.word	0x41cdcd65
100040c0:	00000000 	.word	0x00000000
100040c4:	c1cdcd65 	.word	0xc1cdcd65
100040c8:	00000000 	.word	0x00000000
100040cc:	412e8480 	.word	0x412e8480
100040d0:	7fefffff 	.word	0x7fefffff
100040d4:	3fe00000 	.word	0x3fe00000
100040d8:	66666667 	.word	0x66666667
100040dc:	10007f08 	.word	0x10007f08
100040e0:	10007f10 	.word	0x10007f10
100040e4:	10007f18 	.word	0x10007f18
100040e8:	cccccccd 	.word	0xcccccccd
100040ec:	2d20      	cmp	r5, #32
100040ee:	f43f af39 	beq.w	10003f64 <_ftoa+0x1e4>
100040f2:	f01a 0f04 	tst.w	sl, #4
100040f6:	d10d      	bne.n	10004114 <_ftoa+0x394>
100040f8:	f01a 0f08 	tst.w	sl, #8
100040fc:	f43f af32 	beq.w	10003f64 <_ftoa+0x1e4>
10004100:	2220      	movs	r2, #32
10004102:	e7bf      	b.n	10004084 <_ftoa+0x304>
10004104:	212e      	movs	r1, #46	@ 0x2e
10004106:	f103 0258 	add.w	r2, r3, #88	@ 0x58
1000410a:	446a      	add	r2, sp
1000410c:	f802 1c20 	strb.w	r1, [r2, #-32]
10004110:	1c5d      	adds	r5, r3, #1
10004112:	e6ec      	b.n	10003eee <_ftoa+0x16e>
10004114:	222b      	movs	r2, #43	@ 0x2b
10004116:	e7b5      	b.n	10004084 <_ftoa+0x304>
10004118:	07e3      	lsls	r3, r4, #31
1000411a:	f57f aee8 	bpl.w	10003eee <_ftoa+0x16e>
1000411e:	3401      	adds	r4, #1
10004120:	e6e5      	b.n	10003eee <_ftoa+0x16e>
10004122:	07fa      	lsls	r2, r7, #31
10004124:	f57f aec7 	bpl.w	10003eb6 <_ftoa+0x136>
10004128:	e7a0      	b.n	1000406c <_ftoa+0x2ec>
1000412a:	f10b 3bff 	add.w	fp, fp, #4294967295
1000412e:	45ab      	cmp	fp, r5
10004130:	f63f af09 	bhi.w	10003f46 <_ftoa+0x1c6>
10004134:	e7a0      	b.n	10004078 <_ftoa+0x2f8>
10004136:	2403      	movs	r4, #3
10004138:	e9dd 2306 	ldrd	r2, r3, [sp, #24]
1000413c:	e9dd 0104 	ldrd	r0, r1, [sp, #16]
10004140:	4d0a      	ldr	r5, [pc, #40]	@ (1000416c <_ftoa+0x3ec>)
10004142:	f8cd a08c 	str.w	sl, [sp, #140]	@ 0x8c
10004146:	f8cd b088 	str.w	fp, [sp, #136]	@ 0x88
1000414a:	e761      	b.n	10004010 <_ftoa+0x290>
1000414c:	4b08      	ldr	r3, [pc, #32]	@ (10004170 <_ftoa+0x3f0>)
1000414e:	4626      	mov	r6, r4
10004150:	eb03 03c4 	add.w	r3, r3, r4, lsl #3
10004154:	ed93 7b00 	vldr	d7, [r3]
10004158:	ab0e      	add	r3, sp, #56	@ 0x38
1000415a:	ed8d 7b08 	vstr	d7, [sp, #32]
1000415e:	2500      	movs	r5, #0
10004160:	930c      	str	r3, [sp, #48]	@ 0x30
10004162:	e672      	b.n	10003e4a <_ftoa+0xca>
10004164:	f1bb 0f00 	cmp.w	fp, #0
10004168:	d086      	beq.n	10004078 <_ftoa+0x2f8>
1000416a:	e6e1      	b.n	10003f30 <_ftoa+0x1b0>
1000416c:	10007f14 	.word	0x10007f14
10004170:	10008288 	.word	0x10008288

10004174 <_vsnprintf>:
10004174:	e92d 4ff0 	stmdb	sp!, {r4, r5, r6, r7, r8, r9, sl, fp, lr}
10004178:	469a      	mov	sl, r3
1000417a:	b09b      	sub	sp, #108	@ 0x6c
1000417c:	9c24      	ldr	r4, [sp, #144]	@ 0x90
1000417e:	4d96      	ldr	r5, [pc, #600]	@ (100043d8 <_vsnprintf+0x264>)
10004180:	940b      	str	r4, [sp, #44]	@ 0x2c
10004182:	4c96      	ldr	r4, [pc, #600]	@ (100043dc <_vsnprintf+0x268>)
10004184:	1e0b      	subs	r3, r1, #0
10004186:	bf18      	it	ne
10004188:	4683      	movne	fp, r0
1000418a:	6025      	str	r5, [r4, #0]
1000418c:	f89a 0000 	ldrb.w	r0, [sl]
10004190:	4c93      	ldr	r4, [pc, #588]	@ (100043e0 <_vsnprintf+0x26c>)
10004192:	930a      	str	r3, [sp, #40]	@ 0x28
10004194:	bf08      	it	eq
10004196:	46a3      	moveq	fp, r4
10004198:	9209      	str	r2, [sp, #36]	@ 0x24
1000419a:	2800      	cmp	r0, #0
1000419c:	f000 82bc 	beq.w	10004718 <_vsnprintf+0x5a4>
100041a0:	f04f 0900 	mov.w	r9, #0
100041a4:	e00a      	b.n	100041bc <_vsnprintf+0x48>
100041a6:	464a      	mov	r2, r9
100041a8:	9b09      	ldr	r3, [sp, #36]	@ 0x24
100041aa:	990a      	ldr	r1, [sp, #40]	@ 0x28
100041ac:	f109 0901 	add.w	r9, r9, #1
100041b0:	47d8      	blx	fp
100041b2:	f89a 0000 	ldrb.w	r0, [sl]
100041b6:	2800      	cmp	r0, #0
100041b8:	f000 80ce 	beq.w	10004358 <_vsnprintf+0x1e4>
100041bc:	2825      	cmp	r0, #37	@ 0x25
100041be:	f10a 0a01 	add.w	sl, sl, #1
100041c2:	d1f0      	bne.n	100041a6 <_vsnprintf+0x32>
100041c4:	2300      	movs	r3, #0
100041c6:	4652      	mov	r2, sl
100041c8:	f812 0b01 	ldrb.w	r0, [r2], #1
100041cc:	f1a0 0120 	sub.w	r1, r0, #32
100041d0:	2910      	cmp	r1, #16
100041d2:	d80a      	bhi.n	100041ea <_vsnprintf+0x76>
100041d4:	e8df f001 	tbb	[pc, r1]
100041d8:	3c090940 	.word	0x3c090940
100041dc:	09090909 	.word	0x09090909
100041e0:	38090909 	.word	0x38090909
100041e4:	09093409 	.word	0x09093409
100041e8:	30          	.byte	0x30
100041e9:	00          	.byte	0x00
100041ea:	f1a0 0130 	sub.w	r1, r0, #48	@ 0x30
100041ee:	2909      	cmp	r1, #9
100041f0:	f240 808c 	bls.w	1000430c <_vsnprintf+0x198>
100041f4:	282a      	cmp	r0, #42	@ 0x2a
100041f6:	f000 80f5 	beq.w	100043e4 <_vsnprintf+0x270>
100041fa:	2100      	movs	r1, #0
100041fc:	910c      	str	r1, [sp, #48]	@ 0x30
100041fe:	282e      	cmp	r0, #46	@ 0x2e
10004200:	f000 8099 	beq.w	10004336 <_vsnprintf+0x1c2>
10004204:	2700      	movs	r7, #0
10004206:	f1a0 0168 	sub.w	r1, r0, #104	@ 0x68
1000420a:	2912      	cmp	r1, #18
1000420c:	d82d      	bhi.n	1000426a <_vsnprintf+0xf6>
1000420e:	e8df f011 	tbh	[pc, r1, lsl #1]
10004212:	0157      	.short	0x0157
10004214:	0151002c 	.word	0x0151002c
10004218:	0145002c 	.word	0x0145002c
1000421c:	002c002c 	.word	0x002c002c
10004220:	002c002c 	.word	0x002c002c
10004224:	002c002c 	.word	0x002c002c
10004228:	0027002c 	.word	0x0027002c
1000422c:	002c002c 	.word	0x002c002c
10004230:	002c002c 	.word	0x002c002c
10004234:	0027002c 	.word	0x0027002c
10004238:	4692      	mov	sl, r2
1000423a:	f043 0301 	orr.w	r3, r3, #1
1000423e:	e7c2      	b.n	100041c6 <_vsnprintf+0x52>
10004240:	4692      	mov	sl, r2
10004242:	f043 0302 	orr.w	r3, r3, #2
10004246:	e7be      	b.n	100041c6 <_vsnprintf+0x52>
10004248:	4692      	mov	sl, r2
1000424a:	f043 0304 	orr.w	r3, r3, #4
1000424e:	e7ba      	b.n	100041c6 <_vsnprintf+0x52>
10004250:	4692      	mov	sl, r2
10004252:	f043 0310 	orr.w	r3, r3, #16
10004256:	e7b6      	b.n	100041c6 <_vsnprintf+0x52>
10004258:	4692      	mov	sl, r2
1000425a:	f043 0308 	orr.w	r3, r3, #8
1000425e:	e7b2      	b.n	100041c6 <_vsnprintf+0x52>
10004260:	f89a 0001 	ldrb.w	r0, [sl, #1]
10004264:	f443 7380 	orr.w	r3, r3, #256	@ 0x100
10004268:	3201      	adds	r2, #1
1000426a:	2867      	cmp	r0, #103	@ 0x67
1000426c:	4692      	mov	sl, r2
1000426e:	f200 8082 	bhi.w	10004376 <_vsnprintf+0x202>
10004272:	2824      	cmp	r0, #36	@ 0x24
10004274:	f240 80c6 	bls.w	10004404 <_vsnprintf+0x290>
10004278:	f1a0 0225 	sub.w	r2, r0, #37	@ 0x25
1000427c:	2a42      	cmp	r2, #66	@ 0x42
1000427e:	f200 80c1 	bhi.w	10004404 <_vsnprintf+0x290>
10004282:	e8df f012 	tbh	[pc, r2, lsl #1]
10004286:	015f      	.short	0x015f
10004288:	00bf00bf 	.word	0x00bf00bf
1000428c:	00bf00bf 	.word	0x00bf00bf
10004290:	00bf00bf 	.word	0x00bf00bf
10004294:	00bf00bf 	.word	0x00bf00bf
10004298:	00bf00bf 	.word	0x00bf00bf
1000429c:	00bf00bf 	.word	0x00bf00bf
100042a0:	00bf00bf 	.word	0x00bf00bf
100042a4:	00bf00bf 	.word	0x00bf00bf
100042a8:	00bf00bf 	.word	0x00bf00bf
100042ac:	00bf00bf 	.word	0x00bf00bf
100042b0:	00bf00bf 	.word	0x00bf00bf
100042b4:	00bf00bf 	.word	0x00bf00bf
100042b8:	00bf00bf 	.word	0x00bf00bf
100042bc:	00bf00bf 	.word	0x00bf00bf
100042c0:	00bf00bf 	.word	0x00bf00bf
100042c4:	012600bf 	.word	0x012600bf
100042c8:	01260145 	.word	0x01260145
100042cc:	00bf00bf 	.word	0x00bf00bf
100042d0:	00bf00bf 	.word	0x00bf00bf
100042d4:	00bf00bf 	.word	0x00bf00bf
100042d8:	00bf00bf 	.word	0x00bf00bf
100042dc:	00bf00bf 	.word	0x00bf00bf
100042e0:	00bf00bf 	.word	0x00bf00bf
100042e4:	00bf00bf 	.word	0x00bf00bf
100042e8:	00bf00bf 	.word	0x00bf00bf
100042ec:	00bf01d3 	.word	0x00bf01d3
100042f0:	00bf00bf 	.word	0x00bf00bf
100042f4:	00bf00bf 	.word	0x00bf00bf
100042f8:	00bf00bf 	.word	0x00bf00bf
100042fc:	00bf00bf 	.word	0x00bf00bf
10004300:	016701d3 	.word	0x016701d3
10004304:	012601d3 	.word	0x012601d3
10004308:	01260145 	.word	0x01260145
1000430c:	2100      	movs	r1, #0
1000430e:	e000      	b.n	10004312 <_vsnprintf+0x19e>
10004310:	3201      	adds	r2, #1
10004312:	eb01 0181 	add.w	r1, r1, r1, lsl #2
10004316:	eb00 0141 	add.w	r1, r0, r1, lsl #1
1000431a:	7810      	ldrb	r0, [r2, #0]
1000431c:	4692      	mov	sl, r2
1000431e:	f1a0 0430 	sub.w	r4, r0, #48	@ 0x30
10004322:	2c09      	cmp	r4, #9
10004324:	f1a1 0130 	sub.w	r1, r1, #48	@ 0x30
10004328:	d9f2      	bls.n	10004310 <_vsnprintf+0x19c>
1000432a:	282e      	cmp	r0, #46	@ 0x2e
1000432c:	910c      	str	r1, [sp, #48]	@ 0x30
1000432e:	f102 0201 	add.w	r2, r2, #1
10004332:	f47f af67 	bne.w	10004204 <_vsnprintf+0x90>
10004336:	f89a 0001 	ldrb.w	r0, [sl, #1]
1000433a:	4611      	mov	r1, r2
1000433c:	f1a0 0630 	sub.w	r6, r0, #48	@ 0x30
10004340:	2e09      	cmp	r6, #9
10004342:	f443 6380 	orr.w	r3, r3, #1024	@ 0x400
10004346:	f240 8131 	bls.w	100045ac <_vsnprintf+0x438>
1000434a:	282a      	cmp	r0, #42	@ 0x2a
1000434c:	f000 813e 	beq.w	100045cc <_vsnprintf+0x458>
10004350:	4692      	mov	sl, r2
10004352:	2700      	movs	r7, #0
10004354:	3201      	adds	r2, #1
10004356:	e756      	b.n	10004206 <_vsnprintf+0x92>
10004358:	464c      	mov	r4, r9
1000435a:	9b09      	ldr	r3, [sp, #36]	@ 0x24
1000435c:	4599      	cmp	r9, r3
1000435e:	d301      	bcc.n	10004364 <_vsnprintf+0x1f0>
10004360:	f103 39ff 	add.w	r9, r3, #4294967295
10004364:	464a      	mov	r2, r9
10004366:	2000      	movs	r0, #0
10004368:	9b09      	ldr	r3, [sp, #36]	@ 0x24
1000436a:	990a      	ldr	r1, [sp, #40]	@ 0x28
1000436c:	47d8      	blx	fp
1000436e:	4620      	mov	r0, r4
10004370:	b01b      	add	sp, #108	@ 0x6c
10004372:	e8bd 8ff0 	ldmia.w	sp!, {r4, r5, r6, r7, r8, r9, sl, fp, pc}
10004376:	f1a0 0269 	sub.w	r2, r0, #105	@ 0x69
1000437a:	b2d2      	uxtb	r2, r2
1000437c:	2a0f      	cmp	r2, #15
1000437e:	d841      	bhi.n	10004404 <_vsnprintf+0x290>
10004380:	2601      	movs	r6, #1
10004382:	f249 0141 	movw	r1, #36929	@ 0x9041
10004386:	4096      	lsls	r6, r2
10004388:	400e      	ands	r6, r1
1000438a:	f040 8101 	bne.w	10004590 <_vsnprintf+0x41c>
1000438e:	2a0a      	cmp	r2, #10
10004390:	d03f      	beq.n	10004412 <_vsnprintf+0x29e>
10004392:	2a07      	cmp	r2, #7
10004394:	d136      	bne.n	10004404 <_vsnprintf+0x290>
10004396:	9c0b      	ldr	r4, [sp, #44]	@ 0x2c
10004398:	f854 2b04 	ldr.w	r2, [r4], #4
1000439c:	2a00      	cmp	r2, #0
1000439e:	f000 8128 	beq.w	100045f2 <_vsnprintf+0x47e>
100043a2:	f043 0121 	orr.w	r1, r3, #33	@ 0x21
100043a6:	f10d 0e48 	add.w	lr, sp, #72	@ 0x48
100043aa:	4670      	mov	r0, lr
100043ac:	e003      	b.n	100043b6 <_vsnprintf+0x242>
100043ae:	2e20      	cmp	r6, #32
100043b0:	f000 8129 	beq.w	10004606 <_vsnprintf+0x492>
100043b4:	461a      	mov	r2, r3
100043b6:	f002 050f 	and.w	r5, r2, #15
100043ba:	462b      	mov	r3, r5
100043bc:	2d09      	cmp	r5, #9
100043be:	bf94      	ite	ls
100043c0:	3330      	addls	r3, #48	@ 0x30
100043c2:	3337      	addhi	r3, #55	@ 0x37
100043c4:	2a0f      	cmp	r2, #15
100043c6:	f800 3b01 	strb.w	r3, [r0], #1
100043ca:	f106 0601 	add.w	r6, r6, #1
100043ce:	ea4f 1312 	mov.w	r3, r2, lsr #4
100043d2:	d8ec      	bhi.n	100043ae <_vsnprintf+0x23a>
100043d4:	e117      	b.n	10004606 <_vsnprintf+0x492>
100043d6:	bf00      	nop
100043d8:	10004175 	.word	0x10004175
100043dc:	20042920 	.word	0x20042920
100043e0:	100035d1 	.word	0x100035d1
100043e4:	9c0b      	ldr	r4, [sp, #44]	@ 0x2c
100043e6:	f89a 0001 	ldrb.w	r0, [sl, #1]
100043ea:	f854 5b04 	ldr.w	r5, [r4], #4
100043ee:	4692      	mov	sl, r2
100043f0:	2d00      	cmp	r5, #0
100043f2:	bfbd      	ittte	lt
100043f4:	4269      	neglt	r1, r5
100043f6:	f043 0302 	orrlt.w	r3, r3, #2
100043fa:	910c      	strlt	r1, [sp, #48]	@ 0x30
100043fc:	950c      	strge	r5, [sp, #48]	@ 0x30
100043fe:	940b      	str	r4, [sp, #44]	@ 0x2c
10004400:	3201      	adds	r2, #1
10004402:	e6fc      	b.n	100041fe <_vsnprintf+0x8a>
10004404:	464a      	mov	r2, r9
10004406:	9b09      	ldr	r3, [sp, #36]	@ 0x24
10004408:	990a      	ldr	r1, [sp, #40]	@ 0x28
1000440a:	f109 0901 	add.w	r9, r9, #1
1000440e:	47d8      	blx	fp
10004410:	e6cf      	b.n	100041b2 <_vsnprintf+0x3e>
10004412:	990b      	ldr	r1, [sp, #44]	@ 0x2c
10004414:	f851 8b04 	ldr.w	r8, [r1], #4
10004418:	f898 2000 	ldrb.w	r2, [r8]
1000441c:	4610      	mov	r0, r2
1000441e:	2f00      	cmp	r7, #0
10004420:	f040 80e1 	bne.w	100045e6 <_vsnprintf+0x472>
10004424:	b172      	cbz	r2, 10004444 <_vsnprintf+0x2d0>
10004426:	f06f 0c01 	mvn.w	ip, #1
1000442a:	f10c 0c01 	add.w	ip, ip, #1
1000442e:	4646      	mov	r6, r8
10004430:	44c4      	add	ip, r8
10004432:	e001      	b.n	10004438 <_vsnprintf+0x2c4>
10004434:	4566      	cmp	r6, ip
10004436:	d003      	beq.n	10004440 <_vsnprintf+0x2cc>
10004438:	f816 4f01 	ldrb.w	r4, [r6, #1]!
1000443c:	2c00      	cmp	r4, #0
1000443e:	d1f9      	bne.n	10004434 <_vsnprintf+0x2c0>
10004440:	eba6 0608 	sub.w	r6, r6, r8
10004444:	f413 6c80 	ands.w	ip, r3, #1024	@ 0x400
10004448:	d002      	beq.n	10004450 <_vsnprintf+0x2dc>
1000444a:	42be      	cmp	r6, r7
1000444c:	bf28      	it	cs
1000444e:	463e      	movcs	r6, r7
10004450:	f013 0402 	ands.w	r4, r3, #2
10004454:	f000 8187 	beq.w	10004766 <_vsnprintf+0x5f2>
10004458:	2a00      	cmp	r2, #0
1000445a:	f000 812b 	beq.w	100046b4 <_vsnprintf+0x540>
1000445e:	f1bc 0f00 	cmp.w	ip, #0
10004462:	f000 8141 	beq.w	100046e8 <_vsnprintf+0x574>
10004466:	940b      	str	r4, [sp, #44]	@ 0x2c
10004468:	960d      	str	r6, [sp, #52]	@ 0x34
1000446a:	464a      	mov	r2, r9
1000446c:	e9dd 5409 	ldrd	r5, r4, [sp, #36]	@ 0x24
10004470:	460e      	mov	r6, r1
10004472:	444f      	add	r7, r9
10004474:	e008      	b.n	10004488 <_vsnprintf+0x314>
10004476:	462b      	mov	r3, r5
10004478:	4621      	mov	r1, r4
1000447a:	47d8      	blx	fp
1000447c:	f818 0f01 	ldrb.w	r0, [r8, #1]!
10004480:	f109 0901 	add.w	r9, r9, #1
10004484:	b110      	cbz	r0, 1000448c <_vsnprintf+0x318>
10004486:	464a      	mov	r2, r9
10004488:	454f      	cmp	r7, r9
1000448a:	d1f4      	bne.n	10004476 <_vsnprintf+0x302>
1000448c:	4631      	mov	r1, r6
1000448e:	9c0b      	ldr	r4, [sp, #44]	@ 0x2c
10004490:	9e0d      	ldr	r6, [sp, #52]	@ 0x34
10004492:	2c00      	cmp	r4, #0
10004494:	f040 810e 	bne.w	100046b4 <_vsnprintf+0x540>
10004498:	910b      	str	r1, [sp, #44]	@ 0x2c
1000449a:	e68a      	b.n	100041b2 <_vsnprintf+0x3e>
1000449c:	f89a 0001 	ldrb.w	r0, [sl, #1]
100044a0:	286c      	cmp	r0, #108	@ 0x6c
100044a2:	f47f aedf 	bne.w	10004264 <_vsnprintf+0xf0>
100044a6:	f89a 0002 	ldrb.w	r0, [sl, #2]
100044aa:	f443 7340 	orr.w	r3, r3, #768	@ 0x300
100044ae:	f10a 0203 	add.w	r2, sl, #3
100044b2:	e6da      	b.n	1000426a <_vsnprintf+0xf6>
100044b4:	f89a 0001 	ldrb.w	r0, [sl, #1]
100044b8:	f443 7300 	orr.w	r3, r3, #512	@ 0x200
100044bc:	3201      	adds	r2, #1
100044be:	e6d4      	b.n	1000426a <_vsnprintf+0xf6>
100044c0:	f89a 0001 	ldrb.w	r0, [sl, #1]
100044c4:	2868      	cmp	r0, #104	@ 0x68
100044c6:	f000 8120 	beq.w	1000470a <_vsnprintf+0x596>
100044ca:	f043 0380 	orr.w	r3, r3, #128	@ 0x80
100044ce:	3201      	adds	r2, #1
100044d0:	e6cb      	b.n	1000426a <_vsnprintf+0xf6>
100044d2:	2867      	cmp	r0, #103	@ 0x67
100044d4:	f000 80e7 	beq.w	100046a6 <_vsnprintf+0x532>
100044d8:	2847      	cmp	r0, #71	@ 0x47
100044da:	f000 8100 	beq.w	100046de <_vsnprintf+0x56a>
100044de:	2845      	cmp	r0, #69	@ 0x45
100044e0:	f000 80ff 	beq.w	100046e2 <_vsnprintf+0x56e>
100044e4:	9c0b      	ldr	r4, [sp, #44]	@ 0x2c
100044e6:	9304      	str	r3, [sp, #16]
100044e8:	9b0c      	ldr	r3, [sp, #48]	@ 0x30
100044ea:	3407      	adds	r4, #7
100044ec:	e9cd 7302 	strd	r7, r3, [sp, #8]
100044f0:	f024 0307 	bic.w	r3, r4, #7
100044f4:	461c      	mov	r4, r3
100044f6:	e9dd 3109 	ldrd	r3, r1, [sp, #36]	@ 0x24
100044fa:	e8f4 6702 	ldrd	r6, r7, [r4], #8
100044fe:	464a      	mov	r2, r9
10004500:	4658      	mov	r0, fp
10004502:	e9cd 6700 	strd	r6, r7, [sp]
10004506:	940b      	str	r4, [sp, #44]	@ 0x2c
10004508:	f7ff fa0a 	bl	10003920 <_etoa>
1000450c:	4681      	mov	r9, r0
1000450e:	e650      	b.n	100041b2 <_vsnprintf+0x3e>
10004510:	2846      	cmp	r0, #70	@ 0x46
10004512:	9c0b      	ldr	r4, [sp, #44]	@ 0x2c
10004514:	bf08      	it	eq
10004516:	f043 0320 	orreq.w	r3, r3, #32
1000451a:	9304      	str	r3, [sp, #16]
1000451c:	9b0c      	ldr	r3, [sp, #48]	@ 0x30
1000451e:	3407      	adds	r4, #7
10004520:	e9cd 7302 	strd	r7, r3, [sp, #8]
10004524:	f024 0307 	bic.w	r3, r4, #7
10004528:	461c      	mov	r4, r3
1000452a:	e9dd 3109 	ldrd	r3, r1, [sp, #36]	@ 0x24
1000452e:	e8f4 6702 	ldrd	r6, r7, [r4], #8
10004532:	464a      	mov	r2, r9
10004534:	4658      	mov	r0, fp
10004536:	e9cd 6700 	strd	r6, r7, [sp]
1000453a:	940b      	str	r4, [sp, #44]	@ 0x2c
1000453c:	f7ff fc20 	bl	10003d80 <_ftoa>
10004540:	4681      	mov	r9, r0
10004542:	e636      	b.n	100041b2 <_vsnprintf+0x3e>
10004544:	464a      	mov	r2, r9
10004546:	2025      	movs	r0, #37	@ 0x25
10004548:	9b09      	ldr	r3, [sp, #36]	@ 0x24
1000454a:	990a      	ldr	r1, [sp, #40]	@ 0x28
1000454c:	f109 0901 	add.w	r9, r9, #1
10004550:	47d8      	blx	fp
10004552:	e62e      	b.n	100041b2 <_vsnprintf+0x3e>
10004554:	9a0b      	ldr	r2, [sp, #44]	@ 0x2c
10004556:	079c      	lsls	r4, r3, #30
10004558:	f102 0704 	add.w	r7, r2, #4
1000455c:	f109 0601 	add.w	r6, r9, #1
10004560:	f140 80e6 	bpl.w	10004730 <_vsnprintf+0x5bc>
10004564:	7810      	ldrb	r0, [r2, #0]
10004566:	9b09      	ldr	r3, [sp, #36]	@ 0x24
10004568:	464a      	mov	r2, r9
1000456a:	990a      	ldr	r1, [sp, #40]	@ 0x28
1000456c:	47d8      	blx	fp
1000456e:	9b0c      	ldr	r3, [sp, #48]	@ 0x30
10004570:	2b01      	cmp	r3, #1
10004572:	f240 812c 	bls.w	100047ce <_vsnprintf+0x65a>
10004576:	e9dd 5409 	ldrd	r5, r4, [sp, #36]	@ 0x24
1000457a:	4499      	add	r9, r3
1000457c:	4632      	mov	r2, r6
1000457e:	462b      	mov	r3, r5
10004580:	4621      	mov	r1, r4
10004582:	2020      	movs	r0, #32
10004584:	3601      	adds	r6, #1
10004586:	47d8      	blx	fp
10004588:	454e      	cmp	r6, r9
1000458a:	d1f7      	bne.n	1000457c <_vsnprintf+0x408>
1000458c:	970b      	str	r7, [sp, #44]	@ 0x2c
1000458e:	e610      	b.n	100041b2 <_vsnprintf+0x3e>
10004590:	286f      	cmp	r0, #111	@ 0x6f
10004592:	f000 808b 	beq.w	100046ac <_vsnprintf+0x538>
10004596:	f240 8165 	bls.w	10004864 <_vsnprintf+0x6f0>
1000459a:	2878      	cmp	r0, #120	@ 0x78
1000459c:	f000 8108 	beq.w	100047b0 <_vsnprintf+0x63c>
100045a0:	f04f 080a 	mov.w	r8, #10
100045a4:	f023 0310 	bic.w	r3, r3, #16
100045a8:	46c4      	mov	ip, r8
100045aa:	e047      	b.n	1000463c <_vsnprintf+0x4c8>
100045ac:	2700      	movs	r7, #0
100045ae:	eb07 0787 	add.w	r7, r7, r7, lsl #2
100045b2:	eb00 0047 	add.w	r0, r0, r7, lsl #1
100045b6:	f1a0 0730 	sub.w	r7, r0, #48	@ 0x30
100045ba:	f811 0f01 	ldrb.w	r0, [r1, #1]!
100045be:	f1a0 0230 	sub.w	r2, r0, #48	@ 0x30
100045c2:	2a09      	cmp	r2, #9
100045c4:	d9f3      	bls.n	100045ae <_vsnprintf+0x43a>
100045c6:	468a      	mov	sl, r1
100045c8:	1c4a      	adds	r2, r1, #1
100045ca:	e61c      	b.n	10004206 <_vsnprintf+0x92>
100045cc:	9c0b      	ldr	r4, [sp, #44]	@ 0x2c
100045ce:	f89a 0002 	ldrb.w	r0, [sl, #2]
100045d2:	f854 7b04 	ldr.w	r7, [r4], #4
100045d6:	f10a 0a02 	add.w	sl, sl, #2
100045da:	f10a 0201 	add.w	r2, sl, #1
100045de:	940b      	str	r4, [sp, #44]	@ 0x2c
100045e0:	ea27 77e7 	bic.w	r7, r7, r7, asr #31
100045e4:	e60f      	b.n	10004206 <_vsnprintf+0x92>
100045e6:	2a00      	cmp	r2, #0
100045e8:	f43f af2c 	beq.w	10004444 <_vsnprintf+0x2d0>
100045ec:	f107 3cff 	add.w	ip, r7, #4294967295
100045f0:	e71b      	b.n	1000442a <_vsnprintf+0x2b6>
100045f2:	f023 0110 	bic.w	r1, r3, #16
100045f6:	f413 6280 	ands.w	r2, r3, #1024	@ 0x400
100045fa:	f041 0121 	orr.w	r1, r1, #33	@ 0x21
100045fe:	f43f aed2 	beq.w	100043a6 <_vsnprintf+0x232>
10004602:	f10d 0e48 	add.w	lr, sp, #72	@ 0x48
10004606:	2308      	movs	r3, #8
10004608:	2010      	movs	r0, #16
1000460a:	9305      	str	r3, [sp, #20]
1000460c:	2300      	movs	r3, #0
1000460e:	464a      	mov	r2, r9
10004610:	e9cd 3002 	strd	r3, r0, [sp, #8]
10004614:	9106      	str	r1, [sp, #24]
10004616:	4658      	mov	r0, fp
10004618:	e9dd 3109 	ldrd	r3, r1, [sp, #36]	@ 0x24
1000461c:	e9cd e600 	strd	lr, r6, [sp]
10004620:	9704      	str	r7, [sp, #16]
10004622:	f7ff f825 	bl	10003670 <_ntoa_format>
10004626:	940b      	str	r4, [sp, #44]	@ 0x2c
10004628:	4681      	mov	r9, r0
1000462a:	e5c2      	b.n	100041b2 <_vsnprintf+0x3e>
1000462c:	2858      	cmp	r0, #88	@ 0x58
1000462e:	d079      	beq.n	10004724 <_vsnprintf+0x5b0>
10004630:	2862      	cmp	r0, #98	@ 0x62
10004632:	f040 8251 	bne.w	10004ad8 <_vsnprintf+0x964>
10004636:	f04f 0802 	mov.w	r8, #2
1000463a:	46c4      	mov	ip, r8
1000463c:	f413 6080 	ands.w	r0, r3, #1024	@ 0x400
10004640:	d16d      	bne.n	1000471e <_vsnprintf+0x5aa>
10004642:	f023 030c 	bic.w	r3, r3, #12
10004646:	f413 7200 	ands.w	r2, r3, #512	@ 0x200
1000464a:	f040 80c2 	bne.w	100047d2 <_vsnprintf+0x65e>
1000464e:	990b      	ldr	r1, [sp, #44]	@ 0x2c
10004650:	3104      	adds	r1, #4
10004652:	910d      	str	r1, [sp, #52]	@ 0x34
10004654:	f413 7180 	ands.w	r1, r3, #256	@ 0x100
10004658:	f040 822e 	bne.w	10004ab8 <_vsnprintf+0x944>
1000465c:	065e      	lsls	r6, r3, #25
1000465e:	9a0b      	ldr	r2, [sp, #44]	@ 0x2c
10004660:	f140 80aa 	bpl.w	100047b8 <_vsnprintf+0x644>
10004664:	7812      	ldrb	r2, [r2, #0]
10004666:	2a00      	cmp	r2, #0
10004668:	f040 80da 	bne.w	10004820 <_vsnprintf+0x6ac>
1000466c:	f023 0310 	bic.w	r3, r3, #16
10004670:	2800      	cmp	r0, #0
10004672:	f000 80d5 	beq.w	10004820 <_vsnprintf+0x6ac>
10004676:	4611      	mov	r1, r2
10004678:	f10d 0e48 	add.w	lr, sp, #72	@ 0x48
1000467c:	9306      	str	r3, [sp, #24]
1000467e:	9b0c      	ldr	r3, [sp, #48]	@ 0x30
10004680:	f8cd c00c 	str.w	ip, [sp, #12]
10004684:	e9cd 7304 	strd	r7, r3, [sp, #16]
10004688:	9101      	str	r1, [sp, #4]
1000468a:	2300      	movs	r3, #0
1000468c:	464a      	mov	r2, r9
1000468e:	9302      	str	r3, [sp, #8]
10004690:	4658      	mov	r0, fp
10004692:	e9dd 3109 	ldrd	r3, r1, [sp, #36]	@ 0x24
10004696:	f8cd e000 	str.w	lr, [sp]
1000469a:	f7fe ffe9 	bl	10003670 <_ntoa_format>
1000469e:	9b0d      	ldr	r3, [sp, #52]	@ 0x34
100046a0:	4681      	mov	r9, r0
100046a2:	930b      	str	r3, [sp, #44]	@ 0x2c
100046a4:	e585      	b.n	100041b2 <_vsnprintf+0x3e>
100046a6:	f443 6300 	orr.w	r3, r3, #2048	@ 0x800
100046aa:	e71b      	b.n	100044e4 <_vsnprintf+0x370>
100046ac:	f04f 0808 	mov.w	r8, #8
100046b0:	46c4      	mov	ip, r8
100046b2:	e7c3      	b.n	1000463c <_vsnprintf+0x4c8>
100046b4:	9b0c      	ldr	r3, [sp, #48]	@ 0x30
100046b6:	464c      	mov	r4, r9
100046b8:	42b3      	cmp	r3, r6
100046ba:	f67f aeed 	bls.w	10004498 <_vsnprintf+0x324>
100046be:	460f      	mov	r7, r1
100046c0:	444b      	add	r3, r9
100046c2:	eba3 0906 	sub.w	r9, r3, r6
100046c6:	e9dd 6509 	ldrd	r6, r5, [sp, #36]	@ 0x24
100046ca:	4622      	mov	r2, r4
100046cc:	4633      	mov	r3, r6
100046ce:	4629      	mov	r1, r5
100046d0:	2020      	movs	r0, #32
100046d2:	3401      	adds	r4, #1
100046d4:	47d8      	blx	fp
100046d6:	454c      	cmp	r4, r9
100046d8:	d1f7      	bne.n	100046ca <_vsnprintf+0x556>
100046da:	4639      	mov	r1, r7
100046dc:	e6dc      	b.n	10004498 <_vsnprintf+0x324>
100046de:	f443 6300 	orr.w	r3, r3, #2048	@ 0x800
100046e2:	f043 0320 	orr.w	r3, r3, #32
100046e6:	e6fd      	b.n	100044e4 <_vsnprintf+0x370>
100046e8:	460f      	mov	r7, r1
100046ea:	940b      	str	r4, [sp, #44]	@ 0x2c
100046ec:	e9dd 5409 	ldrd	r5, r4, [sp, #36]	@ 0x24
100046f0:	464a      	mov	r2, r9
100046f2:	462b      	mov	r3, r5
100046f4:	4621      	mov	r1, r4
100046f6:	47d8      	blx	fp
100046f8:	f818 0f01 	ldrb.w	r0, [r8, #1]!
100046fc:	f109 0901 	add.w	r9, r9, #1
10004700:	2800      	cmp	r0, #0
10004702:	d1f5      	bne.n	100046f0 <_vsnprintf+0x57c>
10004704:	4639      	mov	r1, r7
10004706:	9c0b      	ldr	r4, [sp, #44]	@ 0x2c
10004708:	e6c3      	b.n	10004492 <_vsnprintf+0x31e>
1000470a:	f89a 0002 	ldrb.w	r0, [sl, #2]
1000470e:	f043 03c0 	orr.w	r3, r3, #192	@ 0xc0
10004712:	f10a 0203 	add.w	r2, sl, #3
10004716:	e5a8      	b.n	1000426a <_vsnprintf+0xf6>
10004718:	4604      	mov	r4, r0
1000471a:	4681      	mov	r9, r0
1000471c:	e61d      	b.n	1000435a <_vsnprintf+0x1e6>
1000471e:	f023 030d 	bic.w	r3, r3, #13
10004722:	e790      	b.n	10004646 <_vsnprintf+0x4d2>
10004724:	f04f 0810 	mov.w	r8, #16
10004728:	f043 0320 	orr.w	r3, r3, #32
1000472c:	46c4      	mov	ip, r8
1000472e:	e785      	b.n	1000463c <_vsnprintf+0x4c8>
10004730:	9b0c      	ldr	r3, [sp, #48]	@ 0x30
10004732:	2b01      	cmp	r3, #1
10004734:	d945      	bls.n	100047c2 <_vsnprintf+0x64e>
10004736:	e9dd 5409 	ldrd	r5, r4, [sp, #36]	@ 0x24
1000473a:	464e      	mov	r6, r9
1000473c:	f109 38ff 	add.w	r8, r9, #4294967295
10004740:	4498      	add	r8, r3
10004742:	4632      	mov	r2, r6
10004744:	462b      	mov	r3, r5
10004746:	4621      	mov	r1, r4
10004748:	2020      	movs	r0, #32
1000474a:	3601      	adds	r6, #1
1000474c:	47d8      	blx	fp
1000474e:	4546      	cmp	r6, r8
10004750:	d1f7      	bne.n	10004742 <_vsnprintf+0x5ce>
10004752:	9b0c      	ldr	r3, [sp, #48]	@ 0x30
10004754:	4632      	mov	r2, r6
10004756:	4499      	add	r9, r3
10004758:	9b0b      	ldr	r3, [sp, #44]	@ 0x2c
1000475a:	7818      	ldrb	r0, [r3, #0]
1000475c:	e9dd 3109 	ldrd	r3, r1, [sp, #36]	@ 0x24
10004760:	47d8      	blx	fp
10004762:	970b      	str	r7, [sp, #44]	@ 0x2c
10004764:	e525      	b.n	100041b2 <_vsnprintf+0x3e>
10004766:	9b0c      	ldr	r3, [sp, #48]	@ 0x30
10004768:	42b3      	cmp	r3, r6
1000476a:	f240 81ee 	bls.w	10004b4a <_vsnprintf+0x9d6>
1000476e:	e9cd 480d 	strd	r4, r8, [sp, #52]	@ 0x34
10004772:	e9dd 5409 	ldrd	r5, r4, [sp, #36]	@ 0x24
10004776:	4688      	mov	r8, r1
10004778:	444b      	add	r3, r9
1000477a:	1b9e      	subs	r6, r3, r6
1000477c:	f8cd c02c 	str.w	ip, [sp, #44]	@ 0x2c
10004780:	464a      	mov	r2, r9
10004782:	462b      	mov	r3, r5
10004784:	4621      	mov	r1, r4
10004786:	2020      	movs	r0, #32
10004788:	f109 0901 	add.w	r9, r9, #1
1000478c:	47d8      	blx	fp
1000478e:	45b1      	cmp	r9, r6
10004790:	d1f6      	bne.n	10004780 <_vsnprintf+0x60c>
10004792:	4641      	mov	r1, r8
10004794:	f8dd 8038 	ldr.w	r8, [sp, #56]	@ 0x38
10004798:	9b0c      	ldr	r3, [sp, #48]	@ 0x30
1000479a:	f8dd c02c 	ldr.w	ip, [sp, #44]	@ 0x2c
1000479e:	9c0d      	ldr	r4, [sp, #52]	@ 0x34
100047a0:	f898 2000 	ldrb.w	r2, [r8]
100047a4:	1c5e      	adds	r6, r3, #1
100047a6:	4610      	mov	r0, r2
100047a8:	2a00      	cmp	r2, #0
100047aa:	f47f ae58 	bne.w	1000445e <_vsnprintf+0x2ea>
100047ae:	e673      	b.n	10004498 <_vsnprintf+0x324>
100047b0:	f04f 0810 	mov.w	r8, #16
100047b4:	46c4      	mov	ip, r8
100047b6:	e741      	b.n	1000463c <_vsnprintf+0x4c8>
100047b8:	061d      	lsls	r5, r3, #24
100047ba:	bf4c      	ite	mi
100047bc:	8812      	ldrhmi	r2, [r2, #0]
100047be:	6812      	ldrpl	r2, [r2, #0]
100047c0:	e751      	b.n	10004666 <_vsnprintf+0x4f2>
100047c2:	4613      	mov	r3, r2
100047c4:	464a      	mov	r2, r9
100047c6:	7818      	ldrb	r0, [r3, #0]
100047c8:	e9dd 3109 	ldrd	r3, r1, [sp, #36]	@ 0x24
100047cc:	47d8      	blx	fp
100047ce:	46b1      	mov	r9, r6
100047d0:	e6dc      	b.n	1000458c <_vsnprintf+0x418>
100047d2:	9c0b      	ldr	r4, [sp, #44]	@ 0x2c
100047d4:	3407      	adds	r4, #7
100047d6:	f024 0407 	bic.w	r4, r4, #7
100047da:	4622      	mov	r2, r4
100047dc:	6865      	ldr	r5, [r4, #4]
100047de:	f852 4b08 	ldr.w	r4, [r2], #8
100047e2:	920b      	str	r2, [sp, #44]	@ 0x2c
100047e4:	ea54 0205 	orrs.w	r2, r4, r5
100047e8:	f040 812c 	bne.w	10004a44 <_vsnprintf+0x8d0>
100047ec:	f023 0310 	bic.w	r3, r3, #16
100047f0:	2800      	cmp	r0, #0
100047f2:	f000 8127 	beq.w	10004a44 <_vsnprintf+0x8d0>
100047f6:	2600      	movs	r6, #0
100047f8:	f10d 0e48 	add.w	lr, sp, #72	@ 0x48
100047fc:	9306      	str	r3, [sp, #24]
100047fe:	9b0c      	ldr	r3, [sp, #48]	@ 0x30
10004800:	464a      	mov	r2, r9
10004802:	e9cd 7304 	strd	r7, r3, [sp, #16]
10004806:	2300      	movs	r3, #0
10004808:	e9cd e600 	strd	lr, r6, [sp]
1000480c:	f8cd c00c 	str.w	ip, [sp, #12]
10004810:	9302      	str	r3, [sp, #8]
10004812:	4658      	mov	r0, fp
10004814:	e9dd 3109 	ldrd	r3, r1, [sp, #36]	@ 0x24
10004818:	f7fe ff2a 	bl	10003670 <_ntoa_format>
1000481c:	4681      	mov	r9, r0
1000481e:	e4c8      	b.n	100041b2 <_vsnprintf+0x3e>
10004820:	f013 0f20 	tst.w	r3, #32
10004824:	bf14      	ite	ne
10004826:	2041      	movne	r0, #65	@ 0x41
10004828:	2061      	moveq	r0, #97	@ 0x61
1000482a:	f10d 0e48 	add.w	lr, sp, #72	@ 0x48
1000482e:	4676      	mov	r6, lr
10004830:	f1a0 080a 	sub.w	r8, r0, #10
10004834:	e003      	b.n	1000483e <_vsnprintf+0x6ca>
10004836:	2920      	cmp	r1, #32
10004838:	f43f af20 	beq.w	1000467c <_vsnprintf+0x508>
1000483c:	4622      	mov	r2, r4
1000483e:	fbb2 f4fc 	udiv	r4, r2, ip
10004842:	fb0c 2514 	mls	r5, ip, r4, r2
10004846:	b2e8      	uxtb	r0, r5
10004848:	2d09      	cmp	r5, #9
1000484a:	f100 0530 	add.w	r5, r0, #48	@ 0x30
1000484e:	bf8a      	itet	hi
10004850:	4440      	addhi	r0, r8
10004852:	b2e8      	uxtbls	r0, r5
10004854:	b2c0      	uxtbhi	r0, r0
10004856:	4562      	cmp	r2, ip
10004858:	f806 0b01 	strb.w	r0, [r6], #1
1000485c:	f101 0101 	add.w	r1, r1, #1
10004860:	d2e9      	bcs.n	10004836 <_vsnprintf+0x6c2>
10004862:	e70b      	b.n	1000467c <_vsnprintf+0x508>
10004864:	f023 0210 	bic.w	r2, r3, #16
10004868:	2869      	cmp	r0, #105	@ 0x69
1000486a:	920d      	str	r2, [sp, #52]	@ 0x34
1000486c:	f040 816f 	bne.w	10004b4e <_vsnprintf+0x9da>
10004870:	f413 6280 	ands.w	r2, r3, #1024	@ 0x400
10004874:	d004      	beq.n	10004880 <_vsnprintf+0x70c>
10004876:	f44f 6280 	mov.w	r2, #1024	@ 0x400
1000487a:	f023 0311 	bic.w	r3, r3, #17
1000487e:	930d      	str	r3, [sp, #52]	@ 0x34
10004880:	9b0d      	ldr	r3, [sp, #52]	@ 0x34
10004882:	f413 7600 	ands.w	r6, r3, #512	@ 0x200
10004886:	d140      	bne.n	1000490a <_vsnprintf+0x796>
10004888:	9b0b      	ldr	r3, [sp, #44]	@ 0x2c
1000488a:	f103 0804 	add.w	r8, r3, #4
1000488e:	9b0d      	ldr	r3, [sp, #52]	@ 0x34
10004890:	f413 7080 	ands.w	r0, r3, #256	@ 0x100
10004894:	f040 8098 	bne.w	100049c8 <_vsnprintf+0x854>
10004898:	0659      	lsls	r1, r3, #25
1000489a:	f140 80c6 	bpl.w	10004a2a <_vsnprintf+0x8b6>
1000489e:	9b0b      	ldr	r3, [sp, #44]	@ 0x2c
100048a0:	7819      	ldrb	r1, [r3, #0]
100048a2:	460c      	mov	r4, r1
100048a4:	0fcb      	lsrs	r3, r1, #31
100048a6:	2900      	cmp	r1, #0
100048a8:	f000 80b9 	beq.w	10004a1e <_vsnprintf+0x8aa>
100048ac:	4622      	mov	r2, r4
100048ae:	f10d 0e48 	add.w	lr, sp, #72	@ 0x48
100048b2:	4674      	mov	r4, lr
100048b4:	4616      	mov	r6, r2
100048b6:	f8df c2a0 	ldr.w	ip, [pc, #672]	@ 10004b58 <_vsnprintf+0x9e4>
100048ba:	e001      	b.n	100048c0 <_vsnprintf+0x74c>
100048bc:	2820      	cmp	r0, #32
100048be:	d00f      	beq.n	100048e0 <_vsnprintf+0x76c>
100048c0:	4635      	mov	r5, r6
100048c2:	fbac 2106 	umull	r2, r1, ip, r6
100048c6:	08c9      	lsrs	r1, r1, #3
100048c8:	eb01 0281 	add.w	r2, r1, r1, lsl #2
100048cc:	eba6 0242 	sub.w	r2, r6, r2, lsl #1
100048d0:	3230      	adds	r2, #48	@ 0x30
100048d2:	2d09      	cmp	r5, #9
100048d4:	460e      	mov	r6, r1
100048d6:	f100 0001 	add.w	r0, r0, #1
100048da:	f804 2b01 	strb.w	r2, [r4], #1
100048de:	d8ed      	bhi.n	100048bc <_vsnprintf+0x748>
100048e0:	9a0d      	ldr	r2, [sp, #52]	@ 0x34
100048e2:	e9cd 0301 	strd	r0, r3, [sp, #4]
100048e6:	9206      	str	r2, [sp, #24]
100048e8:	9a0c      	ldr	r2, [sp, #48]	@ 0x30
100048ea:	e9cd 7204 	strd	r7, r2, [sp, #16]
100048ee:	230a      	movs	r3, #10
100048f0:	464a      	mov	r2, r9
100048f2:	9303      	str	r3, [sp, #12]
100048f4:	4658      	mov	r0, fp
100048f6:	e9dd 3109 	ldrd	r3, r1, [sp, #36]	@ 0x24
100048fa:	f8cd e000 	str.w	lr, [sp]
100048fe:	f7fe feb7 	bl	10003670 <_ntoa_format>
10004902:	f8cd 802c 	str.w	r8, [sp, #44]	@ 0x2c
10004906:	4681      	mov	r9, r0
10004908:	e453      	b.n	100041b2 <_vsnprintf+0x3e>
1000490a:	9c0b      	ldr	r4, [sp, #44]	@ 0x2c
1000490c:	3407      	adds	r4, #7
1000490e:	f024 0407 	bic.w	r4, r4, #7
10004912:	4621      	mov	r1, r4
10004914:	4608      	mov	r0, r1
10004916:	6863      	ldr	r3, [r4, #4]
10004918:	f850 1b08 	ldr.w	r1, [r0], #8
1000491c:	0fdc      	lsrs	r4, r3, #31
1000491e:	900b      	str	r0, [sp, #44]	@ 0x2c
10004920:	ea51 0003 	orrs.w	r0, r1, r3
10004924:	f000 80c3 	beq.w	10004aae <_vsnprintf+0x93a>
10004928:	460a      	mov	r2, r1
1000492a:	1e19      	subs	r1, r3, #0
1000492c:	db48      	blt.n	100049c0 <_vsnprintf+0x84c>
1000492e:	4613      	mov	r3, r2
10004930:	f10d 0e48 	add.w	lr, sp, #72	@ 0x48
10004934:	46f4      	mov	ip, lr
10004936:	2600      	movs	r6, #0
10004938:	e9cd 940e 	strd	r9, r4, [sp, #56]	@ 0x38
1000493c:	f8df 8218 	ldr.w	r8, [pc, #536]	@ 10004b58 <_vsnprintf+0x9e4>
10004940:	e001      	b.n	10004946 <_vsnprintf+0x7d2>
10004942:	2e20      	cmp	r6, #32
10004944:	d02d      	beq.n	100049a2 <_vsnprintf+0x82e>
10004946:	185a      	adds	r2, r3, r1
10004948:	f142 0200 	adc.w	r2, r2, #0
1000494c:	fba8 5902 	umull	r5, r9, r8, r2
10004950:	f029 0503 	bic.w	r5, r9, #3
10004954:	eb05 0599 	add.w	r5, r5, r9, lsr #2
10004958:	1b52      	subs	r2, r2, r5
1000495a:	461c      	mov	r4, r3
1000495c:	1a9b      	subs	r3, r3, r2
1000495e:	f161 0500 	sbc.w	r5, r1, #0
10004962:	4608      	mov	r0, r1
10004964:	f04f 31cc 	mov.w	r1, #3435973836	@ 0xcccccccc
10004968:	fb01 f103 	mul.w	r1, r1, r3
1000496c:	fb08 1105 	mla	r1, r8, r5, r1
10004970:	fba3 5308 	umull	r5, r3, r3, r8
10004974:	4419      	add	r1, r3
10004976:	2305      	movs	r3, #5
10004978:	f005 0901 	and.w	r9, r5, #1
1000497c:	fba9 3903 	umull	r3, r9, r9, r3
10004980:	189b      	adds	r3, r3, r2
10004982:	2c0a      	cmp	r4, #10
10004984:	f103 0330 	add.w	r3, r3, #48	@ 0x30
10004988:	ea4f 0555 	mov.w	r5, r5, lsr #1
1000498c:	f170 0000 	sbcs.w	r0, r0, #0
10004990:	f80c 3b01 	strb.w	r3, [ip], #1
10004994:	f106 0601 	add.w	r6, r6, #1
10004998:	ea45 73c1 	orr.w	r3, r5, r1, lsl #31
1000499c:	ea4f 0151 	mov.w	r1, r1, lsr #1
100049a0:	d2cf      	bcs.n	10004942 <_vsnprintf+0x7ce>
100049a2:	e9dd 940e 	ldrd	r9, r4, [sp, #56]	@ 0x38
100049a6:	9b0d      	ldr	r3, [sp, #52]	@ 0x34
100049a8:	464a      	mov	r2, r9
100049aa:	9306      	str	r3, [sp, #24]
100049ac:	9b0c      	ldr	r3, [sp, #48]	@ 0x30
100049ae:	e9cd 6401 	strd	r6, r4, [sp, #4]
100049b2:	e9cd 7304 	strd	r7, r3, [sp, #16]
100049b6:	230a      	movs	r3, #10
100049b8:	f8cd e000 	str.w	lr, [sp]
100049bc:	9303      	str	r3, [sp, #12]
100049be:	e728      	b.n	10004812 <_vsnprintf+0x69e>
100049c0:	4252      	negs	r2, r2
100049c2:	eb61 0141 	sbc.w	r1, r1, r1, lsl #1
100049c6:	e7b2      	b.n	1000492e <_vsnprintf+0x7ba>
100049c8:	9b0b      	ldr	r3, [sp, #44]	@ 0x2c
100049ca:	6819      	ldr	r1, [r3, #0]
100049cc:	0fcb      	lsrs	r3, r1, #31
100049ce:	2900      	cmp	r1, #0
100049d0:	f000 80ab 	beq.w	10004b2a <_vsnprintf+0x9b6>
100049d4:	ea81 72e1 	eor.w	r2, r1, r1, asr #31
100049d8:	eba2 72e1 	sub.w	r2, r2, r1, asr #31
100049dc:	f10d 0e48 	add.w	lr, sp, #72	@ 0x48
100049e0:	4670      	mov	r0, lr
100049e2:	f8df c174 	ldr.w	ip, [pc, #372]	@ 10004b58 <_vsnprintf+0x9e4>
100049e6:	e001      	b.n	100049ec <_vsnprintf+0x878>
100049e8:	2e20      	cmp	r6, #32
100049ea:	d010      	beq.n	10004a0e <_vsnprintf+0x89a>
100049ec:	4615      	mov	r5, r2
100049ee:	fbac 4102 	umull	r4, r1, ip, r2
100049f2:	08c9      	lsrs	r1, r1, #3
100049f4:	eb01 0481 	add.w	r4, r1, r1, lsl #2
100049f8:	eba2 0444 	sub.w	r4, r2, r4, lsl #1
100049fc:	f104 0230 	add.w	r2, r4, #48	@ 0x30
10004a00:	2d09      	cmp	r5, #9
10004a02:	f800 2b01 	strb.w	r2, [r0], #1
10004a06:	f106 0601 	add.w	r6, r6, #1
10004a0a:	460a      	mov	r2, r1
10004a0c:	d8ec      	bhi.n	100049e8 <_vsnprintf+0x874>
10004a0e:	9a0d      	ldr	r2, [sp, #52]	@ 0x34
10004a10:	e9cd 6301 	strd	r6, r3, [sp, #4]
10004a14:	9206      	str	r2, [sp, #24]
10004a16:	9a0c      	ldr	r2, [sp, #48]	@ 0x30
10004a18:	e9cd 7204 	strd	r7, r2, [sp, #16]
10004a1c:	e767      	b.n	100048ee <_vsnprintf+0x77a>
10004a1e:	2a00      	cmp	r2, #0
10004a20:	f43f af45 	beq.w	100048ae <_vsnprintf+0x73a>
10004a24:	f10d 0e48 	add.w	lr, sp, #72	@ 0x48
10004a28:	e75a      	b.n	100048e0 <_vsnprintf+0x76c>
10004a2a:	f013 0f80 	tst.w	r3, #128	@ 0x80
10004a2e:	9b0b      	ldr	r3, [sp, #44]	@ 0x2c
10004a30:	f000 8081 	beq.w	10004b36 <_vsnprintf+0x9c2>
10004a34:	f9b3 1000 	ldrsh.w	r1, [r3]
10004a38:	ea81 74e1 	eor.w	r4, r1, r1, asr #31
10004a3c:	eba4 74e1 	sub.w	r4, r4, r1, asr #31
10004a40:	b2a4      	uxth	r4, r4
10004a42:	e72f      	b.n	100048a4 <_vsnprintf+0x730>
10004a44:	f013 0f20 	tst.w	r3, #32
10004a48:	bf14      	ite	ne
10004a4a:	2241      	movne	r2, #65	@ 0x41
10004a4c:	2261      	moveq	r2, #97	@ 0x61
10004a4e:	f10d 0e48 	add.w	lr, sp, #72	@ 0x48
10004a52:	3a0a      	subs	r2, #10
10004a54:	e9cd 970d 	strd	r9, r7, [sp, #52]	@ 0x34
10004a58:	f8cd b044 	str.w	fp, [sp, #68]	@ 0x44
10004a5c:	2600      	movs	r6, #0
10004a5e:	4677      	mov	r7, lr
10004a60:	46f3      	mov	fp, lr
10004a62:	4691      	mov	r9, r2
10004a64:	e9cd 3c0f 	strd	r3, ip, [sp, #60]	@ 0x3c
10004a68:	e003      	b.n	10004a72 <_vsnprintf+0x8fe>
10004a6a:	2e20      	cmp	r6, #32
10004a6c:	d017      	beq.n	10004a9e <_vsnprintf+0x92a>
10004a6e:	4604      	mov	r4, r0
10004a70:	460d      	mov	r5, r1
10004a72:	4629      	mov	r1, r5
10004a74:	4642      	mov	r2, r8
10004a76:	2300      	movs	r3, #0
10004a78:	4620      	mov	r0, r4
10004a7a:	f003 f911 	bl	10007ca0 <____aeabi_uldivmod_veneer>
10004a7e:	b2d2      	uxtb	r2, r2
10004a80:	2a09      	cmp	r2, #9
10004a82:	f102 0330 	add.w	r3, r2, #48	@ 0x30
10004a86:	bf88      	it	hi
10004a88:	eb02 0309 	addhi.w	r3, r2, r9
10004a8c:	4544      	cmp	r4, r8
10004a8e:	b2db      	uxtb	r3, r3
10004a90:	f175 0500 	sbcs.w	r5, r5, #0
10004a94:	f807 3b01 	strb.w	r3, [r7], #1
10004a98:	f106 0601 	add.w	r6, r6, #1
10004a9c:	d2e5      	bcs.n	10004a6a <_vsnprintf+0x8f6>
10004a9e:	46de      	mov	lr, fp
10004aa0:	e9dd 970d 	ldrd	r9, r7, [sp, #52]	@ 0x34
10004aa4:	e9dd 3c0f 	ldrd	r3, ip, [sp, #60]	@ 0x3c
10004aa8:	f8dd b044 	ldr.w	fp, [sp, #68]	@ 0x44
10004aac:	e6a6      	b.n	100047fc <_vsnprintf+0x688>
10004aae:	2a00      	cmp	r2, #0
10004ab0:	d147      	bne.n	10004b42 <_vsnprintf+0x9ce>
10004ab2:	4613      	mov	r3, r2
10004ab4:	4611      	mov	r1, r2
10004ab6:	e73b      	b.n	10004930 <_vsnprintf+0x7bc>
10004ab8:	990b      	ldr	r1, [sp, #44]	@ 0x2c
10004aba:	6809      	ldr	r1, [r1, #0]
10004abc:	b9a1      	cbnz	r1, 10004ae8 <_vsnprintf+0x974>
10004abe:	f023 0310 	bic.w	r3, r3, #16
10004ac2:	b188      	cbz	r0, 10004ae8 <_vsnprintf+0x974>
10004ac4:	f10d 0e48 	add.w	lr, sp, #72	@ 0x48
10004ac8:	9306      	str	r3, [sp, #24]
10004aca:	9b0c      	ldr	r3, [sp, #48]	@ 0x30
10004acc:	f8cd c00c 	str.w	ip, [sp, #12]
10004ad0:	e9cd 7304 	strd	r7, r3, [sp, #16]
10004ad4:	9201      	str	r2, [sp, #4]
10004ad6:	e5d8      	b.n	1000468a <_vsnprintf+0x516>
10004ad8:	f413 6280 	ands.w	r2, r3, #1024	@ 0x400
10004adc:	f47f aecb 	bne.w	10004876 <_vsnprintf+0x702>
10004ae0:	f023 0310 	bic.w	r3, r3, #16
10004ae4:	930d      	str	r3, [sp, #52]	@ 0x34
10004ae6:	e6cb      	b.n	10004880 <_vsnprintf+0x70c>
10004ae8:	f013 0f20 	tst.w	r3, #32
10004aec:	bf14      	ite	ne
10004aee:	2041      	movne	r0, #65	@ 0x41
10004af0:	2061      	moveq	r0, #97	@ 0x61
10004af2:	f10d 0e48 	add.w	lr, sp, #72	@ 0x48
10004af6:	4676      	mov	r6, lr
10004af8:	f1a0 080a 	sub.w	r8, r0, #10
10004afc:	e002      	b.n	10004b04 <_vsnprintf+0x990>
10004afe:	2a20      	cmp	r2, #32
10004b00:	d0e2      	beq.n	10004ac8 <_vsnprintf+0x954>
10004b02:	4621      	mov	r1, r4
10004b04:	fbb1 f4fc 	udiv	r4, r1, ip
10004b08:	fb0c 1514 	mls	r5, ip, r4, r1
10004b0c:	b2e8      	uxtb	r0, r5
10004b0e:	2d09      	cmp	r5, #9
10004b10:	f100 0530 	add.w	r5, r0, #48	@ 0x30
10004b14:	bf8a      	itet	hi
10004b16:	4440      	addhi	r0, r8
10004b18:	b2e8      	uxtbls	r0, r5
10004b1a:	b2c0      	uxtbhi	r0, r0
10004b1c:	4561      	cmp	r1, ip
10004b1e:	f806 0b01 	strb.w	r0, [r6], #1
10004b22:	f102 0201 	add.w	r2, r2, #1
10004b26:	d2ea      	bcs.n	10004afe <_vsnprintf+0x98a>
10004b28:	e7ce      	b.n	10004ac8 <_vsnprintf+0x954>
10004b2a:	2a00      	cmp	r2, #0
10004b2c:	f43f af56 	beq.w	100049dc <_vsnprintf+0x868>
10004b30:	f10d 0e48 	add.w	lr, sp, #72	@ 0x48
10004b34:	e76b      	b.n	10004a0e <_vsnprintf+0x89a>
10004b36:	6819      	ldr	r1, [r3, #0]
10004b38:	ea81 74e1 	eor.w	r4, r1, r1, asr #31
10004b3c:	eba4 74e1 	sub.w	r4, r4, r1, asr #31
10004b40:	e6b0      	b.n	100048a4 <_vsnprintf+0x730>
10004b42:	2600      	movs	r6, #0
10004b44:	f10d 0e48 	add.w	lr, sp, #72	@ 0x48
10004b48:	e72d      	b.n	100049a6 <_vsnprintf+0x832>
10004b4a:	3601      	adds	r6, #1
10004b4c:	e62b      	b.n	100047a6 <_vsnprintf+0x632>
10004b4e:	f04f 080a 	mov.w	r8, #10
10004b52:	4613      	mov	r3, r2
10004b54:	46c4      	mov	ip, r8
10004b56:	e571      	b.n	1000463c <_vsnprintf+0x4c8>
10004b58:	cccccccd 	.word	0xcccccccd

10004b5c <__wrap_snprintf>:
10004b5c:	4684      	mov	ip, r0
10004b5e:	b40c      	push	{r2, r3}
10004b60:	b510      	push	{r4, lr}
10004b62:	b084      	sub	sp, #16
10004b64:	ac06      	add	r4, sp, #24
10004b66:	f854 3b04 	ldr.w	r3, [r4], #4
10004b6a:	460a      	mov	r2, r1
10004b6c:	9400      	str	r4, [sp, #0]
10004b6e:	4661      	mov	r1, ip
10004b70:	4804      	ldr	r0, [pc, #16]	@ (10004b84 <__wrap_snprintf+0x28>)
10004b72:	9403      	str	r4, [sp, #12]
10004b74:	f7ff fafe 	bl	10004174 <_vsnprintf>
10004b78:	b004      	add	sp, #16
10004b7a:	e8bd 4010 	ldmia.w	sp!, {r4, lr}
10004b7e:	b002      	add	sp, #8
10004b80:	4770      	bx	lr
10004b82:	bf00      	nop
10004b84:	100035c9 	.word	0x100035c9

10004b88 <weak_raw_vprintf>:
10004b88:	b510      	push	{r4, lr}
10004b8a:	4b09      	ldr	r3, [pc, #36]	@ (10004bb0 <weak_raw_vprintf+0x28>)
10004b8c:	b084      	sub	sp, #16
10004b8e:	681c      	ldr	r4, [r3, #0]
10004b90:	b14c      	cbz	r4, 10004ba6 <weak_raw_vprintf+0x1e>
10004b92:	4603      	mov	r3, r0
10004b94:	9100      	str	r1, [sp, #0]
10004b96:	f04f 32ff 	mov.w	r2, #4294967295
10004b9a:	a903      	add	r1, sp, #12
10004b9c:	4805      	ldr	r0, [pc, #20]	@ (10004bb4 <weak_raw_vprintf+0x2c>)
10004b9e:	47a0      	blx	r4
10004ba0:	2001      	movs	r0, #1
10004ba2:	b004      	add	sp, #16
10004ba4:	bd10      	pop	{r4, pc}
10004ba6:	f000 f949 	bl	10004e3c <__wrap_puts>
10004baa:	4620      	mov	r0, r4
10004bac:	b004      	add	sp, #16
10004bae:	bd10      	pop	{r4, pc}
10004bb0:	20042920 	.word	0x20042920
10004bb4:	10003915 	.word	0x10003915

10004bb8 <_exit>:
10004bb8:	be00      	bkpt	0x0000
10004bba:	e7fd      	b.n	10004bb8 <_exit>

10004bbc <_sbrk>:
10004bbc:	4a07      	ldr	r2, [pc, #28]	@ (10004bdc <_sbrk+0x20>)
10004bbe:	4603      	mov	r3, r0
10004bc0:	6810      	ldr	r0, [r2, #0]
10004bc2:	b138      	cbz	r0, 10004bd4 <_sbrk+0x18>
10004bc4:	4906      	ldr	r1, [pc, #24]	@ (10004be0 <_sbrk+0x24>)
10004bc6:	4403      	add	r3, r0
10004bc8:	428b      	cmp	r3, r1
10004bca:	bf8c      	ite	hi
10004bcc:	f04f 30ff 	movhi.w	r0, #4294967295
10004bd0:	6013      	strls	r3, [r2, #0]
10004bd2:	4770      	bx	lr
10004bd4:	4903      	ldr	r1, [pc, #12]	@ (10004be4 <_sbrk+0x28>)
10004bd6:	4608      	mov	r0, r1
10004bd8:	6011      	str	r1, [r2, #0]
10004bda:	e7f3      	b.n	10004bc4 <_sbrk+0x8>
10004bdc:	20042518 	.word	0x20042518
10004be0:	20080000 	.word	0x20080000
10004be4:	200429d8 	.word	0x200429d8

10004be8 <exit>:
10004be8:	b508      	push	{r3, lr}
10004bea:	f7ff ffe5 	bl	10004bb8 <_exit>
10004bee:	bf00      	nop

10004bf0 <runtime_init>:
10004bf0:	b538      	push	{r3, r4, r5, lr}
10004bf2:	4c06      	ldr	r4, [pc, #24]	@ (10004c0c <runtime_init+0x1c>)
10004bf4:	4d06      	ldr	r5, [pc, #24]	@ (10004c10 <runtime_init+0x20>)
10004bf6:	f7fe fa81 	bl	100030fc <runtime_run_initializers>
10004bfa:	42ac      	cmp	r4, r5
10004bfc:	d204      	bcs.n	10004c08 <runtime_init+0x18>
10004bfe:	f854 3b04 	ldr.w	r3, [r4], #4
10004c02:	4798      	blx	r3
10004c04:	42ac      	cmp	r4, r5
10004c06:	d3fa      	bcc.n	10004bfe <runtime_init+0xe>
10004c08:	bd38      	pop	{r3, r4, r5, pc}
10004c0a:	bf00      	nop
10004c0c:	10007d28 	.word	0x10007d28
10004c10:	10007d30 	.word	0x10007d30

10004c14 <stdio_out_chars_no_crlf>:
10004c14:	6803      	ldr	r3, [r0, #0]
10004c16:	4608      	mov	r0, r1
10004c18:	4611      	mov	r1, r2
10004c1a:	4718      	bx	r3

10004c1c <stdio_out_chars_crlf>:
10004c1c:	7d43      	ldrb	r3, [r0, #21]
10004c1e:	e92d 47f0 	stmdb	sp!, {r4, r5, r6, r7, r8, r9, sl, lr}
10004c22:	4681      	mov	r9, r0
10004c24:	460f      	mov	r7, r1
10004c26:	4616      	mov	r6, r2
10004c28:	2b00      	cmp	r3, #0
10004c2a:	d043      	beq.n	10004cb4 <stdio_out_chars_crlf+0x98>
10004c2c:	2a00      	cmp	r2, #0
10004c2e:	dd3b      	ble.n	10004ca8 <stdio_out_chars_crlf+0x8c>
10004c30:	7d03      	ldrb	r3, [r0, #20]
10004c32:	2000      	movs	r0, #0
10004c34:	1e4d      	subs	r5, r1, #1
10004c36:	4601      	mov	r1, r0
10004c38:	f815 2f01 	ldrb.w	r2, [r5, #1]!
10004c3c:	f8df 8084 	ldr.w	r8, [pc, #132]	@ 10004cc4 <stdio_out_chars_crlf+0xa8>
10004c40:	2a0a      	cmp	r2, #10
10004c42:	f101 0401 	add.w	r4, r1, #1
10004c46:	d00e      	beq.n	10004c66 <stdio_out_chars_crlf+0x4a>
10004c48:	42a6      	cmp	r6, r4
10004c4a:	d01c      	beq.n	10004c86 <stdio_out_chars_crlf+0x6a>
10004c4c:	782b      	ldrb	r3, [r5, #0]
10004c4e:	4621      	mov	r1, r4
10004c50:	f1a3 030d 	sub.w	r3, r3, #13
10004c54:	fab3 f383 	clz	r3, r3
10004c58:	f815 2f01 	ldrb.w	r2, [r5, #1]!
10004c5c:	095b      	lsrs	r3, r3, #5
10004c5e:	2a0a      	cmp	r2, #10
10004c60:	f101 0401 	add.w	r4, r1, #1
10004c64:	d1f0      	bne.n	10004c48 <stdio_out_chars_crlf+0x2c>
10004c66:	2b00      	cmp	r3, #0
10004c68:	d1ee      	bne.n	10004c48 <stdio_out_chars_crlf+0x2c>
10004c6a:	4281      	cmp	r1, r0
10004c6c:	eba1 0100 	sub.w	r1, r1, r0
10004c70:	4438      	add	r0, r7
10004c72:	dc1b      	bgt.n	10004cac <stdio_out_chars_crlf+0x90>
10004c74:	2102      	movs	r1, #2
10004c76:	4640      	mov	r0, r8
10004c78:	f8d9 3000 	ldr.w	r3, [r9]
10004c7c:	4798      	blx	r3
10004c7e:	42a6      	cmp	r6, r4
10004c80:	d008      	beq.n	10004c94 <stdio_out_chars_crlf+0x78>
10004c82:	4620      	mov	r0, r4
10004c84:	e7e2      	b.n	10004c4c <stdio_out_chars_crlf+0x30>
10004c86:	4286      	cmp	r6, r0
10004c88:	dd04      	ble.n	10004c94 <stdio_out_chars_crlf+0x78>
10004c8a:	1a31      	subs	r1, r6, r0
10004c8c:	f8d9 3000 	ldr.w	r3, [r9]
10004c90:	4438      	add	r0, r7
10004c92:	4798      	blx	r3
10004c94:	4437      	add	r7, r6
10004c96:	f817 3c01 	ldrb.w	r3, [r7, #-1]
10004c9a:	f1a3 030d 	sub.w	r3, r3, #13
10004c9e:	fab3 f383 	clz	r3, r3
10004ca2:	095b      	lsrs	r3, r3, #5
10004ca4:	f889 3014 	strb.w	r3, [r9, #20]
10004ca8:	e8bd 87f0 	ldmia.w	sp!, {r4, r5, r6, r7, r8, r9, sl, pc}
10004cac:	f8d9 3000 	ldr.w	r3, [r9]
10004cb0:	4798      	blx	r3
10004cb2:	e7df      	b.n	10004c74 <stdio_out_chars_crlf+0x58>
10004cb4:	4638      	mov	r0, r7
10004cb6:	f8d9 3000 	ldr.w	r3, [r9]
10004cba:	4611      	mov	r1, r2
10004cbc:	e8bd 47f0 	ldmia.w	sp!, {r4, r5, r6, r7, r8, r9, sl, lr}
10004cc0:	4718      	bx	r3
10004cc2:	bf00      	nop
10004cc4:	100082d8 	.word	0x100082d8

10004cc8 <stdio_put_string>:
10004cc8:	e92d 47f0 	stmdb	sp!, {r4, r5, r6, r7, r8, r9, sl, lr}
10004ccc:	b082      	sub	sp, #8
10004cce:	460d      	mov	r5, r1
10004cd0:	4692      	mov	sl, r2
10004cd2:	4699      	mov	r9, r3
10004cd4:	4607      	mov	r7, r0
10004cd6:	f7fd fdfd 	bl	100028d4 <time_us_64>
10004cda:	f04f 36ff 	mov.w	r6, #4294967295
10004cde:	f06f 4400 	mvn.w	r4, #2147483648	@ 0x80000000
10004ce2:	4a2f      	ldr	r2, [pc, #188]	@ (10004da0 <stdio_put_string+0xd8>)
10004ce4:	1882      	adds	r2, r0, r2
10004ce6:	f141 0300 	adc.w	r3, r1, #0
10004cea:	4296      	cmp	r6, r2
10004cec:	eb74 0103 	sbcs.w	r1, r4, r3
10004cf0:	bf3c      	itt	cc
10004cf2:	4632      	movcc	r2, r6
10004cf4:	4623      	movcc	r3, r4
10004cf6:	482b      	ldr	r0, [pc, #172]	@ (10004da4 <stdio_put_string+0xdc>)
10004cf8:	f002 ffe2 	bl	10007cc0 <__mutex_try_enter_block_until_veneer>
10004cfc:	1c6b      	adds	r3, r5, #1
10004cfe:	4680      	mov	r8, r0
10004d00:	d103      	bne.n	10004d0a <stdio_put_string+0x42>
10004d02:	4638      	mov	r0, r7
10004d04:	f002 fe34 	bl	10007970 <strlen>
10004d08:	4605      	mov	r5, r0
10004d0a:	4b27      	ldr	r3, [pc, #156]	@ (10004da8 <stdio_put_string+0xe0>)
10004d0c:	4e27      	ldr	r6, [pc, #156]	@ (10004dac <stdio_put_string+0xe4>)
10004d0e:	681c      	ldr	r4, [r3, #0]
10004d10:	4b27      	ldr	r3, [pc, #156]	@ (10004db0 <stdio_put_string+0xe8>)
10004d12:	f1b9 0f00 	cmp.w	r9, #0
10004d16:	bf18      	it	ne
10004d18:	461e      	movne	r6, r3
10004d1a:	b1b4      	cbz	r4, 10004d4a <stdio_put_string+0x82>
10004d1c:	f1ba 0f00 	cmp.w	sl, #0
10004d20:	d11a      	bne.n	10004d58 <stdio_put_string+0x90>
10004d22:	f8df 9090 	ldr.w	r9, [pc, #144]	@ 10004db4 <stdio_put_string+0xec>
10004d26:	e001      	b.n	10004d2c <stdio_put_string+0x64>
10004d28:	6924      	ldr	r4, [r4, #16]
10004d2a:	b174      	cbz	r4, 10004d4a <stdio_put_string+0x82>
10004d2c:	6823      	ldr	r3, [r4, #0]
10004d2e:	2b00      	cmp	r3, #0
10004d30:	d0fa      	beq.n	10004d28 <stdio_put_string+0x60>
10004d32:	f8d9 3000 	ldr.w	r3, [r9]
10004d36:	b10b      	cbz	r3, 10004d3c <stdio_put_string+0x74>
10004d38:	429c      	cmp	r4, r3
10004d3a:	d1f5      	bne.n	10004d28 <stdio_put_string+0x60>
10004d3c:	4620      	mov	r0, r4
10004d3e:	462a      	mov	r2, r5
10004d40:	4639      	mov	r1, r7
10004d42:	47b0      	blx	r6
10004d44:	6924      	ldr	r4, [r4, #16]
10004d46:	2c00      	cmp	r4, #0
10004d48:	d1f0      	bne.n	10004d2c <stdio_put_string+0x64>
10004d4a:	f1b8 0f00 	cmp.w	r8, #0
10004d4e:	d11f      	bne.n	10004d90 <stdio_put_string+0xc8>
10004d50:	4628      	mov	r0, r5
10004d52:	b002      	add	sp, #8
10004d54:	e8bd 87f0 	ldmia.w	sp!, {r4, r5, r6, r7, r8, r9, sl, pc}
10004d58:	f04f 0a0a 	mov.w	sl, #10
10004d5c:	f8df 9054 	ldr.w	r9, [pc, #84]	@ 10004db4 <stdio_put_string+0xec>
10004d60:	e002      	b.n	10004d68 <stdio_put_string+0xa0>
10004d62:	6924      	ldr	r4, [r4, #16]
10004d64:	2c00      	cmp	r4, #0
10004d66:	d0f0      	beq.n	10004d4a <stdio_put_string+0x82>
10004d68:	6823      	ldr	r3, [r4, #0]
10004d6a:	2b00      	cmp	r3, #0
10004d6c:	d0f9      	beq.n	10004d62 <stdio_put_string+0x9a>
10004d6e:	f8d9 3000 	ldr.w	r3, [r9]
10004d72:	b10b      	cbz	r3, 10004d78 <stdio_put_string+0xb0>
10004d74:	42a3      	cmp	r3, r4
10004d76:	d1f4      	bne.n	10004d62 <stdio_put_string+0x9a>
10004d78:	462a      	mov	r2, r5
10004d7a:	4639      	mov	r1, r7
10004d7c:	4620      	mov	r0, r4
10004d7e:	47b0      	blx	r6
10004d80:	2201      	movs	r2, #1
10004d82:	4620      	mov	r0, r4
10004d84:	f10d 0107 	add.w	r1, sp, #7
10004d88:	f88d a007 	strb.w	sl, [sp, #7]
10004d8c:	47b0      	blx	r6
10004d8e:	e7e8      	b.n	10004d62 <stdio_put_string+0x9a>
10004d90:	4804      	ldr	r0, [pc, #16]	@ (10004da4 <stdio_put_string+0xdc>)
10004d92:	f002 ff89 	bl	10007ca8 <__mutex_exit_veneer>
10004d96:	4628      	mov	r0, r5
10004d98:	b002      	add	sp, #8
10004d9a:	e8bd 87f0 	ldmia.w	sp!, {r4, r5, r6, r7, r8, r9, sl, pc}
10004d9e:	bf00      	nop
10004da0:	000f4240 	.word	0x000f4240
10004da4:	20001bc0 	.word	0x20001bc0
10004da8:	20042504 	.word	0x20042504
10004dac:	10004c15 	.word	0x10004c15
10004db0:	10004c1d 	.word	0x10004c1d
10004db4:	20042510 	.word	0x20042510

10004db8 <__wrap_putchar>:
10004db8:	b5f0      	push	{r4, r5, r6, r7, lr}
10004dba:	b083      	sub	sp, #12
10004dbc:	4606      	mov	r6, r0
10004dbe:	f88d 0007 	strb.w	r0, [sp, #7]
10004dc2:	f7fd fd87 	bl	100028d4 <time_us_64>
10004dc6:	f04f 35ff 	mov.w	r5, #4294967295
10004dca:	f06f 4400 	mvn.w	r4, #2147483648	@ 0x80000000
10004dce:	4a17      	ldr	r2, [pc, #92]	@ (10004e2c <__wrap_putchar+0x74>)
10004dd0:	1882      	adds	r2, r0, r2
10004dd2:	f141 0300 	adc.w	r3, r1, #0
10004dd6:	4295      	cmp	r5, r2
10004dd8:	eb74 0103 	sbcs.w	r1, r4, r3
10004ddc:	bf3c      	itt	cc
10004dde:	4623      	movcc	r3, r4
10004de0:	462a      	movcc	r2, r5
10004de2:	4813      	ldr	r0, [pc, #76]	@ (10004e30 <__wrap_putchar+0x78>)
10004de4:	f002 ff6c 	bl	10007cc0 <__mutex_try_enter_block_until_veneer>
10004de8:	4b12      	ldr	r3, [pc, #72]	@ (10004e34 <__wrap_putchar+0x7c>)
10004dea:	4607      	mov	r7, r0
10004dec:	681c      	ldr	r4, [r3, #0]
10004dee:	b19c      	cbz	r4, 10004e18 <__wrap_putchar+0x60>
10004df0:	4d11      	ldr	r5, [pc, #68]	@ (10004e38 <__wrap_putchar+0x80>)
10004df2:	e001      	b.n	10004df8 <__wrap_putchar+0x40>
10004df4:	6924      	ldr	r4, [r4, #16]
10004df6:	b17c      	cbz	r4, 10004e18 <__wrap_putchar+0x60>
10004df8:	6823      	ldr	r3, [r4, #0]
10004dfa:	2b00      	cmp	r3, #0
10004dfc:	d0fa      	beq.n	10004df4 <__wrap_putchar+0x3c>
10004dfe:	682b      	ldr	r3, [r5, #0]
10004e00:	b10b      	cbz	r3, 10004e06 <__wrap_putchar+0x4e>
10004e02:	429c      	cmp	r4, r3
10004e04:	d1f6      	bne.n	10004df4 <__wrap_putchar+0x3c>
10004e06:	4620      	mov	r0, r4
10004e08:	2201      	movs	r2, #1
10004e0a:	f10d 0107 	add.w	r1, sp, #7
10004e0e:	f7ff ff05 	bl	10004c1c <stdio_out_chars_crlf>
10004e12:	6924      	ldr	r4, [r4, #16]
10004e14:	2c00      	cmp	r4, #0
10004e16:	d1ef      	bne.n	10004df8 <__wrap_putchar+0x40>
10004e18:	b917      	cbnz	r7, 10004e20 <__wrap_putchar+0x68>
10004e1a:	4630      	mov	r0, r6
10004e1c:	b003      	add	sp, #12
10004e1e:	bdf0      	pop	{r4, r5, r6, r7, pc}
10004e20:	4803      	ldr	r0, [pc, #12]	@ (10004e30 <__wrap_putchar+0x78>)
10004e22:	f002 ff41 	bl	10007ca8 <__mutex_exit_veneer>
10004e26:	4630      	mov	r0, r6
10004e28:	b003      	add	sp, #12
10004e2a:	bdf0      	pop	{r4, r5, r6, r7, pc}
10004e2c:	000f4240 	.word	0x000f4240
10004e30:	20001bc0 	.word	0x20001bc0
10004e34:	20042504 	.word	0x20042504
10004e38:	20042510 	.word	0x20042510

10004e3c <__wrap_puts>:
10004e3c:	b538      	push	{r3, r4, r5, lr}
10004e3e:	4604      	mov	r4, r0
10004e40:	f002 fd96 	bl	10007970 <strlen>
10004e44:	2301      	movs	r3, #1
10004e46:	4605      	mov	r5, r0
10004e48:	461a      	mov	r2, r3
10004e4a:	4620      	mov	r0, r4
10004e4c:	4629      	mov	r1, r5
10004e4e:	f7ff ff3b 	bl	10004cc8 <stdio_put_string>
10004e52:	4b08      	ldr	r3, [pc, #32]	@ (10004e74 <__wrap_puts+0x38>)
10004e54:	681c      	ldr	r4, [r3, #0]
10004e56:	b12c      	cbz	r4, 10004e64 <__wrap_puts+0x28>
10004e58:	6863      	ldr	r3, [r4, #4]
10004e5a:	b12b      	cbz	r3, 10004e68 <__wrap_puts+0x2c>
10004e5c:	4798      	blx	r3
10004e5e:	6924      	ldr	r4, [r4, #16]
10004e60:	2c00      	cmp	r4, #0
10004e62:	d1f9      	bne.n	10004e58 <__wrap_puts+0x1c>
10004e64:	4628      	mov	r0, r5
10004e66:	bd38      	pop	{r3, r4, r5, pc}
10004e68:	6924      	ldr	r4, [r4, #16]
10004e6a:	2c00      	cmp	r4, #0
10004e6c:	d1f4      	bne.n	10004e58 <__wrap_puts+0x1c>
10004e6e:	4628      	mov	r0, r5
10004e70:	bd38      	pop	{r3, r4, r5, pc}
10004e72:	bf00      	nop
10004e74:	20042504 	.word	0x20042504

10004e78 <pio_add_program>:
10004e78:	e92d 47f0 	stmdb	sp!, {r4, r5, r6, r7, r8, r9, sl, lr}
10004e7c:	4689      	mov	r9, r1
10004e7e:	4605      	mov	r5, r0
10004e80:	f7fc fea2 	bl	10001bc8 <hw_claim_lock>
10004e84:	2301      	movs	r3, #1
10004e86:	f899 2004 	ldrb.w	r2, [r9, #4]
10004e8a:	f999 c005 	ldrsb.w	ip, [r9, #5]
10004e8e:	f105 4e2f 	add.w	lr, r5, #2936012800	@ 0xaf000000
10004e92:	f8df 80d8 	ldr.w	r8, [pc, #216]	@ 10004f6c <pio_add_program+0xf4>
10004e96:	f50e 0e60 	add.w	lr, lr, #14680064	@ 0xe00000
10004e9a:	4093      	lsls	r3, r2
10004e9c:	ea4f 5e1e 	mov.w	lr, lr, lsr #20
10004ea0:	f1bc 0f00 	cmp.w	ip, #0
10004ea4:	f858 702e 	ldr.w	r7, [r8, lr, lsl #2]
10004ea8:	f103 33ff 	add.w	r3, r3, #4294967295
10004eac:	db46      	blt.n	10004f3c <pio_add_program+0xc4>
10004eae:	f1c2 0120 	rsb	r1, r2, #32
10004eb2:	458c      	cmp	ip, r1
10004eb4:	4664      	mov	r4, ip
10004eb6:	dc31      	bgt.n	10004f1c <pio_add_program+0xa4>
10004eb8:	fa03 f10c 	lsl.w	r1, r3, ip
10004ebc:	4239      	tst	r1, r7
10004ebe:	d12d      	bne.n	10004f1c <pio_add_program+0xa4>
10004ec0:	4666      	mov	r6, ip
10004ec2:	f8d5 a168 	ldr.w	sl, [r5, #360]	@ 0x168
10004ec6:	f899 1007 	ldrb.w	r1, [r9, #7]
10004eca:	f1ba 0f00 	cmp.w	sl, #0
10004ece:	d02c      	beq.n	10004f2a <pio_add_program+0xb2>
10004ed0:	07c9      	lsls	r1, r1, #31
10004ed2:	d42c      	bmi.n	10004f2e <pio_add_program+0xb6>
10004ed4:	f1bc 0f00 	cmp.w	ip, #0
10004ed8:	db01      	blt.n	10004ede <pio_add_program+0x66>
10004eda:	4566      	cmp	r6, ip
10004edc:	d127      	bne.n	10004f2e <pio_add_program+0xb6>
10004ede:	40b3      	lsls	r3, r6
10004ee0:	421f      	tst	r7, r3
10004ee2:	d13c      	bne.n	10004f5e <pio_add_program+0xe6>
10004ee4:	f8d9 1000 	ldr.w	r1, [r9]
10004ee8:	b182      	cbz	r2, 10004f0c <pio_add_program+0x94>
10004eea:	46b4      	mov	ip, r6
10004eec:	eb01 0942 	add.w	r9, r1, r2, lsl #1
10004ef0:	f831 2b02 	ldrh.w	r2, [r1], #2
10004ef4:	f10c 0a12 	add.w	sl, ip, #18
10004ef8:	f5b2 5f00 	cmp.w	r2, #8192	@ 0x2000
10004efc:	bf38      	it	cc
10004efe:	1992      	addcc	r2, r2, r6
10004f00:	4549      	cmp	r1, r9
10004f02:	f10c 0c01 	add.w	ip, ip, #1
10004f06:	f845 202a 	str.w	r2, [r5, sl, lsl #2]
10004f0a:	d1f1      	bne.n	10004ef0 <pio_add_program+0x78>
10004f0c:	433b      	orrs	r3, r7
10004f0e:	f848 302e 	str.w	r3, [r8, lr, lsl #2]
10004f12:	f7fc fe6b 	bl	10001bec <hw_claim_unlock>
10004f16:	4620      	mov	r0, r4
10004f18:	e8bd 87f0 	ldmia.w	sp!, {r4, r5, r6, r7, r8, r9, sl, pc}
10004f1c:	f04f 34ff 	mov.w	r4, #4294967295
10004f20:	f7fc fe64 	bl	10001bec <hw_claim_unlock>
10004f24:	4620      	mov	r0, r4
10004f26:	e8bd 87f0 	ldmia.w	sp!, {r4, r5, r6, r7, r8, r9, sl, pc}
10004f2a:	0749      	lsls	r1, r1, #29
10004f2c:	d5d2      	bpl.n	10004ed4 <pio_add_program+0x5c>
10004f2e:	f06f 040a 	mvn.w	r4, #10
10004f32:	f7fc fe5b 	bl	10001bec <hw_claim_unlock>
10004f36:	4620      	mov	r0, r4
10004f38:	e8bd 87f0 	ldmia.w	sp!, {r4, r5, r6, r7, r8, r9, sl, pc}
10004f3c:	f1d2 0420 	rsbs	r4, r2, #32
10004f40:	d40d      	bmi.n	10004f5e <pio_add_program+0xe6>
10004f42:	fa03 f104 	lsl.w	r1, r3, r4
10004f46:	4239      	tst	r1, r7
10004f48:	4626      	mov	r6, r4
10004f4a:	d103      	bne.n	10004f54 <pio_add_program+0xdc>
10004f4c:	e7b9      	b.n	10004ec2 <pio_add_program+0x4a>
10004f4e:	4239      	tst	r1, r7
10004f50:	4626      	mov	r6, r4
10004f52:	d0b6      	beq.n	10004ec2 <pio_add_program+0x4a>
10004f54:	3c01      	subs	r4, #1
10004f56:	1c66      	adds	r6, r4, #1
10004f58:	fa03 f104 	lsl.w	r1, r3, r4
10004f5c:	d1f7      	bne.n	10004f4e <pio_add_program+0xd6>
10004f5e:	f06f 0408 	mvn.w	r4, #8
10004f62:	f7fc fe43 	bl	10001bec <hw_claim_unlock>
10004f66:	4620      	mov	r0, r4
10004f68:	e8bd 87f0 	ldmia.w	sp!, {r4, r5, r6, r7, r8, r9, sl, pc}
10004f6c:	20042378 	.word	0x20042378

10004f70 <pio_sm_set_consecutive_pindirs>:
10004f70:	e92d 41f0 	stmdb	sp!, {r4, r5, r6, r7, r8, lr}
10004f74:	f8d0 4168 	ldr.w	r4, [r0, #360]	@ 0x168
10004f78:	f89d 6018 	ldrb.w	r6, [sp, #24]
10004f7c:	1b12      	subs	r2, r2, r4
10004f7e:	2a1f      	cmp	r2, #31
10004f80:	d838      	bhi.n	10004ff4 <pio_sm_set_consecutive_pindirs+0x84>
10004f82:	f24e 049f 	movw	r4, #57503	@ 0xe09f
10004f86:	f24e 0580 	movw	r5, #57472	@ 0xe080
10004f8a:	f44f 3800 	mov.w	r8, #131072	@ 0x20000
10004f8e:	eb01 0c41 	add.w	ip, r1, r1, lsl #1
10004f92:	2e00      	cmp	r6, #0
10004f94:	bf18      	it	ne
10004f96:	4625      	movne	r5, r4
10004f98:	eb00 04cc 	add.w	r4, r0, ip, lsl #3
10004f9c:	f504 5443 	add.w	r4, r4, #12480	@ 0x30c0
10004fa0:	eb00 0ccc 	add.w	ip, r0, ip, lsl #3
10004fa4:	2b05      	cmp	r3, #5
10004fa6:	f8dc 70dc 	ldr.w	r7, [ip, #220]	@ 0xdc
10004faa:	ea4f 0e41 	mov.w	lr, r1, lsl #1
10004fae:	f8dc 60cc 	ldr.w	r6, [ip, #204]	@ 0xcc
10004fb2:	f8c4 800c 	str.w	r8, [r4, #12]
10004fb6:	d90c      	bls.n	10004fd2 <pio_sm_set_consecutive_pindirs+0x62>
10004fb8:	0154      	lsls	r4, r2, #5
10004fba:	3b05      	subs	r3, #5
10004fbc:	f044 54a0 	orr.w	r4, r4, #335544320	@ 0x14000000
10004fc0:	3205      	adds	r2, #5
10004fc2:	2b05      	cmp	r3, #5
10004fc4:	f8cc 40dc 	str.w	r4, [ip, #220]	@ 0xdc
10004fc8:	f002 021f 	and.w	r2, r2, #31
10004fcc:	f8cc 50d8 	str.w	r5, [ip, #216]	@ 0xd8
10004fd0:	d8f2      	bhi.n	10004fb8 <pio_sm_set_consecutive_pindirs+0x48>
10004fd2:	4471      	add	r1, lr
10004fd4:	eb00 01c1 	add.w	r1, r0, r1, lsl #3
10004fd8:	2000      	movs	r0, #0
10004fda:	0152      	lsls	r2, r2, #5
10004fdc:	ea42 6383 	orr.w	r3, r2, r3, lsl #26
10004fe0:	f8c1 30dc 	str.w	r3, [r1, #220]	@ 0xdc
10004fe4:	f8c1 50d8 	str.w	r5, [r1, #216]	@ 0xd8
10004fe8:	f8c1 70dc 	str.w	r7, [r1, #220]	@ 0xdc
10004fec:	f8c1 60cc 	str.w	r6, [r1, #204]	@ 0xcc
10004ff0:	e8bd 81f0 	ldmia.w	sp!, {r4, r5, r6, r7, r8, pc}
10004ff4:	f06f 0004 	mvn.w	r0, #4
10004ff8:	e7fa      	b.n	10004ff0 <pio_sm_set_consecutive_pindirs+0x80>
10004ffa:	bf00      	nop

10004ffc <pio_sm_init>:
10004ffc:	b5f0      	push	{r4, r5, r6, r7, lr}
10004ffe:	2501      	movs	r5, #1
10005000:	6804      	ldr	r4, [r0, #0]
10005002:	408d      	lsls	r5, r1
10005004:	ea24 0405 	bic.w	r4, r4, r5
10005008:	6004      	str	r4, [r0, #0]
1000500a:	b3b3      	cbz	r3, 1000507a <pio_sm_init+0x7e>
1000500c:	e9d3 5601 	ldrd	r5, r6, [r3, #4]
10005010:	681f      	ldr	r7, [r3, #0]
10005012:	68dc      	ldr	r4, [r3, #12]
10005014:	eb01 0341 	add.w	r3, r1, r1, lsl #1
10005018:	eb00 03c3 	add.w	r3, r0, r3, lsl #3
1000501c:	f8c3 70c8 	str.w	r7, [r3, #200]	@ 0xc8
10005020:	ea4f 0c41 	mov.w	ip, r1, lsl #1
10005024:	f8c3 60d0 	str.w	r6, [r3, #208]	@ 0xd0
10005028:	f8c3 50cc 	str.w	r5, [r3, #204]	@ 0xcc
1000502c:	f8c3 40dc 	str.w	r4, [r3, #220]	@ 0xdc
10005030:	eb0c 0301 	add.w	r3, ip, r1
10005034:	f04f 3501 	mov.w	r5, #16843009	@ 0x1010101
10005038:	eb00 0cc3 	add.w	ip, r0, r3, lsl #3
1000503c:	f04f 4600 	mov.w	r6, #2147483648	@ 0x80000000
10005040:	eb00 0ec3 	add.w	lr, r0, r3, lsl #3
10005044:	2301      	movs	r3, #1
10005046:	f50e 5e86 	add.w	lr, lr, #4288	@ 0x10c0
1000504a:	1d0c      	adds	r4, r1, #4
1000504c:	f101 0708 	add.w	r7, r1, #8
10005050:	408d      	lsls	r5, r1
10005052:	f8ce 6010 	str.w	r6, [lr, #16]
10005056:	fa03 f404 	lsl.w	r4, r3, r4
1000505a:	f8ce 6010 	str.w	r6, [lr, #16]
1000505e:	f002 021f 	and.w	r2, r2, #31
10005062:	6085      	str	r5, [r0, #8]
10005064:	40bb      	lsls	r3, r7
10005066:	f500 5000 	add.w	r0, r0, #8192	@ 0x2000
1000506a:	6004      	str	r4, [r0, #0]
1000506c:	f10e 0e10 	add.w	lr, lr, #16
10005070:	6003      	str	r3, [r0, #0]
10005072:	2000      	movs	r0, #0
10005074:	f8cc 20d8 	str.w	r2, [ip, #216]	@ 0xd8
10005078:	bdf0      	pop	{r4, r5, r6, r7, pc}
1000507a:	f44f 3780 	mov.w	r7, #65536	@ 0x10000
1000507e:	f44f 2640 	mov.w	r6, #786432	@ 0xc0000
10005082:	f44f 35f8 	mov.w	r5, #126976	@ 0x1f000
10005086:	eb01 0441 	add.w	r4, r1, r1, lsl #1
1000508a:	eb00 04c4 	add.w	r4, r0, r4, lsl #3
1000508e:	f8c4 70c8 	str.w	r7, [r4, #200]	@ 0xc8
10005092:	ea4f 0c41 	mov.w	ip, r1, lsl #1
10005096:	f8c4 60d0 	str.w	r6, [r4, #208]	@ 0xd0
1000509a:	f8c4 50cc 	str.w	r5, [r4, #204]	@ 0xcc
1000509e:	f8c4 30dc 	str.w	r3, [r4, #220]	@ 0xdc
100050a2:	e7c5      	b.n	10005030 <pio_sm_init+0x34>

100050a4 <core1_trampoline>:
100050a4:	bd03      	pop	{r0, r1, pc}
100050a6:	bf00      	nop

100050a8 <core1_wrapper>:
100050a8:	b510      	push	{r4, lr}
100050aa:	4604      	mov	r4, r0
100050ac:	f7fe f836 	bl	1000311c <runtime_run_per_core_initializers>
100050b0:	4623      	mov	r3, r4
100050b2:	e8bd 4010 	ldmia.w	sp!, {r4, lr}
100050b6:	4718      	bx	r3

100050b8 <multicore_lockout_handshake>:
100050b8:	e92d 4ff0 	stmdb	sp!, {r4, r5, r6, r7, r8, r9, sl, fp, lr}
100050bc:	4682      	mov	sl, r0
100050be:	b083      	sub	sp, #12
100050c0:	2019      	movs	r0, #25
100050c2:	4690      	mov	r8, r2
100050c4:	4699      	mov	r9, r3
100050c6:	f7fc fe7b 	bl	10001dc0 <irq_is_enabled>
100050ca:	4683      	mov	fp, r0
100050cc:	2800      	cmp	r0, #0
100050ce:	d16b      	bne.n	100051a8 <multicore_lockout_handshake+0xf0>
100050d0:	4e38      	ldr	r6, [pc, #224]	@ (100051b4 <multicore_lockout_handshake+0xfc>)
100050d2:	f7fd fbff 	bl	100028d4 <time_us_64>
100050d6:	ebb8 0500 	subs.w	r5, r8, r0
100050da:	eb69 0401 	sbc.w	r4, r9, r1
100050de:	2c00      	cmp	r4, #0
100050e0:	db50      	blt.n	10005184 <multicore_lockout_handshake+0xcc>
100050e2:	f7fd fbf7 	bl	100028d4 <time_us_64>
100050e6:	f04f 32ff 	mov.w	r2, #4294967295
100050ea:	f06f 4300 	mvn.w	r3, #2147483648	@ 0x80000000
100050ee:	1828      	adds	r0, r5, r0
100050f0:	eb44 0101 	adc.w	r1, r4, r1
100050f4:	4282      	cmp	r2, r0
100050f6:	eb73 0401 	sbcs.w	r4, r3, r1
100050fa:	bf3c      	itt	cc
100050fc:	4610      	movcc	r0, r2
100050fe:	4619      	movcc	r1, r3
10005100:	f04f 4250 	mov.w	r2, #3489660928	@ 0xd0000000
10005104:	6d13      	ldr	r3, [r2, #80]	@ 0x50
10005106:	079b      	lsls	r3, r3, #30
10005108:	d44a      	bmi.n	100051a0 <multicore_lockout_handshake+0xe8>
1000510a:	6a73      	ldr	r3, [r6, #36]	@ 0x24
1000510c:	4299      	cmp	r1, r3
1000510e:	d8f9      	bhi.n	10005104 <multicore_lockout_handshake+0x4c>
10005110:	6ab4      	ldr	r4, [r6, #40]	@ 0x28
10005112:	4284      	cmp	r4, r0
10005114:	d32c      	bcc.n	10005170 <multicore_lockout_handshake+0xb8>
10005116:	f7fd fbdd 	bl	100028d4 <time_us_64>
1000511a:	ebb8 0500 	subs.w	r5, r8, r0
1000511e:	eb69 0401 	sbc.w	r4, r9, r1
10005122:	2c00      	cmp	r4, #0
10005124:	db2e      	blt.n	10005184 <multicore_lockout_handshake+0xcc>
10005126:	f7fd fbd5 	bl	100028d4 <time_us_64>
1000512a:	f04f 32ff 	mov.w	r2, #4294967295
1000512e:	f06f 4300 	mvn.w	r3, #2147483648	@ 0x80000000
10005132:	182d      	adds	r5, r5, r0
10005134:	eb44 0401 	adc.w	r4, r4, r1
10005138:	42aa      	cmp	r2, r5
1000513a:	eb73 0104 	sbcs.w	r1, r3, r4
1000513e:	bf3c      	itt	cc
10005140:	4615      	movcc	r5, r2
10005142:	461c      	movcc	r4, r3
10005144:	f04f 4750 	mov.w	r7, #3489660928	@ 0xd0000000
10005148:	e004      	b.n	10005154 <multicore_lockout_handshake+0x9c>
1000514a:	4628      	mov	r0, r5
1000514c:	4621      	mov	r1, r4
1000514e:	f7fd fb4f 	bl	100027f0 <best_effort_wfe_or_timeout>
10005152:	b9b8      	cbnz	r0, 10005184 <multicore_lockout_handshake+0xcc>
10005154:	6d3b      	ldr	r3, [r7, #80]	@ 0x50
10005156:	f013 0301 	ands.w	r3, r3, #1
1000515a:	d0f6      	beq.n	1000514a <multicore_lockout_handshake+0x92>
1000515c:	6dba      	ldr	r2, [r7, #88]	@ 0x58
1000515e:	4592      	cmp	sl, r2
10005160:	d1b7      	bne.n	100050d2 <multicore_lockout_handshake+0x1a>
10005162:	f1bb 0f00 	cmp.w	fp, #0
10005166:	d111      	bne.n	1000518c <multicore_lockout_handshake+0xd4>
10005168:	4618      	mov	r0, r3
1000516a:	b003      	add	sp, #12
1000516c:	e8bd 8ff0 	ldmia.w	sp!, {r4, r5, r6, r7, r8, r9, sl, fp, pc}
10005170:	4299      	cmp	r1, r3
10005172:	d0c7      	beq.n	10005104 <multicore_lockout_handshake+0x4c>
10005174:	f7fd fbae 	bl	100028d4 <time_us_64>
10005178:	ebb8 0500 	subs.w	r5, r8, r0
1000517c:	eb69 0401 	sbc.w	r4, r9, r1
10005180:	2c00      	cmp	r4, #0
10005182:	dad0      	bge.n	10005126 <multicore_lockout_handshake+0x6e>
10005184:	2300      	movs	r3, #0
10005186:	f1bb 0f00 	cmp.w	fp, #0
1000518a:	d0ed      	beq.n	10005168 <multicore_lockout_handshake+0xb0>
1000518c:	2101      	movs	r1, #1
1000518e:	2019      	movs	r0, #25
10005190:	9301      	str	r3, [sp, #4]
10005192:	f7fc fdff 	bl	10001d94 <irq_set_enabled>
10005196:	9b01      	ldr	r3, [sp, #4]
10005198:	4618      	mov	r0, r3
1000519a:	b003      	add	sp, #12
1000519c:	e8bd 8ff0 	ldmia.w	sp!, {r4, r5, r6, r7, r8, r9, sl, fp, pc}
100051a0:	f8c2 a054 	str.w	sl, [r2, #84]	@ 0x54
100051a4:	bf40      	sev
100051a6:	e7b6      	b.n	10005116 <multicore_lockout_handshake+0x5e>
100051a8:	2100      	movs	r1, #0
100051aa:	2019      	movs	r0, #25
100051ac:	f7fc fdf2 	bl	10001d94 <irq_set_enabled>
100051b0:	e78e      	b.n	100050d0 <multicore_lockout_handshake+0x18>
100051b2:	bf00      	nop
100051b4:	400b0000 	.word	0x400b0000

100051b8 <multicore_launch_core1_raw>:
100051b8:	b5f0      	push	{r4, r5, r6, r7, lr}
100051ba:	4605      	mov	r5, r0
100051bc:	b087      	sub	sp, #28
100051be:	2019      	movs	r0, #25
100051c0:	4617      	mov	r7, r2
100051c2:	460e      	mov	r6, r1
100051c4:	f7fc fdfc 	bl	10001dc0 <irq_is_enabled>
100051c8:	2100      	movs	r1, #0
100051ca:	4604      	mov	r4, r0
100051cc:	2019      	movs	r0, #25
100051ce:	f7fc fde1 	bl	10001d94 <irq_set_enabled>
100051d2:	2100      	movs	r1, #0
100051d4:	e9cd 6504 	strd	r6, r5, [sp, #16]
100051d8:	9703      	str	r7, [sp, #12]
100051da:	2600      	movs	r6, #0
100051dc:	2700      	movs	r7, #0
100051de:	2201      	movs	r2, #1
100051e0:	f04f 4350 	mov.w	r3, #3489660928	@ 0xd0000000
100051e4:	468c      	mov	ip, r1
100051e6:	e9cd 6700 	strd	r6, r7, [sp]
100051ea:	9202      	str	r2, [sp, #8]
100051ec:	b1b9      	cbz	r1, 1000521e <multicore_launch_core1_raw+0x66>
100051ee:	6d1a      	ldr	r2, [r3, #80]	@ 0x50
100051f0:	0795      	lsls	r5, r2, #30
100051f2:	d5fc      	bpl.n	100051ee <multicore_launch_core1_raw+0x36>
100051f4:	6559      	str	r1, [r3, #84]	@ 0x54
100051f6:	bf40      	sev
100051f8:	6d1a      	ldr	r2, [r3, #80]	@ 0x50
100051fa:	07d0      	lsls	r0, r2, #31
100051fc:	d403      	bmi.n	10005206 <multicore_launch_core1_raw+0x4e>
100051fe:	bf20      	wfe
10005200:	6d1a      	ldr	r2, [r3, #80]	@ 0x50
10005202:	07d2      	lsls	r2, r2, #31
10005204:	d5fb      	bpl.n	100051fe <multicore_launch_core1_raw+0x46>
10005206:	6d9a      	ldr	r2, [r3, #88]	@ 0x58
10005208:	428a      	cmp	r2, r1
1000520a:	d00d      	beq.n	10005228 <multicore_launch_core1_raw+0x70>
1000520c:	f04f 0c00 	mov.w	ip, #0
10005210:	aa06      	add	r2, sp, #24
10005212:	eb02 028c 	add.w	r2, r2, ip, lsl #2
10005216:	f852 1c18 	ldr.w	r1, [r2, #-24]
1000521a:	e7e7      	b.n	100051ec <multicore_launch_core1_raw+0x34>
1000521c:	6d9a      	ldr	r2, [r3, #88]	@ 0x58
1000521e:	6d1a      	ldr	r2, [r3, #80]	@ 0x50
10005220:	07d6      	lsls	r6, r2, #31
10005222:	d4fb      	bmi.n	1000521c <multicore_launch_core1_raw+0x64>
10005224:	bf40      	sev
10005226:	e7e2      	b.n	100051ee <multicore_launch_core1_raw+0x36>
10005228:	f10c 0c01 	add.w	ip, ip, #1
1000522c:	f1bc 0f06 	cmp.w	ip, #6
10005230:	d1ee      	bne.n	10005210 <multicore_launch_core1_raw+0x58>
10005232:	4621      	mov	r1, r4
10005234:	2019      	movs	r0, #25
10005236:	b007      	add	sp, #28
10005238:	e8bd 40f0 	ldmia.w	sp!, {r4, r5, r6, r7, lr}
1000523c:	f7fc bdaa 	b.w	10001d94 <irq_set_enabled>

10005240 <multicore_launch_core1>:
10005240:	4b0c      	ldr	r3, [pc, #48]	@ (10005274 <multicore_launch_core1+0x34>)
10005242:	4a0d      	ldr	r2, [pc, #52]	@ (10005278 <multicore_launch_core1+0x38>)
10005244:	4293      	cmp	r3, r2
10005246:	d30e      	bcc.n	10005266 <multicore_launch_core1+0x26>
10005248:	469c      	mov	ip, r3
1000524a:	f203 71f4 	addw	r1, r3, #2036	@ 0x7f4
1000524e:	4a0b      	ldr	r2, [pc, #44]	@ (1000527c <multicore_launch_core1+0x3c>)
10005250:	6892      	ldr	r2, [r2, #8]
10005252:	f8cc 07f4 	str.w	r0, [ip, #2036]	@ 0x7f4
10005256:	480a      	ldr	r0, [pc, #40]	@ (10005280 <multicore_launch_core1+0x40>)
10005258:	f8cc 37f8 	str.w	r3, [ip, #2040]	@ 0x7f8
1000525c:	f8cc 07fc 	str.w	r0, [ip, #2044]	@ 0x7fc
10005260:	4808      	ldr	r0, [pc, #32]	@ (10005284 <multicore_launch_core1+0x44>)
10005262:	f7ff bfa9 	b.w	100051b8 <multicore_launch_core1_raw>
10005266:	f04f 33ff 	mov.w	r3, #4294967295
1000526a:	f240 71f3 	movw	r1, #2035	@ 0x7f3
1000526e:	469c      	mov	ip, r3
10005270:	e7ed      	b.n	1000524e <multicore_launch_core1+0xe>
10005272:	bf00      	nop
10005274:	20080800 	.word	0x20080800
10005278:	20080000 	.word	0x20080000
1000527c:	e000ed00 	.word	0xe000ed00
10005280:	100050a9 	.word	0x100050a9
10005284:	100050a5 	.word	0x100050a5

10005288 <multicore_lockout_victim_init>:
10005288:	b510      	push	{r4, lr}
1000528a:	f7fc fc9d 	bl	10001bc8 <hw_claim_lock>
1000528e:	4b0d      	ldr	r3, [pc, #52]	@ (100052c4 <multicore_lockout_victim_init+0x3c>)
10005290:	4604      	mov	r4, r0
10005292:	681a      	ldr	r2, [r3, #0]
10005294:	b18a      	cbz	r2, 100052ba <multicore_lockout_victim_init+0x32>
10005296:	4620      	mov	r0, r4
10005298:	f7fc fca8 	bl	10001bec <hw_claim_unlock>
1000529c:	f04f 4350 	mov.w	r3, #3489660928	@ 0xd0000000
100052a0:	2019      	movs	r0, #25
100052a2:	4909      	ldr	r1, [pc, #36]	@ (100052c8 <multicore_lockout_victim_init+0x40>)
100052a4:	681c      	ldr	r4, [r3, #0]
100052a6:	f7fc fd9b 	bl	10001de0 <irq_set_exclusive_handler>
100052aa:	2101      	movs	r1, #1
100052ac:	2019      	movs	r0, #25
100052ae:	f7fc fd71 	bl	10001d94 <irq_set_enabled>
100052b2:	2201      	movs	r2, #1
100052b4:	4b05      	ldr	r3, [pc, #20]	@ (100052cc <multicore_lockout_victim_init+0x44>)
100052b6:	551a      	strb	r2, [r3, r4]
100052b8:	bd10      	pop	{r4, pc}
100052ba:	4618      	mov	r0, r3
100052bc:	f7fc ff3e 	bl	1000213c <mutex_init>
100052c0:	e7e9      	b.n	10005296 <multicore_lockout_victim_init+0xe>
100052c2:	bf00      	nop
100052c4:	20042924 	.word	0x20042924
100052c8:	20000445 	.word	0x20000445
100052cc:	2004292c 	.word	0x2004292c

100052d0 <multicore_lockout_start_blocking>:
100052d0:	4b14      	ldr	r3, [pc, #80]	@ (10005324 <multicore_lockout_start_blocking+0x54>)
100052d2:	b5d0      	push	{r4, r6, r7, lr}
100052d4:	e9d3 6700 	ldrd	r6, r7, [r3]
100052d8:	f7fc fc76 	bl	10001bc8 <hw_claim_lock>
100052dc:	4b12      	ldr	r3, [pc, #72]	@ (10005328 <multicore_lockout_start_blocking+0x58>)
100052de:	4604      	mov	r4, r0
100052e0:	681a      	ldr	r2, [r3, #0]
100052e2:	b1da      	cbz	r2, 1000531c <multicore_lockout_start_blocking+0x4c>
100052e4:	4620      	mov	r0, r4
100052e6:	f7fc fc81 	bl	10001bec <hw_claim_unlock>
100052ea:	4632      	mov	r2, r6
100052ec:	463b      	mov	r3, r7
100052ee:	480e      	ldr	r0, [pc, #56]	@ (10005328 <multicore_lockout_start_blocking+0x58>)
100052f0:	f002 fcea 	bl	10007cc8 <__mutex_enter_block_until_veneer>
100052f4:	b188      	cbz	r0, 1000531a <multicore_lockout_start_blocking+0x4a>
100052f6:	4c0d      	ldr	r4, [pc, #52]	@ (1000532c <multicore_lockout_start_blocking+0x5c>)
100052f8:	7823      	ldrb	r3, [r4, #0]
100052fa:	b95b      	cbnz	r3, 10005314 <multicore_lockout_start_blocking+0x44>
100052fc:	463b      	mov	r3, r7
100052fe:	4632      	mov	r2, r6
10005300:	480b      	ldr	r0, [pc, #44]	@ (10005330 <multicore_lockout_start_blocking+0x60>)
10005302:	f7ff fed9 	bl	100050b8 <multicore_lockout_handshake>
10005306:	4603      	mov	r3, r0
10005308:	4807      	ldr	r0, [pc, #28]	@ (10005328 <multicore_lockout_start_blocking+0x58>)
1000530a:	7023      	strb	r3, [r4, #0]
1000530c:	e8bd 40d0 	ldmia.w	sp!, {r4, r6, r7, lr}
10005310:	f002 bcca 	b.w	10007ca8 <__mutex_exit_veneer>
10005314:	f7fd feec 	bl	100030f0 <hard_assertion_failure>
10005318:	e7f0      	b.n	100052fc <multicore_lockout_start_blocking+0x2c>
1000531a:	bdd0      	pop	{r4, r6, r7, pc}
1000531c:	4618      	mov	r0, r3
1000531e:	f7fc ff0d 	bl	1000213c <mutex_init>
10005322:	e7df      	b.n	100052e4 <multicore_lockout_start_blocking+0x14>
10005324:	10008228 	.word	0x10008228
10005328:	20042924 	.word	0x20042924
1000532c:	200429cf 	.word	0x200429cf
10005330:	73a8831e 	.word	0x73a8831e

10005334 <multicore_lockout_end_blocking>:
10005334:	b538      	push	{r3, r4, r5, lr}
10005336:	4b0c      	ldr	r3, [pc, #48]	@ (10005368 <multicore_lockout_end_blocking+0x34>)
10005338:	480c      	ldr	r0, [pc, #48]	@ (1000536c <multicore_lockout_end_blocking+0x38>)
1000533a:	e9d3 4500 	ldrd	r4, r5, [r3]
1000533e:	4622      	mov	r2, r4
10005340:	462b      	mov	r3, r5
10005342:	f002 fcc1 	bl	10007cc8 <__mutex_enter_block_until_veneer>
10005346:	b900      	cbnz	r0, 1000534a <multicore_lockout_end_blocking+0x16>
10005348:	bd38      	pop	{r3, r4, r5, pc}
1000534a:	4622      	mov	r2, r4
1000534c:	462b      	mov	r3, r5
1000534e:	4808      	ldr	r0, [pc, #32]	@ (10005370 <multicore_lockout_end_blocking+0x3c>)
10005350:	f7ff feb2 	bl	100050b8 <multicore_lockout_handshake>
10005354:	b110      	cbz	r0, 1000535c <multicore_lockout_end_blocking+0x28>
10005356:	2200      	movs	r2, #0
10005358:	4b06      	ldr	r3, [pc, #24]	@ (10005374 <multicore_lockout_end_blocking+0x40>)
1000535a:	701a      	strb	r2, [r3, #0]
1000535c:	4803      	ldr	r0, [pc, #12]	@ (1000536c <multicore_lockout_end_blocking+0x38>)
1000535e:	e8bd 4038 	ldmia.w	sp!, {r3, r4, r5, lr}
10005362:	f002 bca1 	b.w	10007ca8 <__mutex_exit_veneer>
10005366:	bf00      	nop
10005368:	10008228 	.word	0x10008228
1000536c:	20042924 	.word	0x20042924
10005370:	8c577ce1 	.word	0x8c577ce1
10005374:	200429cf 	.word	0x200429cf

10005378 <dcd_init>:
10005378:	b570      	push	{r4, r5, r6, lr}
1000537a:	f000 f92b 	bl	100055d4 <rp2040_usb_init>
1000537e:	230c      	movs	r3, #12
10005380:	2540      	movs	r5, #64	@ 0x40
10005382:	4c1b      	ldr	r4, [pc, #108]	@ (100053f0 <dcd_init+0x78>)
10005384:	22ff      	movs	r2, #255	@ 0xff
10005386:	200e      	movs	r0, #14
10005388:	491a      	ldr	r1, [pc, #104]	@ (100053f4 <dcd_init+0x7c>)
1000538a:	67a3      	str	r3, [r4, #120]	@ 0x78
1000538c:	f7fc fd58 	bl	10001e40 <irq_add_shared_handler>
10005390:	4b19      	ldr	r3, [pc, #100]	@ (100053f8 <dcd_init+0x80>)
10005392:	2100      	movs	r1, #0
10005394:	4618      	mov	r0, r3
10005396:	462a      	mov	r2, r5
10005398:	f002 f9f8 	bl	1000778c <memset>
1000539c:	4603      	mov	r3, r0
1000539e:	2100      	movs	r1, #0
100053a0:	2080      	movs	r0, #128	@ 0x80
100053a2:	2601      	movs	r6, #1
100053a4:	4a15      	ldr	r2, [pc, #84]	@ (100053fc <dcd_init+0x84>)
100053a6:	8458      	strh	r0, [r3, #34]	@ 0x22
100053a8:	609a      	str	r2, [r3, #8]
100053aa:	3a84      	subs	r2, #132	@ 0x84
100053ac:	6059      	str	r1, [r3, #4]
100053ae:	705e      	strb	r6, [r3, #1]
100053b0:	831d      	strh	r5, [r3, #24]
100053b2:	871d      	strh	r5, [r3, #56]	@ 0x38
100053b4:	f8c2 1084 	str.w	r1, [r2, #132]	@ 0x84
100053b8:	f8c2 1080 	str.w	r1, [r2, #128]	@ 0x80
100053bc:	f502 7280 	add.w	r2, r2, #256	@ 0x100
100053c0:	60da      	str	r2, [r3, #12]
100053c2:	62da      	str	r2, [r3, #44]	@ 0x2c
100053c4:	3a80      	subs	r2, #128	@ 0x80
100053c6:	f883 1021 	strb.w	r1, [r3, #33]	@ 0x21
100053ca:	f883 103b 	strb.w	r1, [r3, #59]	@ 0x3b
100053ce:	6259      	str	r1, [r3, #36]	@ 0x24
100053d0:	629a      	str	r2, [r3, #40]	@ 0x28
100053d2:	f002 fc81 	bl	10007cd8 <__reset_non_control_endpoints_veneer>
100053d6:	f04f 5000 	mov.w	r0, #536870912	@ 0x20000000
100053da:	f44f 3280 	mov.w	r2, #65536	@ 0x10000
100053de:	4908      	ldr	r1, [pc, #32]	@ (10005400 <dcd_init+0x88>)
100053e0:	4b08      	ldr	r3, [pc, #32]	@ (10005404 <dcd_init+0x8c>)
100053e2:	6426      	str	r6, [r4, #64]	@ 0x40
100053e4:	64e0      	str	r0, [r4, #76]	@ 0x4c
100053e6:	f8c4 1090 	str.w	r1, [r4, #144]	@ 0x90
100053ea:	64da      	str	r2, [r3, #76]	@ 0x4c
100053ec:	bd70      	pop	{r4, r5, r6, pc}
100053ee:	bf00      	nop
100053f0:	50110000 	.word	0x50110000
100053f4:	200005b9 	.word	0x200005b9
100053f8:	2004251c 	.word	0x2004251c
100053fc:	50100084 	.word	0x50100084
10005400:	0001d010 	.word	0x0001d010
10005404:	50112000 	.word	0x50112000

10005408 <dcd_int_enable>:
10005408:	2101      	movs	r1, #1
1000540a:	200e      	movs	r0, #14
1000540c:	f7fc bcc2 	b.w	10001d94 <irq_set_enabled>

10005410 <dcd_set_address>:
10005410:	2200      	movs	r2, #0
10005412:	4802      	ldr	r0, [pc, #8]	@ (1000541c <dcd_set_address+0xc>)
10005414:	4611      	mov	r1, r2
10005416:	f000 b8fd 	b.w	10005614 <hw_endpoint_xfer_start>
1000541a:	bf00      	nop
1000541c:	2004253c 	.word	0x2004253c

10005420 <dcd_sof_enable>:
10005420:	4b04      	ldr	r3, [pc, #16]	@ (10005434 <dcd_sof_enable+0x14>)
10005422:	7019      	strb	r1, [r3, #0]
10005424:	b121      	cbz	r1, 10005430 <dcd_sof_enable+0x10>
10005426:	f44f 3200 	mov.w	r2, #131072	@ 0x20000
1000542a:	4b03      	ldr	r3, [pc, #12]	@ (10005438 <dcd_sof_enable+0x18>)
1000542c:	f8c3 2090 	str.w	r2, [r3, #144]	@ 0x90
10005430:	4770      	bx	lr
10005432:	bf00      	nop
10005434:	200429c7 	.word	0x200429c7
10005438:	50112000 	.word	0x50112000

1000543c <dcd_edpt0_status_complete>:
1000543c:	780b      	ldrb	r3, [r1, #0]
1000543e:	065b      	lsls	r3, r3, #25
10005440:	d102      	bne.n	10005448 <dcd_edpt0_status_complete+0xc>
10005442:	784b      	ldrb	r3, [r1, #1]
10005444:	2b05      	cmp	r3, #5
10005446:	d000      	beq.n	1000544a <dcd_edpt0_status_complete+0xe>
10005448:	4770      	bx	lr
1000544a:	884b      	ldrh	r3, [r1, #2]
1000544c:	4a01      	ldr	r2, [pc, #4]	@ (10005454 <dcd_edpt0_status_complete+0x18>)
1000544e:	b2db      	uxtb	r3, r3
10005450:	6013      	str	r3, [r2, #0]
10005452:	4770      	bx	lr
10005454:	50110000 	.word	0x50110000

10005458 <dcd_edpt_open>:
10005458:	f04f 0c00 	mov.w	ip, #0
1000545c:	e92d 41f0 	stmdb	sp!, {r4, r5, r6, r7, r8, lr}
10005460:	7888      	ldrb	r0, [r1, #2]
10005462:	4d35      	ldr	r5, [pc, #212]	@ (10005538 <dcd_edpt_open+0xe0>)
10005464:	f000 027f 	and.w	r2, r0, #127	@ 0x7f
10005468:	0056      	lsls	r6, r2, #1
1000546a:	78cf      	ldrb	r7, [r1, #3]
1000546c:	888b      	ldrh	r3, [r1, #4]
1000546e:	eb06 11d0 	add.w	r1, r6, r0, lsr #7
10005472:	eb05 1141 	add.w	r1, r5, r1, lsl #5
10005476:	09c4      	lsrs	r4, r0, #7
10005478:	7088      	strb	r0, [r1, #2]
1000547a:	f3c7 0001 	ubfx	r0, r7, #0, #2
1000547e:	76c8      	strb	r0, [r1, #27]
10005480:	f3c3 030a 	ubfx	r3, r3, #0, #11
10005484:	f084 0001 	eor.w	r0, r4, #1
10005488:	f881 c003 	strb.w	ip, [r1, #3]
1000548c:	830b      	strh	r3, [r1, #24]
1000548e:	7048      	strb	r0, [r1, #1]
10005490:	f007 0703 	and.w	r7, r7, #3
10005494:	00d1      	lsls	r1, r2, #3
10005496:	bb84      	cbnz	r4, 100054fa <dcd_edpt_open+0xa2>
10005498:	4828      	ldr	r0, [pc, #160]	@ (1000553c <dcd_edpt_open+0xe4>)
1000549a:	3104      	adds	r1, #4
1000549c:	eb05 1e82 	add.w	lr, r5, r2, lsl #6
100054a0:	eb01 0800 	add.w	r8, r1, r0
100054a4:	f8ce 8008 	str.w	r8, [lr, #8]
100054a8:	f841 c000 	str.w	ip, [r1, r0]
100054ac:	b382      	cbz	r2, 10005510 <dcd_edpt_open+0xb8>
100054ae:	4924      	ldr	r1, [pc, #144]	@ (10005540 <dcd_edpt_open+0xe8>)
100054b0:	00d2      	lsls	r2, r2, #3
100054b2:	4411      	add	r1, r2
100054b4:	f8ce 1004 	str.w	r1, [lr, #4]
100054b8:	4822      	ldr	r0, [pc, #136]	@ (10005544 <dcd_edpt_open+0xec>)
100054ba:	333f      	adds	r3, #63	@ 0x3f
100054bc:	6801      	ldr	r1, [r0, #0]
100054be:	f023 033f 	bic.w	r3, r3, #63	@ 0x3f
100054c2:	2f02      	cmp	r7, #2
100054c4:	4a20      	ldr	r2, [pc, #128]	@ (10005548 <dcd_edpt_open+0xf0>)
100054c6:	bf08      	it	eq
100054c8:	005b      	lsleq	r3, r3, #1
100054ca:	440b      	add	r3, r1
100054cc:	6003      	str	r3, [r0, #0]
100054ce:	ea81 0802 	eor.w	r8, r1, r2
100054d2:	4053      	eors	r3, r2
100054d4:	1932      	adds	r2, r6, r4
100054d6:	eb05 1242 	add.w	r2, r5, r2, lsl #5
100054da:	f5b3 5f80 	cmp.w	r3, #4096	@ 0x1000
100054de:	60d1      	str	r1, [r2, #12]
100054e0:	d827      	bhi.n	10005532 <dcd_edpt_open+0xda>
100054e2:	4426      	add	r6, r4
100054e4:	eb05 1546 	add.w	r5, r5, r6, lsl #5
100054e8:	686b      	ldr	r3, [r5, #4]
100054ea:	ea48 6287 	orr.w	r2, r8, r7, lsl #26
100054ee:	f042 4200 	orr.w	r2, r2, #2147483648	@ 0x80000000
100054f2:	2001      	movs	r0, #1
100054f4:	601a      	str	r2, [r3, #0]
100054f6:	e8bd 81f0 	ldmia.w	sp!, {r4, r5, r6, r7, r8, pc}
100054fa:	f8df e040 	ldr.w	lr, [pc, #64]	@ 1000553c <dcd_edpt_open+0xe4>
100054fe:	b210      	sxth	r0, r2
10005500:	4471      	add	r1, lr
10005502:	eb05 1882 	add.w	r8, r5, r2, lsl #6
10005506:	f8c8 1028 	str.w	r1, [r8, #40]	@ 0x28
1000550a:	f84e c030 	str.w	ip, [lr, r0, lsl #3]
1000550e:	b942      	cbnz	r2, 10005522 <dcd_edpt_open+0xca>
10005510:	2300      	movs	r3, #0
10005512:	4a0e      	ldr	r2, [pc, #56]	@ (1000554c <dcd_edpt_open+0xf4>)
10005514:	eb05 1444 	add.w	r4, r5, r4, lsl #5
10005518:	2001      	movs	r0, #1
1000551a:	60e2      	str	r2, [r4, #12]
1000551c:	6063      	str	r3, [r4, #4]
1000551e:	e8bd 81f0 	ldmia.w	sp!, {r4, r5, r6, r7, r8, pc}
10005522:	00d2      	lsls	r2, r2, #3
10005524:	f102 42a0 	add.w	r2, r2, #1342177280	@ 0x50000000
10005528:	f502 1280 	add.w	r2, r2, #1048576	@ 0x100000
1000552c:	f8c8 2024 	str.w	r2, [r8, #36]	@ 0x24
10005530:	e7c2      	b.n	100054b8 <dcd_edpt_open+0x60>
10005532:	f7fd fddd 	bl	100030f0 <hard_assertion_failure>
10005536:	e7d4      	b.n	100054e2 <dcd_edpt_open+0x8a>
10005538:	2004251c 	.word	0x2004251c
1000553c:	50100080 	.word	0x50100080
10005540:	50100004 	.word	0x50100004
10005544:	20042938 	.word	0x20042938
10005548:	50100000 	.word	0x50100000
1000554c:	50100100 	.word	0x50100100

10005550 <dcd_edpt_close_all>:
10005550:	f002 bbc2 	b.w	10007cd8 <__reset_non_control_endpoints_veneer>

10005554 <dcd_edpt_xfer>:
10005554:	468c      	mov	ip, r1
10005556:	b508      	push	{r3, lr}
10005558:	4611      	mov	r1, r2
1000555a:	4807      	ldr	r0, [pc, #28]	@ (10005578 <dcd_edpt_xfer+0x24>)
1000555c:	461a      	mov	r2, r3
1000555e:	f00c 037f 	and.w	r3, ip, #127	@ 0x7f
10005562:	ea4f 1cdc 	mov.w	ip, ip, lsr #7
10005566:	eb0c 0c43 	add.w	ip, ip, r3, lsl #1
1000556a:	eb00 104c 	add.w	r0, r0, ip, lsl #5
1000556e:	f000 f851 	bl	10005614 <hw_endpoint_xfer_start>
10005572:	2001      	movs	r0, #1
10005574:	bd08      	pop	{r3, pc}
10005576:	bf00      	nop
10005578:	2004251c 	.word	0x2004251c

1000557c <dcd_edpt_stall>:
1000557c:	09cb      	lsrs	r3, r1, #7
1000557e:	f011 017f 	ands.w	r1, r1, #127	@ 0x7f
10005582:	d103      	bne.n	1000558c <dcd_edpt_stall+0x10>
10005584:	4a06      	ldr	r2, [pc, #24]	@ (100055a0 <dcd_edpt_stall+0x24>)
10005586:	f1c3 0002 	rsb	r0, r3, #2
1000558a:	6690      	str	r0, [r2, #104]	@ 0x68
1000558c:	4805      	ldr	r0, [pc, #20]	@ (100055a4 <dcd_edpt_stall+0x28>)
1000558e:	eb03 0341 	add.w	r3, r3, r1, lsl #1
10005592:	f44f 6200 	mov.w	r2, #2048	@ 0x800
10005596:	2100      	movs	r1, #0
10005598:	eb00 1043 	add.w	r0, r0, r3, lsl #5
1000559c:	f002 bb8c 	b.w	10007cb8 <___hw_endpoint_buffer_control_update32_veneer>
100055a0:	50112000 	.word	0x50112000
100055a4:	2004251c 	.word	0x2004251c

100055a8 <dcd_edpt_clear_stall>:
100055a8:	f011 037f 	ands.w	r3, r1, #127	@ 0x7f
100055ac:	d100      	bne.n	100055b0 <dcd_edpt_clear_stall+0x8>
100055ae:	4770      	bx	lr
100055b0:	2200      	movs	r2, #0
100055b2:	b410      	push	{r4}
100055b4:	09c8      	lsrs	r0, r1, #7
100055b6:	4c06      	ldr	r4, [pc, #24]	@ (100055d0 <dcd_edpt_clear_stall+0x28>)
100055b8:	eb00 0043 	add.w	r0, r0, r3, lsl #1
100055bc:	eb04 1340 	add.w	r3, r4, r0, lsl #5
100055c0:	f46f 6100 	mvn.w	r1, #2048	@ 0x800
100055c4:	4618      	mov	r0, r3
100055c6:	f85d 4b04 	ldr.w	r4, [sp], #4
100055ca:	70da      	strb	r2, [r3, #3]
100055cc:	f002 bb74 	b.w	10007cb8 <___hw_endpoint_buffer_control_update32_veneer>
100055d0:	2004251c 	.word	0x2004251c

100055d4 <rp2040_usb_init>:
100055d4:	f04f 5280 	mov.w	r2, #268435456	@ 0x10000000
100055d8:	4809      	ldr	r0, [pc, #36]	@ (10005600 <rp2040_usb_init+0x2c>)
100055da:	490a      	ldr	r1, [pc, #40]	@ (10005604 <rp2040_usb_init+0x30>)
100055dc:	b508      	push	{r3, lr}
100055de:	4b0a      	ldr	r3, [pc, #40]	@ (10005608 <rp2040_usb_init+0x34>)
100055e0:	6002      	str	r2, [r0, #0]
100055e2:	600a      	str	r2, [r1, #0]
100055e4:	6899      	ldr	r1, [r3, #8]
100055e6:	43c9      	mvns	r1, r1
100055e8:	f011 5180 	ands.w	r1, r1, #268435456	@ 0x10000000
100055ec:	d1fa      	bne.n	100055e4 <rp2040_usb_init+0x10>
100055ee:	f44f 5280 	mov.w	r2, #4096	@ 0x1000
100055f2:	4806      	ldr	r0, [pc, #24]	@ (1000560c <rp2040_usb_init+0x38>)
100055f4:	f002 f8ca 	bl	1000778c <memset>
100055f8:	2209      	movs	r2, #9
100055fa:	4b05      	ldr	r3, [pc, #20]	@ (10005610 <rp2040_usb_init+0x3c>)
100055fc:	675a      	str	r2, [r3, #116]	@ 0x74
100055fe:	bd08      	pop	{r3, pc}
10005600:	40022000 	.word	0x40022000
10005604:	40023000 	.word	0x40023000
10005608:	40020000 	.word	0x40020000
1000560c:	50100000 	.word	0x50100000
10005610:	50110000 	.word	0x50110000

10005614 <hw_endpoint_xfer_start>:
10005614:	2300      	movs	r3, #0
10005616:	f04f 0c01 	mov.w	ip, #1
1000561a:	b510      	push	{r4, lr}
1000561c:	f880 c01a 	strb.w	ip, [r0, #26]
10005620:	8282      	strh	r2, [r0, #20]
10005622:	82c3      	strh	r3, [r0, #22]
10005624:	6101      	str	r1, [r0, #16]
10005626:	4604      	mov	r4, r0
10005628:	f002 fb32 	bl	10007c90 <__e15_is_bulkin_ep_veneer>
1000562c:	b120      	cbz	r0, 10005638 <hw_endpoint_xfer_start+0x24>
1000562e:	f44f 3200 	mov.w	r2, #131072	@ 0x20000
10005632:	4b07      	ldr	r3, [pc, #28]	@ (10005650 <hw_endpoint_xfer_start+0x3c>)
10005634:	f8c3 2090 	str.w	r2, [r3, #144]	@ 0x90
10005638:	4620      	mov	r0, r4
1000563a:	f002 fb49 	bl	10007cd0 <__e15_is_critical_frame_period_veneer>
1000563e:	b110      	cbz	r0, 10005646 <hw_endpoint_xfer_start+0x32>
10005640:	2301      	movs	r3, #1
10005642:	7723      	strb	r3, [r4, #28]
10005644:	bd10      	pop	{r4, pc}
10005646:	4620      	mov	r0, r4
10005648:	e8bd 4010 	ldmia.w	sp!, {r4, lr}
1000564c:	f002 bb1c 	b.w	10007c88 <__hw_endpoint_start_next_buffer_veneer>
10005650:	50112000 	.word	0x50112000

10005654 <tud_vendor_control_xfer_cb>:
10005654:	2000      	movs	r0, #0
10005656:	4770      	bx	lr

10005658 <configuration_reset>:
10005658:	e92d 41f0 	stmdb	sp!, {r4, r5, r6, r7, r8, lr}
1000565c:	f04f 0800 	mov.w	r8, #0
10005660:	4d1c      	ldr	r5, [pc, #112]	@ (100056d4 <configuration_reset+0x7c>)
10005662:	4604      	mov	r4, r0
10005664:	4642      	mov	r2, r8
10005666:	782b      	ldrb	r3, [r5, #0]
10005668:	4f1b      	ldr	r7, [pc, #108]	@ (100056d8 <configuration_reset+0x80>)
1000566a:	4e1c      	ldr	r6, [pc, #112]	@ (100056dc <configuration_reset+0x84>)
1000566c:	e00d      	b.n	1000568a <configuration_reset+0x32>
1000566e:	6833      	ldr	r3, [r6, #0]
10005670:	eb13 1342 	adds.w	r3, r3, r2, lsl #5
10005674:	d025      	beq.n	100056c2 <configuration_reset+0x6a>
10005676:	68db      	ldr	r3, [r3, #12]
10005678:	4620      	mov	r0, r4
1000567a:	4798      	blx	r3
1000567c:	f108 0801 	add.w	r8, r8, #1
10005680:	782b      	ldrb	r3, [r5, #0]
10005682:	fa5f f288 	uxtb.w	r2, r8
10005686:	4293      	cmp	r3, r2
10005688:	d306      	bcc.n	10005698 <configuration_reset+0x40>
1000568a:	4293      	cmp	r3, r2
1000568c:	eba2 0303 	sub.w	r3, r2, r3
10005690:	d8ed      	bhi.n	1000566e <configuration_reset+0x16>
10005692:	eb07 1343 	add.w	r3, r7, r3, lsl #5
10005696:	e7ee      	b.n	10005676 <configuration_reset+0x1e>
10005698:	4c11      	ldr	r4, [pc, #68]	@ (100056e0 <configuration_reset+0x88>)
1000569a:	2254      	movs	r2, #84	@ 0x54
1000569c:	2100      	movs	r1, #0
1000569e:	4620      	mov	r0, r4
100056a0:	f002 f874 	bl	1000778c <memset>
100056a4:	f04f 33ff 	mov.w	r3, #4294967295
100056a8:	1d25      	adds	r5, r4, #4
100056aa:	6063      	str	r3, [r4, #4]
100056ac:	e9c5 3301 	strd	r3, r3, [r5, #4]
100056b0:	60eb      	str	r3, [r5, #12]
100056b2:	f104 0014 	add.w	r0, r4, #20
100056b6:	2220      	movs	r2, #32
100056b8:	e8bd 41f0 	ldmia.w	sp!, {r4, r5, r6, r7, r8, lr}
100056bc:	21ff      	movs	r1, #255	@ 0xff
100056be:	f002 b865 	b.w	1000778c <memset>
100056c2:	f04f 23e0 	mov.w	r3, #3758153728	@ 0xe000e000
100056c6:	f8d3 3df0 	ldr.w	r3, [r3, #3568]	@ 0xdf0
100056ca:	07db      	lsls	r3, r3, #31
100056cc:	d500      	bpl.n	100056d0 <configuration_reset+0x78>
100056ce:	be00      	bkpt	0x0000
100056d0:	e8bd 81f0 	ldmia.w	sp!, {r4, r5, r6, r7, r8, pc}
100056d4:	200429c6 	.word	0x200429c6
100056d8:	100082dc 	.word	0x100082dc
100056dc:	200421d8 	.word	0x200421d8
100056e0:	2004225c 	.word	0x2004225c

100056e4 <tud_event_hook_cb>:
100056e4:	4770      	bx	lr
100056e6:	bf00      	nop

100056e8 <tud_sof_cb>:
100056e8:	4770      	bx	lr
100056ea:	bf00      	nop

100056ec <tud_descriptor_bos_cb>:
100056ec:	2000      	movs	r0, #0
100056ee:	4770      	bx	lr

100056f0 <tud_descriptor_device_qualifier_cb>:
100056f0:	2000      	movs	r0, #0
100056f2:	4770      	bx	lr

100056f4 <tud_descriptor_other_speed_configuration_cb>:
100056f4:	2000      	movs	r0, #0
100056f6:	4770      	bx	lr

100056f8 <tud_mount_cb>:
100056f8:	4770      	bx	lr
100056fa:	bf00      	nop

100056fc <tud_umount_cb>:
100056fc:	4770      	bx	lr
100056fe:	bf00      	nop

10005700 <tud_suspend_cb>:
10005700:	4770      	bx	lr
10005702:	bf00      	nop

10005704 <tud_resume_cb>:
10005704:	4770      	bx	lr
10005706:	bf00      	nop

10005708 <tud_mounted>:
10005708:	4b02      	ldr	r3, [pc, #8]	@ (10005714 <tud_mounted+0xc>)
1000570a:	7858      	ldrb	r0, [r3, #1]
1000570c:	3800      	subs	r0, #0
1000570e:	bf18      	it	ne
10005710:	2001      	movne	r0, #1
10005712:	4770      	bx	lr
10005714:	2004225c 	.word	0x2004225c

10005718 <tud_suspended>:
10005718:	4b02      	ldr	r3, [pc, #8]	@ (10005724 <tud_suspended+0xc>)
1000571a:	7818      	ldrb	r0, [r3, #0]
1000571c:	f3c0 0080 	ubfx	r0, r0, #2, #1
10005720:	4770      	bx	lr
10005722:	bf00      	nop
10005724:	2004225c 	.word	0x2004225c

10005728 <tud_init>:
10005728:	e92d 43f8 	stmdb	sp!, {r3, r4, r5, r6, r7, r8, r9, lr}
1000572c:	4e2b      	ldr	r6, [pc, #172]	@ (100057dc <tud_init+0xb4>)
1000572e:	7833      	ldrb	r3, [r6, #0]
10005730:	2bff      	cmp	r3, #255	@ 0xff
10005732:	d002      	beq.n	1000573a <tud_init+0x12>
10005734:	2001      	movs	r0, #1
10005736:	e8bd 83f8 	ldmia.w	sp!, {r3, r4, r5, r6, r7, r8, r9, pc}
1000573a:	2100      	movs	r1, #0
1000573c:	2254      	movs	r2, #84	@ 0x54
1000573e:	4605      	mov	r5, r0
10005740:	4827      	ldr	r0, [pc, #156]	@ (100057e0 <tud_init+0xb8>)
10005742:	f002 f823 	bl	1000778c <memset>
10005746:	2200      	movs	r2, #0
10005748:	4c26      	ldr	r4, [pc, #152]	@ (100057e4 <tud_init+0xbc>)
1000574a:	4b27      	ldr	r3, [pc, #156]	@ (100057e8 <tud_init+0xc0>)
1000574c:	4620      	mov	r0, r4
1000574e:	701a      	strb	r2, [r3, #0]
10005750:	f7fc fcf4 	bl	1000213c <mutex_init>
10005754:	4b25      	ldr	r3, [pc, #148]	@ (100057ec <tud_init+0xc4>)
10005756:	4826      	ldr	r0, [pc, #152]	@ (100057f0 <tud_init+0xc8>)
10005758:	601c      	str	r4, [r3, #0]
1000575a:	4c26      	ldr	r4, [pc, #152]	@ (100057f4 <tud_init+0xcc>)
1000575c:	f7fc fcfc 	bl	10002158 <critical_section_init>
10005760:	4620      	mov	r0, r4
10005762:	f001 fc41 	bl	10006fe8 <tu_fifo_clear>
10005766:	4a24      	ldr	r2, [pc, #144]	@ (100057f8 <tud_init+0xd0>)
10005768:	4b24      	ldr	r3, [pc, #144]	@ (100057fc <tud_init+0xd4>)
1000576a:	6014      	str	r4, [r2, #0]
1000576c:	4c24      	ldr	r4, [pc, #144]	@ (10005800 <tud_init+0xd8>)
1000576e:	b35b      	cbz	r3, 100057c8 <tud_init+0xa0>
10005770:	4620      	mov	r0, r4
10005772:	f3af 8000 	nop.w
10005776:	4b23      	ldr	r3, [pc, #140]	@ (10005804 <tud_init+0xdc>)
10005778:	7822      	ldrb	r2, [r4, #0]
1000577a:	6018      	str	r0, [r3, #0]
1000577c:	f04f 0900 	mov.w	r9, #0
10005780:	f8df 8084 	ldr.w	r8, [pc, #132]	@ 10005808 <tud_init+0xe0>
10005784:	464b      	mov	r3, r9
10005786:	4f1f      	ldr	r7, [pc, #124]	@ (10005804 <tud_init+0xdc>)
10005788:	e00d      	b.n	100057a6 <tud_init+0x7e>
1000578a:	683a      	ldr	r2, [r7, #0]
1000578c:	eb12 1343 	adds.w	r3, r2, r3, lsl #5
10005790:	d011      	beq.n	100057b6 <tud_init+0x8e>
10005792:	685b      	ldr	r3, [r3, #4]
10005794:	b17b      	cbz	r3, 100057b6 <tud_init+0x8e>
10005796:	4798      	blx	r3
10005798:	f109 0901 	add.w	r9, r9, #1
1000579c:	7822      	ldrb	r2, [r4, #0]
1000579e:	fa5f f389 	uxtb.w	r3, r9
100057a2:	429a      	cmp	r2, r3
100057a4:	d312      	bcc.n	100057cc <tud_init+0xa4>
100057a6:	4293      	cmp	r3, r2
100057a8:	d3ef      	bcc.n	1000578a <tud_init+0x62>
100057aa:	1a9b      	subs	r3, r3, r2
100057ac:	eb08 1343 	add.w	r3, r8, r3, lsl #5
100057b0:	685b      	ldr	r3, [r3, #4]
100057b2:	2b00      	cmp	r3, #0
100057b4:	d1ef      	bne.n	10005796 <tud_init+0x6e>
100057b6:	f04f 23e0 	mov.w	r3, #3758153728	@ 0xe000e000
100057ba:	f8d3 3df0 	ldr.w	r3, [r3, #3568]	@ 0xdf0
100057be:	07db      	lsls	r3, r3, #31
100057c0:	d500      	bpl.n	100057c4 <tud_init+0x9c>
100057c2:	be00      	bkpt	0x0000
100057c4:	2000      	movs	r0, #0
100057c6:	e7b6      	b.n	10005736 <tud_init+0xe>
100057c8:	7822      	ldrb	r2, [r4, #0]
100057ca:	e7d7      	b.n	1000577c <tud_init+0x54>
100057cc:	4628      	mov	r0, r5
100057ce:	7035      	strb	r5, [r6, #0]
100057d0:	f7ff fdd2 	bl	10005378 <dcd_init>
100057d4:	4628      	mov	r0, r5
100057d6:	f7ff fe17 	bl	10005408 <dcd_int_enable>
100057da:	e7ab      	b.n	10005734 <tud_init+0xc>
100057dc:	20001658 	.word	0x20001658
100057e0:	2004225c 	.word	0x2004225c
100057e4:	20042214 	.word	0x20042214
100057e8:	200429c8 	.word	0x200429c8
100057ec:	200422b0 	.word	0x200422b0
100057f0:	20001650 	.word	0x20001650
100057f4:	2000163c 	.word	0x2000163c
100057f8:	200422b4 	.word	0x200422b4
100057fc:	00000000 	.word	0x00000000
10005800:	200429c6 	.word	0x200429c6
10005804:	200421d8 	.word	0x200421d8
10005808:	100082dc 	.word	0x100082dc

1000580c <tud_task_ext>:
1000580c:	e92d 4ff0 	stmdb	sp!, {r4, r5, r6, r7, r8, r9, sl, fp, lr}
10005810:	f8df 92b0 	ldr.w	r9, [pc, #688]	@ 10005ac4 <tud_task_ext+0x2b8>
10005814:	b08b      	sub	sp, #44	@ 0x2c
10005816:	f899 3000 	ldrb.w	r3, [r9]
1000581a:	2bff      	cmp	r3, #255	@ 0xff
1000581c:	f000 80ed 	beq.w	100059fa <tud_task_ext+0x1ee>
10005820:	4ca2      	ldr	r4, [pc, #648]	@ (10005aac <tud_task_ext+0x2a0>)
10005822:	4da3      	ldr	r5, [pc, #652]	@ (10005ab0 <tud_task_ext+0x2a4>)
10005824:	f8df a298 	ldr.w	sl, [pc, #664]	@ 10005ac0 <tud_task_ext+0x2b4>
10005828:	f8df b29c 	ldr.w	fp, [pc, #668]	@ 10005ac8 <tud_task_ext+0x2bc>
1000582c:	6826      	ldr	r6, [r4, #0]
1000582e:	6973      	ldr	r3, [r6, #20]
10005830:	f3ef 8210 	mrs	r2, PRIMASK
10005834:	b672      	cpsid	i
10005836:	e8d3 0fcf 	ldaexb	r0, [r3]
1000583a:	2101      	movs	r1, #1
1000583c:	2800      	cmp	r0, #0
1000583e:	d1fa      	bne.n	10005836 <tud_task_ext+0x2a>
10005840:	e8c3 1f40 	strexb	r0, r1, [r3]
10005844:	2800      	cmp	r0, #0
10005846:	d1f6      	bne.n	10005836 <tud_task_ext+0x2a>
10005848:	f3bf 8f5f 	dmb	sy
1000584c:	61b2      	str	r2, [r6, #24]
1000584e:	4630      	mov	r0, r6
10005850:	a907      	add	r1, sp, #28
10005852:	f001 fa17 	bl	10006c84 <tu_fifo_read>
10005856:	2300      	movs	r3, #0
10005858:	6972      	ldr	r2, [r6, #20]
1000585a:	e8c2 3f8f 	stlb	r3, [r2]
1000585e:	69b3      	ldr	r3, [r6, #24]
10005860:	f383 8810 	msr	PRIMASK, r3
10005864:	2800      	cmp	r0, #0
10005866:	f000 80c8 	beq.w	100059fa <tud_task_ext+0x1ee>
1000586a:	f89d 301d 	ldrb.w	r3, [sp, #29]
1000586e:	3b01      	subs	r3, #1
10005870:	2b07      	cmp	r3, #7
10005872:	f200 836b 	bhi.w	10005f4c <tud_task_ext+0x740>
10005876:	e8df f003 	tbb	[pc, r3]
1000587a:	afa5      	.short	0xafa5
1000587c:	358c9b93 	.word	0x358c9b93
10005880:	040a      	.short	0x040a
10005882:	9b08      	ldr	r3, [sp, #32]
10005884:	2b00      	cmp	r3, #0
10005886:	d0d1      	beq.n	1000582c <tud_task_ext+0x20>
10005888:	9809      	ldr	r0, [sp, #36]	@ 0x24
1000588a:	4798      	blx	r3
1000588c:	e7ce      	b.n	1000582c <tud_task_ext+0x20>
1000588e:	f89d 1020 	ldrb.w	r1, [sp, #32]
10005892:	f001 067f 	and.w	r6, r1, #127	@ 0x7f
10005896:	eb05 0046 	add.w	r0, r5, r6, lsl #1
1000589a:	eb00 10d1 	add.w	r0, r0, r1, lsr #7
1000589e:	f890 3034 	ldrb.w	r3, [r0, #52]	@ 0x34
100058a2:	f023 0301 	bic.w	r3, r3, #1
100058a6:	f880 3034 	strb.w	r3, [r0, #52]	@ 0x34
100058aa:	f890 3034 	ldrb.w	r3, [r0, #52]	@ 0x34
100058ae:	f023 0304 	bic.w	r3, r3, #4
100058b2:	f880 3034 	strb.w	r3, [r0, #52]	@ 0x34
100058b6:	2e00      	cmp	r6, #0
100058b8:	f000 80a2 	beq.w	10005a00 <tud_task_ext+0x1f4>
100058bc:	7d02      	ldrb	r2, [r0, #20]
100058be:	f89a 3000 	ldrb.w	r3, [sl]
100058c2:	429a      	cmp	r2, r3
100058c4:	f080 8091 	bcs.w	100059ea <tud_task_ext+0x1de>
100058c8:	4b7a      	ldr	r3, [pc, #488]	@ (10005ab4 <tud_task_ext+0x2a8>)
100058ca:	681b      	ldr	r3, [r3, #0]
100058cc:	eb13 1342 	adds.w	r3, r3, r2, lsl #5
100058d0:	f000 808c 	beq.w	100059ec <tud_task_ext+0x1e0>
100058d4:	699e      	ldr	r6, [r3, #24]
100058d6:	f89d 2021 	ldrb.w	r2, [sp, #33]	@ 0x21
100058da:	9b09      	ldr	r3, [sp, #36]	@ 0x24
100058dc:	f89d 001c 	ldrb.w	r0, [sp, #28]
100058e0:	47b0      	blx	r6
100058e2:	e7a3      	b.n	1000582c <tud_task_ext+0x20>
100058e4:	f89b 3000 	ldrb.w	r3, [fp]
100058e8:	2b00      	cmp	r3, #0
100058ea:	d07f      	beq.n	100059ec <tud_task_ext+0x1e0>
100058ec:	f89b 3000 	ldrb.w	r3, [fp]
100058f0:	3b01      	subs	r3, #1
100058f2:	b2db      	uxtb	r3, r3
100058f4:	f88b 3000 	strb.w	r3, [fp]
100058f8:	f89b 3000 	ldrb.w	r3, [fp]
100058fc:	f003 00ff 	and.w	r0, r3, #255	@ 0xff
10005900:	2b00      	cmp	r3, #0
10005902:	d193      	bne.n	1000582c <tud_task_ext+0x20>
10005904:	4f6a      	ldr	r7, [pc, #424]	@ (10005ab0 <tud_task_ext+0x2a4>)
10005906:	f89d 801c 	ldrb.w	r8, [sp, #28]
1000590a:	783b      	ldrb	r3, [r7, #0]
1000590c:	f043 0301 	orr.w	r3, r3, #1
10005910:	703b      	strb	r3, [r7, #0]
10005912:	f897 3034 	ldrb.w	r3, [r7, #52]	@ 0x34
10005916:	f360 0300 	bfi	r3, r0, #0, #1
1000591a:	f887 3034 	strb.w	r3, [r7, #52]	@ 0x34
1000591e:	f897 3034 	ldrb.w	r3, [r7, #52]	@ 0x34
10005922:	f360 0382 	bfi	r3, r0, #2, #1
10005926:	f887 3034 	strb.w	r3, [r7, #52]	@ 0x34
1000592a:	f897 3035 	ldrb.w	r3, [r7, #53]	@ 0x35
1000592e:	f360 0300 	bfi	r3, r0, #0, #1
10005932:	f887 3035 	strb.w	r3, [r7, #53]	@ 0x35
10005936:	f897 3035 	ldrb.w	r3, [r7, #53]	@ 0x35
1000593a:	f360 0382 	bfi	r3, r0, #2, #1
1000593e:	f887 3035 	strb.w	r3, [r7, #53]	@ 0x35
10005942:	f000 fc59 	bl	100061f8 <usbd_control_set_complete_callback>
10005946:	f89d 3020 	ldrb.w	r3, [sp, #32]
1000594a:	f003 0260 	and.w	r2, r3, #96	@ 0x60
1000594e:	2a60      	cmp	r2, #96	@ 0x60
10005950:	d066      	beq.n	10005a20 <tud_task_ext+0x214>
10005952:	2a40      	cmp	r2, #64	@ 0x40
10005954:	d076      	beq.n	10005a44 <tud_task_ext+0x238>
10005956:	f003 031f 	and.w	r3, r3, #31
1000595a:	2b01      	cmp	r3, #1
1000595c:	f000 80b6 	beq.w	10005acc <tud_task_ext+0x2c0>
10005960:	2b02      	cmp	r3, #2
10005962:	d07b      	beq.n	10005a5c <tud_task_ext+0x250>
10005964:	2b00      	cmp	r3, #0
10005966:	d15b      	bne.n	10005a20 <tud_task_ext+0x214>
10005968:	2a20      	cmp	r2, #32
1000596a:	f000 81db 	beq.w	10005d24 <tud_task_ext+0x518>
1000596e:	2a00      	cmp	r2, #0
10005970:	d156      	bne.n	10005a20 <tud_task_ext+0x214>
10005972:	f89d 3021 	ldrb.w	r3, [sp, #33]	@ 0x21
10005976:	2b09      	cmp	r3, #9
10005978:	d852      	bhi.n	10005a20 <tud_task_ext+0x214>
1000597a:	e8df f013 	tbh	[pc, r3, lsl #1]
1000597e:	01a2      	.short	0x01a2
10005980:	00510194 	.word	0x00510194
10005984:	005101b3 	.word	0x005101b3
10005988:	015d0187 	.word	0x015d0187
1000598c:	01520051 	.word	0x01520051
10005990:	00e5      	.short	0x00e5
10005992:	782b      	ldrb	r3, [r5, #0]
10005994:	07d9      	lsls	r1, r3, #31
10005996:	f57f af49 	bpl.w	1000582c <tud_task_ext+0x20>
1000599a:	f7ff feb3 	bl	10005704 <tud_resume_cb>
1000599e:	e745      	b.n	1000582c <tud_task_ext+0x20>
100059a0:	78eb      	ldrb	r3, [r5, #3]
100059a2:	07da      	lsls	r2, r3, #31
100059a4:	f57f af42 	bpl.w	1000582c <tud_task_ext+0x20>
100059a8:	9808      	ldr	r0, [sp, #32]
100059aa:	f7ff fe9d 	bl	100056e8 <tud_sof_cb>
100059ae:	e73d      	b.n	1000582c <tud_task_ext+0x20>
100059b0:	782b      	ldrb	r3, [r5, #0]
100059b2:	07d8      	lsls	r0, r3, #31
100059b4:	f57f af3a 	bpl.w	1000582c <tud_task_ext+0x20>
100059b8:	7828      	ldrb	r0, [r5, #0]
100059ba:	f3c0 00c0 	ubfx	r0, r0, #3, #1
100059be:	f7ff fe9f 	bl	10005700 <tud_suspend_cb>
100059c2:	e733      	b.n	1000582c <tud_task_ext+0x20>
100059c4:	f89d 001c 	ldrb.w	r0, [sp, #28]
100059c8:	f7ff fe46 	bl	10005658 <configuration_reset>
100059cc:	f000 fc0a 	bl	100061e4 <usbd_control_reset>
100059d0:	f89d 3020 	ldrb.w	r3, [sp, #32]
100059d4:	70ab      	strb	r3, [r5, #2]
100059d6:	e729      	b.n	1000582c <tud_task_ext+0x20>
100059d8:	f89d 001c 	ldrb.w	r0, [sp, #28]
100059dc:	f7ff fe3c 	bl	10005658 <configuration_reset>
100059e0:	f000 fc00 	bl	100061e4 <usbd_control_reset>
100059e4:	f7ff fe8a 	bl	100056fc <tud_umount_cb>
100059e8:	e720      	b.n	1000582c <tud_task_ext+0x20>
100059ea:	d011      	beq.n	10005a10 <tud_task_ext+0x204>
100059ec:	f04f 23e0 	mov.w	r3, #3758153728	@ 0xe000e000
100059f0:	f8d3 3df0 	ldr.w	r3, [r3, #3568]	@ 0xdf0
100059f4:	07dc      	lsls	r4, r3, #31
100059f6:	d500      	bpl.n	100059fa <tud_task_ext+0x1ee>
100059f8:	be00      	bkpt	0x0000
100059fa:	b00b      	add	sp, #44	@ 0x2c
100059fc:	e8bd 8ff0 	ldmia.w	sp!, {r4, r5, r6, r7, r8, r9, sl, fp, pc}
10005a00:	9b09      	ldr	r3, [sp, #36]	@ 0x24
10005a02:	f89d 2021 	ldrb.w	r2, [sp, #33]	@ 0x21
10005a06:	f89d 001c 	ldrb.w	r0, [sp, #28]
10005a0a:	f000 fc09 	bl	10006220 <usbd_control_xfer_cb>
10005a0e:	e70d      	b.n	1000582c <tud_task_ext+0x20>
10005a10:	4b29      	ldr	r3, [pc, #164]	@ (10005ab8 <tud_task_ext+0x2ac>)
10005a12:	e75f      	b.n	100058d4 <tud_task_ext+0xc8>
10005a14:	f7fa fcb2 	bl	1000037c <tud_descriptor_configuration_cb>
10005a18:	4602      	mov	r2, r0
10005a1a:	2800      	cmp	r0, #0
10005a1c:	f040 8179 	bne.w	10005d12 <tud_task_ext+0x506>
10005a20:	f04f 23e0 	mov.w	r3, #3758153728	@ 0xe000e000
10005a24:	f8d3 3df0 	ldr.w	r3, [r3, #3568]	@ 0xdf0
10005a28:	07de      	lsls	r6, r3, #31
10005a2a:	d500      	bpl.n	10005a2e <tud_task_ext+0x222>
10005a2c:	be00      	bkpt	0x0000
10005a2e:	f89d 001c 	ldrb.w	r0, [sp, #28]
10005a32:	2100      	movs	r1, #0
10005a34:	f7ff fda2 	bl	1000557c <dcd_edpt_stall>
10005a38:	2180      	movs	r1, #128	@ 0x80
10005a3a:	f89d 001c 	ldrb.w	r0, [sp, #28]
10005a3e:	f7ff fd9d 	bl	1000557c <dcd_edpt_stall>
10005a42:	e6f3      	b.n	1000582c <tud_task_ext+0x20>
10005a44:	481d      	ldr	r0, [pc, #116]	@ (10005abc <tud_task_ext+0x2b0>)
10005a46:	f000 fbd7 	bl	100061f8 <usbd_control_set_complete_callback>
10005a4a:	2101      	movs	r1, #1
10005a4c:	4640      	mov	r0, r8
10005a4e:	aa08      	add	r2, sp, #32
10005a50:	f7ff fe00 	bl	10005654 <tud_vendor_control_xfer_cb>
10005a54:	2800      	cmp	r0, #0
10005a56:	f47f aee9 	bne.w	1000582c <tud_task_ext+0x20>
10005a5a:	e7e8      	b.n	10005a2e <tud_task_ext+0x222>
10005a5c:	f89d 1024 	ldrb.w	r1, [sp, #36]	@ 0x24
10005a60:	f011 0f70 	tst.w	r1, #112	@ 0x70
10005a64:	d1dc      	bne.n	10005a20 <tud_task_ext+0x214>
10005a66:	f001 067f 	and.w	r6, r1, #127	@ 0x7f
10005a6a:	eb07 0046 	add.w	r0, r7, r6, lsl #1
10005a6e:	4b14      	ldr	r3, [pc, #80]	@ (10005ac0 <tud_task_ext+0x2b4>)
10005a70:	eb00 10d1 	add.w	r0, r0, r1, lsr #7
10005a74:	781b      	ldrb	r3, [r3, #0]
10005a76:	7d00      	ldrb	r0, [r0, #20]
10005a78:	0076      	lsls	r6, r6, #1
10005a7a:	9601      	str	r6, [sp, #4]
10005a7c:	4298      	cmp	r0, r3
10005a7e:	ea4f 16d1 	mov.w	r6, r1, lsr #7
10005a82:	9600      	str	r6, [sp, #0]
10005a84:	d34f      	bcc.n	10005b26 <tud_task_ext+0x31a>
10005a86:	f040 815f 	bne.w	10005d48 <tud_task_ext+0x53c>
10005a8a:	4e0b      	ldr	r6, [pc, #44]	@ (10005ab8 <tud_task_ext+0x2ac>)
10005a8c:	2a00      	cmp	r2, #0
10005a8e:	f000 815f 	beq.w	10005d50 <tud_task_ext+0x544>
10005a92:	6970      	ldr	r0, [r6, #20]
10005a94:	f000 fbb0 	bl	100061f8 <usbd_control_set_complete_callback>
10005a98:	2101      	movs	r1, #1
10005a9a:	4640      	mov	r0, r8
10005a9c:	6973      	ldr	r3, [r6, #20]
10005a9e:	aa08      	add	r2, sp, #32
10005aa0:	4798      	blx	r3
10005aa2:	2800      	cmp	r0, #0
10005aa4:	f47f aec2 	bne.w	1000582c <tud_task_ext+0x20>
10005aa8:	e7c1      	b.n	10005a2e <tud_task_ext+0x222>
10005aaa:	bf00      	nop
10005aac:	200422b4 	.word	0x200422b4
10005ab0:	2004225c 	.word	0x2004225c
10005ab4:	200421d8 	.word	0x200421d8
10005ab8:	100082dc 	.word	0x100082dc
10005abc:	10005655 	.word	0x10005655
10005ac0:	200429c6 	.word	0x200429c6
10005ac4:	20001658 	.word	0x20001658
10005ac8:	200429c8 	.word	0x200429c8
10005acc:	f89d 3024 	ldrb.w	r3, [sp, #36]	@ 0x24
10005ad0:	2b0f      	cmp	r3, #15
10005ad2:	d8ac      	bhi.n	10005a2e <tud_task_ext+0x222>
10005ad4:	4aaa      	ldr	r2, [pc, #680]	@ (10005d80 <tud_task_ext+0x574>)
10005ad6:	443b      	add	r3, r7
10005ad8:	791b      	ldrb	r3, [r3, #4]
10005ada:	7812      	ldrb	r2, [r2, #0]
10005adc:	4293      	cmp	r3, r2
10005ade:	d32d      	bcc.n	10005b3c <tud_task_ext+0x330>
10005ae0:	d1a5      	bne.n	10005a2e <tud_task_ext+0x222>
10005ae2:	4ea8      	ldr	r6, [pc, #672]	@ (10005d84 <tud_task_ext+0x578>)
10005ae4:	6970      	ldr	r0, [r6, #20]
10005ae6:	f000 fb87 	bl	100061f8 <usbd_control_set_complete_callback>
10005aea:	2101      	movs	r1, #1
10005aec:	4640      	mov	r0, r8
10005aee:	6973      	ldr	r3, [r6, #20]
10005af0:	aa08      	add	r2, sp, #32
10005af2:	4798      	blx	r3
10005af4:	2800      	cmp	r0, #0
10005af6:	f47f ae99 	bne.w	1000582c <tud_task_ext+0x20>
10005afa:	f89d 3020 	ldrb.w	r3, [sp, #32]
10005afe:	f013 0660 	ands.w	r6, r3, #96	@ 0x60
10005b02:	d194      	bne.n	10005a2e <tud_task_ext+0x222>
10005b04:	f89d 3021 	ldrb.w	r3, [sp, #33]	@ 0x21
10005b08:	3b0a      	subs	r3, #10
10005b0a:	2b01      	cmp	r3, #1
10005b0c:	d88f      	bhi.n	10005a2e <tud_task_ext+0x222>
10005b0e:	f000 fb73 	bl	100061f8 <usbd_control_set_complete_callback>
10005b12:	f89d 3021 	ldrb.w	r3, [sp, #33]	@ 0x21
10005b16:	2b0a      	cmp	r3, #10
10005b18:	f000 81f1 	beq.w	10005efe <tud_task_ext+0x6f2>
10005b1c:	4640      	mov	r0, r8
10005b1e:	a908      	add	r1, sp, #32
10005b20:	f000 faf0 	bl	10006104 <tud_control_status>
10005b24:	e682      	b.n	1000582c <tud_task_ext+0x20>
10005b26:	4b98      	ldr	r3, [pc, #608]	@ (10005d88 <tud_task_ext+0x57c>)
10005b28:	681b      	ldr	r3, [r3, #0]
10005b2a:	eb03 1640 	add.w	r6, r3, r0, lsl #5
10005b2e:	2a00      	cmp	r2, #0
10005b30:	f000 810e 	beq.w	10005d50 <tud_task_ext+0x544>
10005b34:	2e00      	cmp	r6, #0
10005b36:	f43f af7a 	beq.w	10005a2e <tud_task_ext+0x222>
10005b3a:	e7aa      	b.n	10005a92 <tud_task_ext+0x286>
10005b3c:	4a92      	ldr	r2, [pc, #584]	@ (10005d88 <tud_task_ext+0x57c>)
10005b3e:	6816      	ldr	r6, [r2, #0]
10005b40:	eb16 1643 	adds.w	r6, r6, r3, lsl #5
10005b44:	d1ce      	bne.n	10005ae4 <tud_task_ext+0x2d8>
10005b46:	e772      	b.n	10005a2e <tud_task_ext+0x222>
10005b48:	787b      	ldrb	r3, [r7, #1]
10005b4a:	f89d 6022 	ldrb.w	r6, [sp, #34]	@ 0x22
10005b4e:	429e      	cmp	r6, r3
10005b50:	f000 814c 	beq.w	10005dec <tud_task_ext+0x5e0>
10005b54:	787b      	ldrb	r3, [r7, #1]
10005b56:	2b00      	cmp	r3, #0
10005b58:	f040 81bd 	bne.w	10005ed6 <tud_task_ext+0x6ca>
10005b5c:	707e      	strb	r6, [r7, #1]
10005b5e:	2e00      	cmp	r6, #0
10005b60:	f000 8142 	beq.w	10005de8 <tud_task_ext+0x5dc>
10005b64:	1e70      	subs	r0, r6, #1
10005b66:	b2c0      	uxtb	r0, r0
10005b68:	f7fa fc08 	bl	1000037c <tud_descriptor_configuration_cb>
10005b6c:	4603      	mov	r3, r0
10005b6e:	2800      	cmp	r0, #0
10005b70:	f000 815e 	beq.w	10005e30 <tud_task_ext+0x624>
10005b74:	7842      	ldrb	r2, [r0, #1]
10005b76:	2a02      	cmp	r2, #2
10005b78:	f040 815a 	bne.w	10005e30 <tud_task_ext+0x624>
10005b7c:	79c1      	ldrb	r1, [r0, #7]
10005b7e:	f103 0609 	add.w	r6, r3, #9
10005b82:	f3c1 1240 	ubfx	r2, r1, #5, #1
10005b86:	0112      	lsls	r2, r2, #4
10005b88:	f3c1 1180 	ubfx	r1, r1, #6, #1
10005b8c:	ea42 1241 	orr.w	r2, r2, r1, lsl #5
10005b90:	4631      	mov	r1, r6
10005b92:	7838      	ldrb	r0, [r7, #0]
10005b94:	f020 0030 	bic.w	r0, r0, #48	@ 0x30
10005b98:	4302      	orrs	r2, r0
10005b9a:	703a      	strb	r2, [r7, #0]
10005b9c:	885a      	ldrh	r2, [r3, #2]
10005b9e:	f8cd 8008 	str.w	r8, [sp, #8]
10005ba2:	189a      	adds	r2, r3, r2
10005ba4:	9200      	str	r2, [sp, #0]
10005ba6:	9b00      	ldr	r3, [sp, #0]
10005ba8:	428b      	cmp	r3, r1
10005baa:	f240 81a3 	bls.w	10005ef4 <tud_task_ext+0x6e8>
10005bae:	784b      	ldrb	r3, [r1, #1]
10005bb0:	2b0b      	cmp	r3, #11
10005bb2:	f000 81ae 	beq.w	10005f12 <tud_task_ext+0x706>
10005bb6:	f04f 0c01 	mov.w	ip, #1
10005bba:	2b04      	cmp	r3, #4
10005bbc:	f040 8138 	bne.w	10005e30 <tud_task_ext+0x624>
10005bc0:	2300      	movs	r3, #0
10005bc2:	9a00      	ldr	r2, [sp, #0]
10005bc4:	461e      	mov	r6, r3
10005bc6:	1a52      	subs	r2, r2, r1
10005bc8:	b292      	uxth	r2, r2
10005bca:	9201      	str	r2, [sp, #4]
10005bcc:	4a6c      	ldr	r2, [pc, #432]	@ (10005d80 <tud_task_ext+0x574>)
10005bce:	f8cd c00c 	str.w	ip, [sp, #12]
10005bd2:	7812      	ldrb	r2, [r2, #0]
10005bd4:	e01d      	b.n	10005c12 <tud_task_ext+0x406>
10005bd6:	4a6c      	ldr	r2, [pc, #432]	@ (10005d88 <tud_task_ext+0x57c>)
10005bd8:	6812      	ldr	r2, [r2, #0]
10005bda:	eb12 1846 	adds.w	r8, r2, r6, lsl #5
10005bde:	f000 8127 	beq.w	10005e30 <tud_task_ext+0x624>
10005be2:	9a01      	ldr	r2, [sp, #4]
10005be4:	9305      	str	r3, [sp, #20]
10005be6:	9802      	ldr	r0, [sp, #8]
10005be8:	f8d8 3010 	ldr.w	r3, [r8, #16]
10005bec:	9104      	str	r1, [sp, #16]
10005bee:	4798      	blx	r3
10005bf0:	9b05      	ldr	r3, [sp, #20]
10005bf2:	2808      	cmp	r0, #8
10005bf4:	4602      	mov	r2, r0
10005bf6:	9904      	ldr	r1, [sp, #16]
10005bf8:	f103 0301 	add.w	r3, r3, #1
10005bfc:	d903      	bls.n	10005c06 <tud_task_ext+0x3fa>
10005bfe:	9801      	ldr	r0, [sp, #4]
10005c00:	4290      	cmp	r0, r2
10005c02:	f080 80f8 	bcs.w	10005df6 <tud_task_ext+0x5ea>
10005c06:	4a5e      	ldr	r2, [pc, #376]	@ (10005d80 <tud_task_ext+0x574>)
10005c08:	b2de      	uxtb	r6, r3
10005c0a:	7812      	ldrb	r2, [r2, #0]
10005c0c:	42b2      	cmp	r2, r6
10005c0e:	f0c0 810f 	bcc.w	10005e30 <tud_task_ext+0x624>
10005c12:	42b2      	cmp	r2, r6
10005c14:	eba6 0202 	sub.w	r2, r6, r2
10005c18:	d8dd      	bhi.n	10005bd6 <tud_task_ext+0x3ca>
10005c1a:	485a      	ldr	r0, [pc, #360]	@ (10005d84 <tud_task_ext+0x578>)
10005c1c:	eb00 1842 	add.w	r8, r0, r2, lsl #5
10005c20:	e7df      	b.n	10005be2 <tud_task_ext+0x3d6>
10005c22:	787b      	ldrb	r3, [r7, #1]
10005c24:	4640      	mov	r0, r8
10005c26:	f88d 301a 	strb.w	r3, [sp, #26]
10005c2a:	f10d 021a 	add.w	r2, sp, #26
10005c2e:	2301      	movs	r3, #1
10005c30:	a908      	add	r1, sp, #32
10005c32:	f000 fa81 	bl	10006138 <tud_control_xfer>
10005c36:	e5f9      	b.n	1000582c <tud_task_ext+0x20>
10005c38:	f8bd 0022 	ldrh.w	r0, [sp, #34]	@ 0x22
10005c3c:	0a03      	lsrs	r3, r0, #8
10005c3e:	3b01      	subs	r3, #1
10005c40:	0a02      	lsrs	r2, r0, #8
10005c42:	b2c0      	uxtb	r0, r0
10005c44:	2b0e      	cmp	r3, #14
10005c46:	f63f aef2 	bhi.w	10005a2e <tud_task_ext+0x222>
10005c4a:	a101      	add	r1, pc, #4	@ (adr r1, 10005c50 <tud_task_ext+0x444>)
10005c4c:	f851 f023 	ldr.w	pc, [r1, r3, lsl #2]
10005c50:	10005e61 	.word	0x10005e61
10005c54:	10005d01 	.word	0x10005d01
10005c58:	10005e9d 	.word	0x10005e9d
10005c5c:	10005a2f 	.word	0x10005a2f
10005c60:	10005a2f 	.word	0x10005a2f
10005c64:	10005e7f 	.word	0x10005e7f
10005c68:	10005d01 	.word	0x10005d01
10005c6c:	10005a2f 	.word	0x10005a2f
10005c70:	10005a2f 	.word	0x10005a2f
10005c74:	10005a2f 	.word	0x10005a2f
10005c78:	10005a2f 	.word	0x10005a2f
10005c7c:	10005a2f 	.word	0x10005a2f
10005c80:	10005a2f 	.word	0x10005a2f
10005c84:	10005a2f 	.word	0x10005a2f
10005c88:	10005e53 	.word	0x10005e53
10005c8c:	a808      	add	r0, sp, #32
10005c8e:	f000 fab9 	bl	10006204 <usbd_control_set_request>
10005c92:	4640      	mov	r0, r8
10005c94:	f89d 1022 	ldrb.w	r1, [sp, #34]	@ 0x22
10005c98:	f7ff fbba 	bl	10005410 <dcd_set_address>
10005c9c:	783b      	ldrb	r3, [r7, #0]
10005c9e:	f043 0302 	orr.w	r3, r3, #2
10005ca2:	703b      	strb	r3, [r7, #0]
10005ca4:	e5c2      	b.n	1000582c <tud_task_ext+0x20>
10005ca6:	f8bd 3022 	ldrh.w	r3, [sp, #34]	@ 0x22
10005caa:	2b01      	cmp	r3, #1
10005cac:	f47f aebf 	bne.w	10005a2e <tud_task_ext+0x222>
10005cb0:	783b      	ldrb	r3, [r7, #0]
10005cb2:	4640      	mov	r0, r8
10005cb4:	f023 0308 	bic.w	r3, r3, #8
10005cb8:	a908      	add	r1, sp, #32
10005cba:	703b      	strb	r3, [r7, #0]
10005cbc:	f000 fa22 	bl	10006104 <tud_control_status>
10005cc0:	e5b4      	b.n	1000582c <tud_task_ext+0x20>
10005cc2:	4640      	mov	r0, r8
10005cc4:	783b      	ldrb	r3, [r7, #0]
10005cc6:	089a      	lsrs	r2, r3, #2
10005cc8:	f002 0202 	and.w	r2, r2, #2
10005ccc:	f3c3 1340 	ubfx	r3, r3, #5, #1
10005cd0:	4313      	orrs	r3, r2
10005cd2:	f8ad 301a 	strh.w	r3, [sp, #26]
10005cd6:	f10d 021a 	add.w	r2, sp, #26
10005cda:	2302      	movs	r3, #2
10005cdc:	a908      	add	r1, sp, #32
10005cde:	f000 fa2b 	bl	10006138 <tud_control_xfer>
10005ce2:	e5a3      	b.n	1000582c <tud_task_ext+0x20>
10005ce4:	f8bd 3022 	ldrh.w	r3, [sp, #34]	@ 0x22
10005ce8:	2b01      	cmp	r3, #1
10005cea:	f47f aea0 	bne.w	10005a2e <tud_task_ext+0x222>
10005cee:	783b      	ldrb	r3, [r7, #0]
10005cf0:	4640      	mov	r0, r8
10005cf2:	f043 0308 	orr.w	r3, r3, #8
10005cf6:	a908      	add	r1, sp, #32
10005cf8:	703b      	strb	r3, [r7, #0]
10005cfa:	f000 fa03 	bl	10006104 <tud_control_status>
10005cfe:	e595      	b.n	1000582c <tud_task_ext+0x20>
10005d00:	2a02      	cmp	r2, #2
10005d02:	f43f ae87 	beq.w	10005a14 <tud_task_ext+0x208>
10005d06:	f7ff fcf5 	bl	100056f4 <tud_descriptor_other_speed_configuration_cb>
10005d0a:	4602      	mov	r2, r0
10005d0c:	2800      	cmp	r0, #0
10005d0e:	f43f ae8e 	beq.w	10005a2e <tud_task_ext+0x222>
10005d12:	4640      	mov	r0, r8
10005d14:	8853      	ldrh	r3, [r2, #2]
10005d16:	a908      	add	r1, sp, #32
10005d18:	f000 fa0e 	bl	10006138 <tud_control_xfer>
10005d1c:	2800      	cmp	r0, #0
10005d1e:	f47f ad85 	bne.w	1000582c <tud_task_ext+0x20>
10005d22:	e684      	b.n	10005a2e <tud_task_ext+0x222>
10005d24:	f89d 3024 	ldrb.w	r3, [sp, #36]	@ 0x24
10005d28:	2b0f      	cmp	r3, #15
10005d2a:	f63f ae80 	bhi.w	10005a2e <tud_task_ext+0x222>
10005d2e:	4a14      	ldr	r2, [pc, #80]	@ (10005d80 <tud_task_ext+0x574>)
10005d30:	443b      	add	r3, r7
10005d32:	791b      	ldrb	r3, [r3, #4]
10005d34:	7812      	ldrb	r2, [r2, #0]
10005d36:	4293      	cmp	r3, r2
10005d38:	d21d      	bcs.n	10005d76 <tud_task_ext+0x56a>
10005d3a:	4a13      	ldr	r2, [pc, #76]	@ (10005d88 <tud_task_ext+0x57c>)
10005d3c:	6816      	ldr	r6, [r2, #0]
10005d3e:	eb16 1643 	adds.w	r6, r6, r3, lsl #5
10005d42:	f47f aea6 	bne.w	10005a92 <tud_task_ext+0x286>
10005d46:	e672      	b.n	10005a2e <tud_task_ext+0x222>
10005d48:	2a00      	cmp	r2, #0
10005d4a:	f47f ae70 	bne.w	10005a2e <tud_task_ext+0x222>
10005d4e:	2600      	movs	r6, #0
10005d50:	f89d 2021 	ldrb.w	r2, [sp, #33]	@ 0x21
10005d54:	f002 03fd 	and.w	r3, r2, #253	@ 0xfd
10005d58:	2b01      	cmp	r3, #1
10005d5a:	d017      	beq.n	10005d8c <tud_task_ext+0x580>
10005d5c:	2a00      	cmp	r2, #0
10005d5e:	f47f ae5f 	bne.w	10005a20 <tud_task_ext+0x214>
10005d62:	9b01      	ldr	r3, [sp, #4]
10005d64:	9a00      	ldr	r2, [sp, #0]
10005d66:	443b      	add	r3, r7
10005d68:	4413      	add	r3, r2
10005d6a:	f893 3034 	ldrb.w	r3, [r3, #52]	@ 0x34
10005d6e:	4640      	mov	r0, r8
10005d70:	f3c3 0340 	ubfx	r3, r3, #1, #1
10005d74:	e7ad      	b.n	10005cd2 <tud_task_ext+0x4c6>
10005d76:	f47f ae5a 	bne.w	10005a2e <tud_task_ext+0x222>
10005d7a:	4e02      	ldr	r6, [pc, #8]	@ (10005d84 <tud_task_ext+0x578>)
10005d7c:	e689      	b.n	10005a92 <tud_task_ext+0x286>
10005d7e:	bf00      	nop
10005d80:	200429c6 	.word	0x200429c6
10005d84:	100082dc 	.word	0x100082dc
10005d88:	200421d8 	.word	0x200421d8
10005d8c:	f8bd 3022 	ldrh.w	r3, [sp, #34]	@ 0x22
10005d90:	b9b3      	cbnz	r3, 10005dc0 <tud_task_ext+0x5b4>
10005d92:	2a01      	cmp	r2, #1
10005d94:	f899 0000 	ldrb.w	r0, [r9]
10005d98:	f000 8088 	beq.w	10005eac <tud_task_ext+0x6a0>
10005d9c:	f7ff fbee 	bl	1000557c <dcd_edpt_stall>
10005da0:	9b01      	ldr	r3, [sp, #4]
10005da2:	9a00      	ldr	r2, [sp, #0]
10005da4:	443b      	add	r3, r7
10005da6:	4413      	add	r3, r2
10005da8:	f893 2034 	ldrb.w	r2, [r3, #52]	@ 0x34
10005dac:	f042 0202 	orr.w	r2, r2, #2
10005db0:	f883 2034 	strb.w	r2, [r3, #52]	@ 0x34
10005db4:	f893 2034 	ldrb.w	r2, [r3, #52]	@ 0x34
10005db8:	f042 0201 	orr.w	r2, r2, #1
10005dbc:	f883 2034 	strb.w	r2, [r3, #52]	@ 0x34
10005dc0:	2e00      	cmp	r6, #0
10005dc2:	f43f ad33 	beq.w	1000582c <tud_task_ext+0x20>
10005dc6:	6970      	ldr	r0, [r6, #20]
10005dc8:	f000 fa16 	bl	100061f8 <usbd_control_set_complete_callback>
10005dcc:	6973      	ldr	r3, [r6, #20]
10005dce:	2101      	movs	r1, #1
10005dd0:	aa08      	add	r2, sp, #32
10005dd2:	4640      	mov	r0, r8
10005dd4:	4798      	blx	r3
10005dd6:	2000      	movs	r0, #0
10005dd8:	f000 fa0e 	bl	100061f8 <usbd_control_set_complete_callback>
10005ddc:	f897 3035 	ldrb.w	r3, [r7, #53]	@ 0x35
10005de0:	07df      	lsls	r7, r3, #31
10005de2:	f53f ad23 	bmi.w	1000582c <tud_task_ext+0x20>
10005de6:	e699      	b.n	10005b1c <tud_task_ext+0x310>
10005de8:	f7ff fc88 	bl	100056fc <tud_umount_cb>
10005dec:	4640      	mov	r0, r8
10005dee:	a908      	add	r1, sp, #32
10005df0:	f000 f988 	bl	10006104 <tud_control_status>
10005df4:	e51a      	b.n	1000582c <tud_task_ext+0x20>
10005df6:	f8dd c00c 	ldr.w	ip, [sp, #12]
10005dfa:	f1bc 0f01 	cmp.w	ip, #1
10005dfe:	f000 809d 	beq.w	10005f3c <tud_task_ext+0x730>
10005e02:	f1bc 0f00 	cmp.w	ip, #0
10005e06:	f000 808a 	beq.w	10005f1e <tud_task_ext+0x712>
10005e0a:	2300      	movs	r3, #0
10005e0c:	f891 8002 	ldrb.w	r8, [r1, #2]
10005e10:	e004      	b.n	10005e1c <tud_task_ext+0x610>
10005e12:	7106      	strb	r6, [r0, #4]
10005e14:	b2d8      	uxtb	r0, r3
10005e16:	4584      	cmp	ip, r0
10005e18:	f240 8081 	bls.w	10005f1e <tud_task_ext+0x712>
10005e1c:	eb08 0003 	add.w	r0, r8, r3
10005e20:	fa57 f080 	uxtab	r0, r7, r0
10005e24:	f890 e004 	ldrb.w	lr, [r0, #4]
10005e28:	3301      	adds	r3, #1
10005e2a:	f1be 0fff 	cmp.w	lr, #255	@ 0xff
10005e2e:	d0f0      	beq.n	10005e12 <tud_task_ext+0x606>
10005e30:	f04f 23e0 	mov.w	r3, #3758153728	@ 0xe000e000
10005e34:	f8d3 3df0 	ldr.w	r3, [r3, #3568]	@ 0xdf0
10005e38:	07da      	lsls	r2, r3, #31
10005e3a:	d500      	bpl.n	10005e3e <tud_task_ext+0x632>
10005e3c:	be00      	bkpt	0x0000
10005e3e:	f04f 23e0 	mov.w	r3, #3758153728	@ 0xe000e000
10005e42:	f8d3 3df0 	ldr.w	r3, [r3, #3568]	@ 0xdf0
10005e46:	07db      	lsls	r3, r3, #31
10005e48:	d500      	bpl.n	10005e4c <tud_task_ext+0x640>
10005e4a:	be00      	bkpt	0x0000
10005e4c:	2300      	movs	r3, #0
10005e4e:	707b      	strb	r3, [r7, #1]
10005e50:	e5ed      	b.n	10005a2e <tud_task_ext+0x222>
10005e52:	f7ff fc4b 	bl	100056ec <tud_descriptor_bos_cb>
10005e56:	4602      	mov	r2, r0
10005e58:	2800      	cmp	r0, #0
10005e5a:	f47f af5a 	bne.w	10005d12 <tud_task_ext+0x506>
10005e5e:	e5e6      	b.n	10005a2e <tud_task_ext+0x222>
10005e60:	f7fa fa88 	bl	10000374 <tud_descriptor_device_cb>
10005e64:	4602      	mov	r2, r0
10005e66:	2800      	cmp	r0, #0
10005e68:	f43f adda 	beq.w	10005a20 <tud_task_ext+0x214>
10005e6c:	4640      	mov	r0, r8
10005e6e:	2312      	movs	r3, #18
10005e70:	a908      	add	r1, sp, #32
10005e72:	f000 f961 	bl	10006138 <tud_control_xfer>
10005e76:	2800      	cmp	r0, #0
10005e78:	f47f acd8 	bne.w	1000582c <tud_task_ext+0x20>
10005e7c:	e5d7      	b.n	10005a2e <tud_task_ext+0x222>
10005e7e:	f7ff fc37 	bl	100056f0 <tud_descriptor_device_qualifier_cb>
10005e82:	4602      	mov	r2, r0
10005e84:	2800      	cmp	r0, #0
10005e86:	f43f add2 	beq.w	10005a2e <tud_task_ext+0x222>
10005e8a:	4640      	mov	r0, r8
10005e8c:	7813      	ldrb	r3, [r2, #0]
10005e8e:	a908      	add	r1, sp, #32
10005e90:	f000 f952 	bl	10006138 <tud_control_xfer>
10005e94:	2800      	cmp	r0, #0
10005e96:	f47f acc9 	bne.w	1000582c <tud_task_ext+0x20>
10005e9a:	e5c8      	b.n	10005a2e <tud_task_ext+0x222>
10005e9c:	f8bd 1024 	ldrh.w	r1, [sp, #36]	@ 0x24
10005ea0:	f7fa fa70 	bl	10000384 <tud_descriptor_string_cb>
10005ea4:	4602      	mov	r2, r0
10005ea6:	2800      	cmp	r0, #0
10005ea8:	d1ef      	bne.n	10005e8a <tud_task_ext+0x67e>
10005eaa:	e5c0      	b.n	10005a2e <tud_task_ext+0x222>
10005eac:	9302      	str	r3, [sp, #8]
10005eae:	f7ff fb7b 	bl	100055a8 <dcd_edpt_clear_stall>
10005eb2:	9a01      	ldr	r2, [sp, #4]
10005eb4:	9b00      	ldr	r3, [sp, #0]
10005eb6:	443a      	add	r2, r7
10005eb8:	441a      	add	r2, r3
10005eba:	f892 1034 	ldrb.w	r1, [r2, #52]	@ 0x34
10005ebe:	9b02      	ldr	r3, [sp, #8]
10005ec0:	f363 0141 	bfi	r1, r3, #1, #1
10005ec4:	f882 1034 	strb.w	r1, [r2, #52]	@ 0x34
10005ec8:	f892 1034 	ldrb.w	r1, [r2, #52]	@ 0x34
10005ecc:	f363 0100 	bfi	r1, r3, #0, #1
10005ed0:	f882 1034 	strb.w	r1, [r2, #52]	@ 0x34
10005ed4:	e774      	b.n	10005dc0 <tud_task_ext+0x5b4>
10005ed6:	2100      	movs	r1, #0
10005ed8:	4640      	mov	r0, r8
10005eda:	f7ff faa1 	bl	10005420 <dcd_sof_enable>
10005ede:	4640      	mov	r0, r8
10005ee0:	f7ff fb36 	bl	10005550 <dcd_edpt_close_all>
10005ee4:	78bb      	ldrb	r3, [r7, #2]
10005ee6:	4640      	mov	r0, r8
10005ee8:	9300      	str	r3, [sp, #0]
10005eea:	f7ff fbb5 	bl	10005658 <configuration_reset>
10005eee:	9b00      	ldr	r3, [sp, #0]
10005ef0:	70bb      	strb	r3, [r7, #2]
10005ef2:	e633      	b.n	10005b5c <tud_task_ext+0x350>
10005ef4:	f8dd 8008 	ldr.w	r8, [sp, #8]
10005ef8:	f7ff fbfe 	bl	100056f8 <tud_mount_cb>
10005efc:	e776      	b.n	10005dec <tud_task_ext+0x5e0>
10005efe:	4640      	mov	r0, r8
10005f00:	2301      	movs	r3, #1
10005f02:	a908      	add	r1, sp, #32
10005f04:	f10d 021a 	add.w	r2, sp, #26
10005f08:	f88d 601a 	strb.w	r6, [sp, #26]
10005f0c:	f000 f914 	bl	10006138 <tud_control_xfer>
10005f10:	e48c      	b.n	1000582c <tud_task_ext+0x20>
10005f12:	780b      	ldrb	r3, [r1, #0]
10005f14:	f891 c003 	ldrb.w	ip, [r1, #3]
10005f18:	4419      	add	r1, r3
10005f1a:	784b      	ldrb	r3, [r1, #1]
10005f1c:	e64d      	b.n	10005bba <tud_task_ext+0x3ae>
10005f1e:	4633      	mov	r3, r6
10005f20:	480f      	ldr	r0, [pc, #60]	@ (10005f60 <tud_task_ext+0x754>)
10005f22:	9203      	str	r2, [sp, #12]
10005f24:	9101      	str	r1, [sp, #4]
10005f26:	f000 fe25 	bl	10006b74 <tu_edpt_bind_driver>
10005f2a:	4b0e      	ldr	r3, [pc, #56]	@ (10005f64 <tud_task_ext+0x758>)
10005f2c:	9901      	ldr	r1, [sp, #4]
10005f2e:	781b      	ldrb	r3, [r3, #0]
10005f30:	9a03      	ldr	r2, [sp, #12]
10005f32:	42b3      	cmp	r3, r6
10005f34:	4411      	add	r1, r2
10005f36:	f4bf ae36 	bcs.w	10005ba6 <tud_task_ext+0x39a>
10005f3a:	e779      	b.n	10005e30 <tud_task_ext+0x624>
10005f3c:	f8d8 0010 	ldr.w	r0, [r8, #16]
10005f40:	4b09      	ldr	r3, [pc, #36]	@ (10005f68 <tud_task_ext+0x75c>)
10005f42:	4298      	cmp	r0, r3
10005f44:	bf08      	it	eq
10005f46:	f04f 0c02 	moveq.w	ip, #2
10005f4a:	e75e      	b.n	10005e0a <tud_task_ext+0x5fe>
10005f4c:	f04f 23e0 	mov.w	r3, #3758153728	@ 0xe000e000
10005f50:	f8d3 3df0 	ldr.w	r3, [r3, #3568]	@ 0xdf0
10005f54:	07db      	lsls	r3, r3, #31
10005f56:	f57f ac69 	bpl.w	1000582c <tud_task_ext+0x20>
10005f5a:	be00      	bkpt	0x0000
10005f5c:	e466      	b.n	1000582c <tud_task_ext+0x20>
10005f5e:	bf00      	nop
10005f60:	20042270 	.word	0x20042270
10005f64:	200429c6 	.word	0x200429c6
10005f68:	10006695 	.word	0x10006695

10005f6c <usbd_open_edpt_pair>:
10005f6c:	e92d 4ff8 	stmdb	sp!, {r3, r4, r5, r6, r7, r8, r9, sl, fp, lr}
10005f70:	f8dd 8028 	ldr.w	r8, [sp, #40]	@ 0x28
10005f74:	2a00      	cmp	r2, #0
10005f76:	d03f      	beq.n	10005ff8 <usbd_open_edpt_pair+0x8c>
10005f78:	460c      	mov	r4, r1
10005f7a:	461e      	mov	r6, r3
10005f7c:	4615      	mov	r5, r2
10005f7e:	f04f 0b00 	mov.w	fp, #0
10005f82:	4f1f      	ldr	r7, [pc, #124]	@ (10006000 <usbd_open_edpt_pair+0x94>)
10005f84:	f8df 907c 	ldr.w	r9, [pc, #124]	@ 10006004 <usbd_open_edpt_pair+0x98>
10005f88:	e017      	b.n	10005fba <usbd_open_edpt_pair+0x4e>
10005f8a:	4620      	mov	r0, r4
10005f8c:	f899 1002 	ldrb.w	r1, [r9, #2]
10005f90:	f000 fdbe 	bl	10006b10 <tu_edpt_validate>
10005f94:	b1f8      	cbz	r0, 10005fd6 <usbd_open_edpt_pair+0x6a>
10005f96:	4621      	mov	r1, r4
10005f98:	4650      	mov	r0, sl
10005f9a:	f7ff fa5d 	bl	10005458 <dcd_edpt_open>
10005f9e:	b308      	cbz	r0, 10005fe4 <usbd_open_edpt_pair+0x78>
10005fa0:	78a3      	ldrb	r3, [r4, #2]
10005fa2:	f10b 0b01 	add.w	fp, fp, #1
10005fa6:	09da      	lsrs	r2, r3, #7
10005fa8:	bf16      	itet	ne
10005faa:	9a0b      	ldrne	r2, [sp, #44]	@ 0x2c
10005fac:	f888 3000 	strbeq.w	r3, [r8]
10005fb0:	7013      	strbne	r3, [r2, #0]
10005fb2:	7823      	ldrb	r3, [r4, #0]
10005fb4:	45ab      	cmp	fp, r5
10005fb6:	441c      	add	r4, r3
10005fb8:	d01e      	beq.n	10005ff8 <usbd_open_edpt_pair+0x8c>
10005fba:	7863      	ldrb	r3, [r4, #1]
10005fbc:	2b05      	cmp	r3, #5
10005fbe:	d111      	bne.n	10005fe4 <usbd_open_edpt_pair+0x78>
10005fc0:	78e1      	ldrb	r1, [r4, #3]
10005fc2:	f001 0103 	and.w	r1, r1, #3
10005fc6:	42b1      	cmp	r1, r6
10005fc8:	d10c      	bne.n	10005fe4 <usbd_open_edpt_pair+0x78>
10005fca:	78a3      	ldrb	r3, [r4, #2]
10005fcc:	f897 a000 	ldrb.w	sl, [r7]
10005fd0:	f013 0f70 	tst.w	r3, #112	@ 0x70
10005fd4:	d0d9      	beq.n	10005f8a <usbd_open_edpt_pair+0x1e>
10005fd6:	f04f 23e0 	mov.w	r3, #3758153728	@ 0xe000e000
10005fda:	f8d3 3df0 	ldr.w	r3, [r3, #3568]	@ 0xdf0
10005fde:	07da      	lsls	r2, r3, #31
10005fe0:	d500      	bpl.n	10005fe4 <usbd_open_edpt_pair+0x78>
10005fe2:	be00      	bkpt	0x0000
10005fe4:	f04f 23e0 	mov.w	r3, #3758153728	@ 0xe000e000
10005fe8:	f8d3 3df0 	ldr.w	r3, [r3, #3568]	@ 0xdf0
10005fec:	07db      	lsls	r3, r3, #31
10005fee:	d500      	bpl.n	10005ff2 <usbd_open_edpt_pair+0x86>
10005ff0:	be00      	bkpt	0x0000
10005ff2:	2000      	movs	r0, #0
10005ff4:	e8bd 8ff8 	ldmia.w	sp!, {r3, r4, r5, r6, r7, r8, r9, sl, fp, pc}
10005ff8:	2001      	movs	r0, #1
10005ffa:	e8bd 8ff8 	ldmia.w	sp!, {r3, r4, r5, r6, r7, r8, r9, sl, fp, pc}
10005ffe:	bf00      	nop
10006000:	20001658 	.word	0x20001658
10006004:	2004225c 	.word	0x2004225c

10006008 <usbd_edpt_open>:
10006008:	b538      	push	{r3, r4, r5, lr}
1000600a:	4b0e      	ldr	r3, [pc, #56]	@ (10006044 <usbd_edpt_open+0x3c>)
1000600c:	781d      	ldrb	r5, [r3, #0]
1000600e:	788b      	ldrb	r3, [r1, #2]
10006010:	f013 0f70 	tst.w	r3, #112	@ 0x70
10006014:	d008      	beq.n	10006028 <usbd_edpt_open+0x20>
10006016:	f04f 23e0 	mov.w	r3, #3758153728	@ 0xe000e000
1000601a:	f8d3 3df0 	ldr.w	r3, [r3, #3568]	@ 0xdf0
1000601e:	07db      	lsls	r3, r3, #31
10006020:	d500      	bpl.n	10006024 <usbd_edpt_open+0x1c>
10006022:	be00      	bkpt	0x0000
10006024:	2000      	movs	r0, #0
10006026:	bd38      	pop	{r3, r4, r5, pc}
10006028:	4b07      	ldr	r3, [pc, #28]	@ (10006048 <usbd_edpt_open+0x40>)
1000602a:	460c      	mov	r4, r1
1000602c:	4608      	mov	r0, r1
1000602e:	7899      	ldrb	r1, [r3, #2]
10006030:	f000 fd6e 	bl	10006b10 <tu_edpt_validate>
10006034:	2800      	cmp	r0, #0
10006036:	d0ee      	beq.n	10006016 <usbd_edpt_open+0xe>
10006038:	4621      	mov	r1, r4
1000603a:	4628      	mov	r0, r5
1000603c:	e8bd 4038 	ldmia.w	sp!, {r3, r4, r5, lr}
10006040:	f7ff ba0a 	b.w	10005458 <dcd_edpt_open>
10006044:	20001658 	.word	0x20001658
10006048:	2004225c 	.word	0x2004225c

1000604c <usbd_edpt_claim>:
1000604c:	460b      	mov	r3, r1
1000604e:	4a06      	ldr	r2, [pc, #24]	@ (10006068 <usbd_edpt_claim+0x1c>)
10006050:	4806      	ldr	r0, [pc, #24]	@ (1000606c <usbd_edpt_claim+0x20>)
10006052:	6811      	ldr	r1, [r2, #0]
10006054:	09da      	lsrs	r2, r3, #7
10006056:	3234      	adds	r2, #52	@ 0x34
10006058:	f003 037f 	and.w	r3, r3, #127	@ 0x7f
1000605c:	eb02 0343 	add.w	r3, r2, r3, lsl #1
10006060:	4418      	add	r0, r3
10006062:	f000 bd0f 	b.w	10006a84 <tu_edpt_claim>
10006066:	bf00      	nop
10006068:	200422b0 	.word	0x200422b0
1000606c:	2004225c 	.word	0x2004225c

10006070 <usbd_edpt_release>:
10006070:	460b      	mov	r3, r1
10006072:	4a06      	ldr	r2, [pc, #24]	@ (1000608c <usbd_edpt_release+0x1c>)
10006074:	4806      	ldr	r0, [pc, #24]	@ (10006090 <usbd_edpt_release+0x20>)
10006076:	6811      	ldr	r1, [r2, #0]
10006078:	09da      	lsrs	r2, r3, #7
1000607a:	3234      	adds	r2, #52	@ 0x34
1000607c:	f003 037f 	and.w	r3, r3, #127	@ 0x7f
10006080:	eb02 0343 	add.w	r3, r2, r3, lsl #1
10006084:	4418      	add	r0, r3
10006086:	f000 bd27 	b.w	10006ad8 <tu_edpt_release>
1000608a:	bf00      	nop
1000608c:	200422b0 	.word	0x200422b0
10006090:	2004225c 	.word	0x2004225c

10006094 <usbd_edpt_xfer>:
10006094:	b510      	push	{r4, lr}
10006096:	4c19      	ldr	r4, [pc, #100]	@ (100060fc <usbd_edpt_xfer+0x68>)
10006098:	f001 0e7f 	and.w	lr, r1, #127	@ 0x7f
1000609c:	eb04 044e 	add.w	r4, r4, lr, lsl #1
100060a0:	eb04 14d1 	add.w	r4, r4, r1, lsr #7
100060a4:	f894 c034 	ldrb.w	ip, [r4, #52]	@ 0x34
100060a8:	4815      	ldr	r0, [pc, #84]	@ (10006100 <usbd_edpt_xfer+0x6c>)
100060aa:	f01c 0f01 	tst.w	ip, #1
100060ae:	f104 0430 	add.w	r4, r4, #48	@ 0x30
100060b2:	7800      	ldrb	r0, [r0, #0]
100060b4:	d008      	beq.n	100060c8 <usbd_edpt_xfer+0x34>
100060b6:	f04f 23e0 	mov.w	r3, #3758153728	@ 0xe000e000
100060ba:	f8d3 3df0 	ldr.w	r3, [r3, #3568]	@ 0xdf0
100060be:	07da      	lsls	r2, r3, #31
100060c0:	d500      	bpl.n	100060c4 <usbd_edpt_xfer+0x30>
100060c2:	be00      	bkpt	0x0000
100060c4:	2000      	movs	r0, #0
100060c6:	bd10      	pop	{r4, pc}
100060c8:	f894 c004 	ldrb.w	ip, [r4, #4]
100060cc:	f04c 0c01 	orr.w	ip, ip, #1
100060d0:	f884 c004 	strb.w	ip, [r4, #4]
100060d4:	f7ff fa3e 	bl	10005554 <dcd_edpt_xfer>
100060d8:	2800      	cmp	r0, #0
100060da:	d1f4      	bne.n	100060c6 <usbd_edpt_xfer+0x32>
100060dc:	f04f 21e0 	mov.w	r1, #3758153728	@ 0xe000e000
100060e0:	7922      	ldrb	r2, [r4, #4]
100060e2:	f360 0200 	bfi	r2, r0, #0, #1
100060e6:	7122      	strb	r2, [r4, #4]
100060e8:	7922      	ldrb	r2, [r4, #4]
100060ea:	f360 0282 	bfi	r2, r0, #2, #1
100060ee:	7122      	strb	r2, [r4, #4]
100060f0:	f8d1 3df0 	ldr.w	r3, [r1, #3568]	@ 0xdf0
100060f4:	07db      	lsls	r3, r3, #31
100060f6:	d5e5      	bpl.n	100060c4 <usbd_edpt_xfer+0x30>
100060f8:	e7e3      	b.n	100060c2 <usbd_edpt_xfer+0x2e>
100060fa:	bf00      	nop
100060fc:	2004225c 	.word	0x2004225c
10006100:	20001658 	.word	0x20001658

10006104 <tud_control_status>:
10006104:	b530      	push	{r4, r5, lr}
10006106:	4c0b      	ldr	r4, [pc, #44]	@ (10006134 <tud_control_status+0x30>)
10006108:	468c      	mov	ip, r1
1000610a:	46a6      	mov	lr, r4
1000610c:	4605      	mov	r5, r0
1000610e:	6808      	ldr	r0, [r1, #0]
10006110:	6849      	ldr	r1, [r1, #4]
10006112:	2300      	movs	r3, #0
10006114:	e8ae 0003 	stmia.w	lr!, {r0, r1}
10006118:	f89c 1000 	ldrb.w	r1, [ip]
1000611c:	4628      	mov	r0, r5
1000611e:	43c9      	mvns	r1, r1
10006120:	e9c4 3302 	strd	r3, r3, [r4, #8]
10006124:	e8bd 4030 	ldmia.w	sp!, {r4, r5, lr}
10006128:	461a      	mov	r2, r3
1000612a:	f001 0180 	and.w	r1, r1, #128	@ 0x80
1000612e:	f7ff bfb1 	b.w	10006094 <usbd_edpt_xfer>
10006132:	bf00      	nop
10006134:	200421e0 	.word	0x200421e0

10006138 <tud_control_xfer>:
10006138:	e92d 41f0 	stmdb	sp!, {r4, r5, r6, r7, r8, lr}
1000613c:	4f27      	ldr	r7, [pc, #156]	@ (100061dc <tud_control_xfer+0xa4>)
1000613e:	f04f 0800 	mov.w	r8, #0
10006142:	46be      	mov	lr, r7
10006144:	468c      	mov	ip, r1
10006146:	4606      	mov	r6, r0
10006148:	6808      	ldr	r0, [r1, #0]
1000614a:	6849      	ldr	r1, [r1, #4]
1000614c:	60ba      	str	r2, [r7, #8]
1000614e:	e8ae 0003 	stmia.w	lr!, {r0, r1}
10006152:	f8a7 800e 	strh.w	r8, [r7, #14]
10006156:	4615      	mov	r5, r2
10006158:	f8bc 2006 	ldrh.w	r2, [ip, #6]
1000615c:	4293      	cmp	r3, r2
1000615e:	bf28      	it	cs
10006160:	4613      	movcs	r3, r2
10006162:	81bb      	strh	r3, [r7, #12]
10006164:	b19a      	cbz	r2, 1000618e <tud_control_xfer+0x56>
10006166:	461c      	mov	r4, r3
10006168:	b32b      	cbz	r3, 100061b6 <tud_control_xfer+0x7e>
1000616a:	b1dd      	cbz	r5, 100061a4 <tud_control_xfer+0x6c>
1000616c:	f997 3000 	ldrsb.w	r3, [r7]
10006170:	2c40      	cmp	r4, #64	@ 0x40
10006172:	bf28      	it	cs
10006174:	2440      	movcs	r4, #64	@ 0x40
10006176:	2b00      	cmp	r3, #0
10006178:	db28      	blt.n	100061cc <tud_control_xfer+0x94>
1000617a:	4641      	mov	r1, r8
1000617c:	4623      	mov	r3, r4
1000617e:	4630      	mov	r0, r6
10006180:	4a17      	ldr	r2, [pc, #92]	@ (100061e0 <tud_control_xfer+0xa8>)
10006182:	f7ff ff87 	bl	10006094 <usbd_edpt_xfer>
10006186:	b168      	cbz	r0, 100061a4 <tud_control_xfer+0x6c>
10006188:	2001      	movs	r0, #1
1000618a:	e8bd 81f0 	ldmia.w	sp!, {r4, r5, r6, r7, r8, pc}
1000618e:	f89c 1000 	ldrb.w	r1, [ip]
10006192:	4613      	mov	r3, r2
10006194:	43c9      	mvns	r1, r1
10006196:	4630      	mov	r0, r6
10006198:	f001 0180 	and.w	r1, r1, #128	@ 0x80
1000619c:	f7ff ff7a 	bl	10006094 <usbd_edpt_xfer>
100061a0:	2800      	cmp	r0, #0
100061a2:	d1f1      	bne.n	10006188 <tud_control_xfer+0x50>
100061a4:	f04f 23e0 	mov.w	r3, #3758153728	@ 0xe000e000
100061a8:	f8d3 3df0 	ldr.w	r3, [r3, #3568]	@ 0xdf0
100061ac:	07db      	lsls	r3, r3, #31
100061ae:	d500      	bpl.n	100061b2 <tud_control_xfer+0x7a>
100061b0:	be00      	bkpt	0x0000
100061b2:	2000      	movs	r0, #0
100061b4:	e7e9      	b.n	1000618a <tud_control_xfer+0x52>
100061b6:	461a      	mov	r2, r3
100061b8:	7839      	ldrb	r1, [r7, #0]
100061ba:	f001 0180 	and.w	r1, r1, #128	@ 0x80
100061be:	4623      	mov	r3, r4
100061c0:	4630      	mov	r0, r6
100061c2:	f7ff ff67 	bl	10006094 <usbd_edpt_xfer>
100061c6:	2800      	cmp	r0, #0
100061c8:	d1de      	bne.n	10006188 <tud_control_xfer+0x50>
100061ca:	e7eb      	b.n	100061a4 <tud_control_xfer+0x6c>
100061cc:	4622      	mov	r2, r4
100061ce:	4629      	mov	r1, r5
100061d0:	4803      	ldr	r0, [pc, #12]	@ (100061e0 <tud_control_xfer+0xa8>)
100061d2:	f001 fb57 	bl	10007884 <memcpy>
100061d6:	2180      	movs	r1, #128	@ 0x80
100061d8:	4a01      	ldr	r2, [pc, #4]	@ (100061e0 <tud_control_xfer+0xa8>)
100061da:	e7f0      	b.n	100061be <tud_control_xfer+0x86>
100061dc:	200421e0 	.word	0x200421e0
100061e0:	2004221c 	.word	0x2004221c

100061e4 <usbd_control_reset>:
100061e4:	2200      	movs	r2, #0
100061e6:	4b03      	ldr	r3, [pc, #12]	@ (100061f4 <usbd_control_reset+0x10>)
100061e8:	e9c3 2200 	strd	r2, r2, [r3]
100061ec:	e9c3 2202 	strd	r2, r2, [r3, #8]
100061f0:	611a      	str	r2, [r3, #16]
100061f2:	4770      	bx	lr
100061f4:	200421e0 	.word	0x200421e0

100061f8 <usbd_control_set_complete_callback>:
100061f8:	4b01      	ldr	r3, [pc, #4]	@ (10006200 <usbd_control_set_complete_callback+0x8>)
100061fa:	6118      	str	r0, [r3, #16]
100061fc:	4770      	bx	lr
100061fe:	bf00      	nop
10006200:	200421e0 	.word	0x200421e0

10006204 <usbd_control_set_request>:
10006204:	b430      	push	{r4, r5}
10006206:	4602      	mov	r2, r0
10006208:	4c04      	ldr	r4, [pc, #16]	@ (1000621c <usbd_control_set_request+0x18>)
1000620a:	2500      	movs	r5, #0
1000620c:	4623      	mov	r3, r4
1000620e:	6800      	ldr	r0, [r0, #0]
10006210:	6851      	ldr	r1, [r2, #4]
10006212:	e9c4 5502 	strd	r5, r5, [r4, #8]
10006216:	bc30      	pop	{r4, r5}
10006218:	c303      	stmia	r3!, {r0, r1}
1000621a:	4770      	bx	lr
1000621c:	200421e0 	.word	0x200421e0

10006220 <usbd_control_xfer_cb>:
10006220:	b570      	push	{r4, r5, r6, lr}
10006222:	4c3c      	ldr	r4, [pc, #240]	@ (10006314 <usbd_control_xfer_cb+0xf4>)
10006224:	09c9      	lsrs	r1, r1, #7
10006226:	7822      	ldrb	r2, [r4, #0]
10006228:	4606      	mov	r6, r0
1000622a:	ebb1 1fd2 	cmp.w	r1, r2, lsr #7
1000622e:	461d      	mov	r5, r3
10006230:	b082      	sub	sp, #8
10006232:	d017      	beq.n	10006264 <usbd_control_xfer_cb+0x44>
10006234:	b153      	cbz	r3, 1000624c <usbd_control_xfer_cb+0x2c>
10006236:	f04f 23e0 	mov.w	r3, #3758153728	@ 0xe000e000
1000623a:	f8d3 3df0 	ldr.w	r3, [r3, #3568]	@ 0xdf0
1000623e:	07db      	lsls	r3, r3, #31
10006240:	d402      	bmi.n	10006248 <usbd_control_xfer_cb+0x28>
10006242:	2000      	movs	r0, #0
10006244:	b002      	add	sp, #8
10006246:	bd70      	pop	{r4, r5, r6, pc}
10006248:	be00      	bkpt	0x0000
1000624a:	e7fa      	b.n	10006242 <usbd_control_xfer_cb+0x22>
1000624c:	4621      	mov	r1, r4
1000624e:	f7ff f8f5 	bl	1000543c <dcd_edpt0_status_complete>
10006252:	6923      	ldr	r3, [r4, #16]
10006254:	b11b      	cbz	r3, 1000625e <usbd_control_xfer_cb+0x3e>
10006256:	4622      	mov	r2, r4
10006258:	2103      	movs	r1, #3
1000625a:	4630      	mov	r0, r6
1000625c:	4798      	blx	r3
1000625e:	2001      	movs	r0, #1
10006260:	b002      	add	sp, #8
10006262:	bd70      	pop	{r4, r5, r6, pc}
10006264:	f994 3000 	ldrsb.w	r3, [r4]
10006268:	68a0      	ldr	r0, [r4, #8]
1000626a:	2b00      	cmp	r3, #0
1000626c:	db05      	blt.n	1000627a <usbd_control_xfer_cb+0x5a>
1000626e:	2800      	cmp	r0, #0
10006270:	d0e7      	beq.n	10006242 <usbd_control_xfer_cb+0x22>
10006272:	462a      	mov	r2, r5
10006274:	4928      	ldr	r1, [pc, #160]	@ (10006318 <usbd_control_xfer_cb+0xf8>)
10006276:	f001 fb05 	bl	10007884 <memcpy>
1000627a:	89e0      	ldrh	r0, [r4, #14]
1000627c:	68a1      	ldr	r1, [r4, #8]
1000627e:	88e3      	ldrh	r3, [r4, #6]
10006280:	4428      	add	r0, r5
10006282:	b280      	uxth	r0, r0
10006284:	4429      	add	r1, r5
10006286:	4283      	cmp	r3, r0
10006288:	81e0      	strh	r0, [r4, #14]
1000628a:	60a1      	str	r1, [r4, #8]
1000628c:	d016      	beq.n	100062bc <usbd_control_xfer_cb+0x9c>
1000628e:	2d3f      	cmp	r5, #63	@ 0x3f
10006290:	d914      	bls.n	100062bc <usbd_control_xfer_cb+0x9c>
10006292:	89a2      	ldrh	r2, [r4, #12]
10006294:	f994 4000 	ldrsb.w	r4, [r4]
10006298:	1a13      	subs	r3, r2, r0
1000629a:	b29b      	uxth	r3, r3
1000629c:	2b40      	cmp	r3, #64	@ 0x40
1000629e:	bf28      	it	cs
100062a0:	2340      	movcs	r3, #64	@ 0x40
100062a2:	2c00      	cmp	r4, #0
100062a4:	db26      	blt.n	100062f4 <usbd_control_xfer_cb+0xd4>
100062a6:	4290      	cmp	r0, r2
100062a8:	f04f 0100 	mov.w	r1, #0
100062ac:	d030      	beq.n	10006310 <usbd_control_xfer_cb+0xf0>
100062ae:	4a1a      	ldr	r2, [pc, #104]	@ (10006318 <usbd_control_xfer_cb+0xf8>)
100062b0:	4630      	mov	r0, r6
100062b2:	f7ff feef 	bl	10006094 <usbd_edpt_xfer>
100062b6:	2800      	cmp	r0, #0
100062b8:	d1d1      	bne.n	1000625e <usbd_control_xfer_cb+0x3e>
100062ba:	e7bc      	b.n	10006236 <usbd_control_xfer_cb+0x16>
100062bc:	6923      	ldr	r3, [r4, #16]
100062be:	b123      	cbz	r3, 100062ca <usbd_control_xfer_cb+0xaa>
100062c0:	2102      	movs	r1, #2
100062c2:	4630      	mov	r0, r6
100062c4:	4a13      	ldr	r2, [pc, #76]	@ (10006314 <usbd_control_xfer_cb+0xf4>)
100062c6:	4798      	blx	r3
100062c8:	b158      	cbz	r0, 100062e2 <usbd_control_xfer_cb+0xc2>
100062ca:	7821      	ldrb	r1, [r4, #0]
100062cc:	2300      	movs	r3, #0
100062ce:	43c9      	mvns	r1, r1
100062d0:	4630      	mov	r0, r6
100062d2:	461a      	mov	r2, r3
100062d4:	f001 0180 	and.w	r1, r1, #128	@ 0x80
100062d8:	f7ff fedc 	bl	10006094 <usbd_edpt_xfer>
100062dc:	2800      	cmp	r0, #0
100062de:	d1be      	bne.n	1000625e <usbd_control_xfer_cb+0x3e>
100062e0:	e7a9      	b.n	10006236 <usbd_control_xfer_cb+0x16>
100062e2:	4601      	mov	r1, r0
100062e4:	4630      	mov	r0, r6
100062e6:	f7ff f949 	bl	1000557c <dcd_edpt_stall>
100062ea:	2180      	movs	r1, #128	@ 0x80
100062ec:	4630      	mov	r0, r6
100062ee:	f7ff f945 	bl	1000557c <dcd_edpt_stall>
100062f2:	e7b4      	b.n	1000625e <usbd_control_xfer_cb+0x3e>
100062f4:	4290      	cmp	r0, r2
100062f6:	d008      	beq.n	1000630a <usbd_control_xfer_cb+0xea>
100062f8:	461a      	mov	r2, r3
100062fa:	4807      	ldr	r0, [pc, #28]	@ (10006318 <usbd_control_xfer_cb+0xf8>)
100062fc:	9301      	str	r3, [sp, #4]
100062fe:	f001 fac1 	bl	10007884 <memcpy>
10006302:	2180      	movs	r1, #128	@ 0x80
10006304:	4a04      	ldr	r2, [pc, #16]	@ (10006318 <usbd_control_xfer_cb+0xf8>)
10006306:	9b01      	ldr	r3, [sp, #4]
10006308:	e7d2      	b.n	100062b0 <usbd_control_xfer_cb+0x90>
1000630a:	2180      	movs	r1, #128	@ 0x80
1000630c:	2200      	movs	r2, #0
1000630e:	e7cf      	b.n	100062b0 <usbd_control_xfer_cb+0x90>
10006310:	460a      	mov	r2, r1
10006312:	e7cd      	b.n	100062b0 <usbd_control_xfer_cb+0x90>
10006314:	200421e0 	.word	0x200421e0
10006318:	2004221c 	.word	0x2004221c

1000631c <_prep_out_transaction.isra.0>:
1000631c:	b570      	push	{r4, r5, r6, lr}
1000631e:	4604      	mov	r4, r0
10006320:	f7ff f9f2 	bl	10005708 <tud_mounted>
10006324:	b900      	cbnz	r0, 10006328 <_prep_out_transaction.isra.0+0xc>
10006326:	bd70      	pop	{r4, r5, r6, pc}
10006328:	f7ff f9f6 	bl	10005718 <tud_suspended>
1000632c:	4605      	mov	r5, r0
1000632e:	2800      	cmp	r0, #0
10006330:	d1f9      	bne.n	10006326 <_prep_out_transaction.isra.0+0xa>
10006332:	78e3      	ldrb	r3, [r4, #3]
10006334:	2b00      	cmp	r3, #0
10006336:	d0f6      	beq.n	10006326 <_prep_out_transaction.isra.0+0xa>
10006338:	f104 0610 	add.w	r6, r4, #16
1000633c:	4630      	mov	r0, r6
1000633e:	f000 fc8f 	bl	10006c60 <tu_fifo_remaining>
10006342:	283f      	cmp	r0, #63	@ 0x3f
10006344:	d9ef      	bls.n	10006326 <_prep_out_transaction.isra.0+0xa>
10006346:	4628      	mov	r0, r5
10006348:	78e1      	ldrb	r1, [r4, #3]
1000634a:	f7ff fe7f 	bl	1000604c <usbd_edpt_claim>
1000634e:	2800      	cmp	r0, #0
10006350:	d0e9      	beq.n	10006326 <_prep_out_transaction.isra.0+0xa>
10006352:	4630      	mov	r0, r6
10006354:	f000 fc84 	bl	10006c60 <tu_fifo_remaining>
10006358:	283f      	cmp	r0, #63	@ 0x3f
1000635a:	d909      	bls.n	10006370 <_prep_out_transaction.isra.0+0x54>
1000635c:	f504 3280 	add.w	r2, r4, #65536	@ 0x10000
10006360:	4628      	mov	r0, r5
10006362:	78e1      	ldrb	r1, [r4, #3]
10006364:	2340      	movs	r3, #64	@ 0x40
10006366:	e8bd 4070 	ldmia.w	sp!, {r4, r5, r6, lr}
1000636a:	3248      	adds	r2, #72	@ 0x48
1000636c:	f7ff be92 	b.w	10006094 <usbd_edpt_xfer>
10006370:	4628      	mov	r0, r5
10006372:	78e1      	ldrb	r1, [r4, #3]
10006374:	e8bd 4070 	ldmia.w	sp!, {r4, r5, r6, lr}
10006378:	f7ff be7a 	b.w	10006070 <usbd_edpt_release>

1000637c <tud_cdc_n_available>:
1000637c:	b508      	push	{r3, lr}
1000637e:	4a03      	ldr	r2, [pc, #12]	@ (1000638c <tud_cdc_n_available+0x10>)
10006380:	4b03      	ldr	r3, [pc, #12]	@ (10006390 <tud_cdc_n_available+0x14>)
10006382:	fb02 3000 	mla	r0, r2, r0, r3
10006386:	f000 fc51 	bl	10006c2c <tu_fifo_count>
1000638a:	bd08      	pop	{r3, pc}
1000638c:	000100c8 	.word	0x000100c8
10006390:	20001bd8 	.word	0x20001bd8

10006394 <tud_cdc_n_read>:
10006394:	e92d 43f8 	stmdb	sp!, {r3, r4, r5, r6, r7, r8, r9, lr}
10006398:	f64f 74ff 	movw	r4, #65535	@ 0xffff
1000639c:	42a2      	cmp	r2, r4
1000639e:	bf28      	it	cs
100063a0:	4622      	movcs	r2, r4
100063a2:	4b1f      	ldr	r3, [pc, #124]	@ (10006420 <tud_cdc_n_read+0x8c>)
100063a4:	4f1f      	ldr	r7, [pc, #124]	@ (10006424 <tud_cdc_n_read+0x90>)
100063a6:	fb03 f400 	mul.w	r4, r3, r0
100063aa:	f104 0510 	add.w	r5, r4, #16
100063ae:	443d      	add	r5, r7
100063b0:	4628      	mov	r0, r5
100063b2:	b292      	uxth	r2, r2
100063b4:	f000 fcb0 	bl	10006d18 <tu_fifo_read_n>
100063b8:	4606      	mov	r6, r0
100063ba:	f7ff f9a5 	bl	10005708 <tud_mounted>
100063be:	b910      	cbnz	r0, 100063c6 <tud_cdc_n_read+0x32>
100063c0:	4630      	mov	r0, r6
100063c2:	e8bd 83f8 	ldmia.w	sp!, {r3, r4, r5, r6, r7, r8, r9, pc}
100063c6:	f7ff f9a7 	bl	10005718 <tud_suspended>
100063ca:	4681      	mov	r9, r0
100063cc:	2800      	cmp	r0, #0
100063ce:	d1f7      	bne.n	100063c0 <tud_cdc_n_read+0x2c>
100063d0:	eb07 0804 	add.w	r8, r7, r4
100063d4:	f898 3003 	ldrb.w	r3, [r8, #3]
100063d8:	2b00      	cmp	r3, #0
100063da:	d0f1      	beq.n	100063c0 <tud_cdc_n_read+0x2c>
100063dc:	4628      	mov	r0, r5
100063de:	f000 fc3f 	bl	10006c60 <tu_fifo_remaining>
100063e2:	283f      	cmp	r0, #63	@ 0x3f
100063e4:	d9ec      	bls.n	100063c0 <tud_cdc_n_read+0x2c>
100063e6:	4648      	mov	r0, r9
100063e8:	f898 1003 	ldrb.w	r1, [r8, #3]
100063ec:	f7ff fe2e 	bl	1000604c <usbd_edpt_claim>
100063f0:	2800      	cmp	r0, #0
100063f2:	d0e5      	beq.n	100063c0 <tud_cdc_n_read+0x2c>
100063f4:	4628      	mov	r0, r5
100063f6:	f000 fc33 	bl	10006c60 <tu_fifo_remaining>
100063fa:	283f      	cmp	r0, #63	@ 0x3f
100063fc:	d90a      	bls.n	10006414 <tud_cdc_n_read+0x80>
100063fe:	f504 3280 	add.w	r2, r4, #65536	@ 0x10000
10006402:	3248      	adds	r2, #72	@ 0x48
10006404:	4648      	mov	r0, r9
10006406:	2340      	movs	r3, #64	@ 0x40
10006408:	f898 1003 	ldrb.w	r1, [r8, #3]
1000640c:	443a      	add	r2, r7
1000640e:	f7ff fe41 	bl	10006094 <usbd_edpt_xfer>
10006412:	e7d5      	b.n	100063c0 <tud_cdc_n_read+0x2c>
10006414:	4648      	mov	r0, r9
10006416:	f898 1003 	ldrb.w	r1, [r8, #3]
1000641a:	f7ff fe29 	bl	10006070 <usbd_edpt_release>
1000641e:	e7cf      	b.n	100063c0 <tud_cdc_n_read+0x2c>
10006420:	000100c8 	.word	0x000100c8
10006424:	20001bc8 	.word	0x20001bc8

10006428 <tud_cdc_n_write_flush>:
10006428:	e92d 41f0 	stmdb	sp!, {r4, r5, r6, r7, r8, lr}
1000642c:	4604      	mov	r4, r0
1000642e:	f7ff f96b 	bl	10005708 <tud_mounted>
10006432:	b910      	cbnz	r0, 1000643a <tud_cdc_n_write_flush+0x12>
10006434:	2000      	movs	r0, #0
10006436:	e8bd 81f0 	ldmia.w	sp!, {r4, r5, r6, r7, r8, pc}
1000643a:	f7ff f96d 	bl	10005718 <tud_suspended>
1000643e:	4606      	mov	r6, r0
10006440:	2800      	cmp	r0, #0
10006442:	d1f7      	bne.n	10006434 <tud_cdc_n_write_flush+0xc>
10006444:	4b1a      	ldr	r3, [pc, #104]	@ (100064b0 <tud_cdc_n_write_flush+0x88>)
10006446:	f8df 806c 	ldr.w	r8, [pc, #108]	@ 100064b4 <tud_cdc_n_write_flush+0x8c>
1000644a:	fb03 f404 	mul.w	r4, r3, r4
1000644e:	f104 0524 	add.w	r5, r4, #36	@ 0x24
10006452:	4445      	add	r5, r8
10006454:	4628      	mov	r0, r5
10006456:	f000 fbe9 	bl	10006c2c <tu_fifo_count>
1000645a:	2800      	cmp	r0, #0
1000645c:	d0ea      	beq.n	10006434 <tud_cdc_n_write_flush+0xc>
1000645e:	eb08 0704 	add.w	r7, r8, r4
10006462:	4630      	mov	r0, r6
10006464:	78b9      	ldrb	r1, [r7, #2]
10006466:	f7ff fdf1 	bl	1000604c <usbd_edpt_claim>
1000646a:	2800      	cmp	r0, #0
1000646c:	d0e2      	beq.n	10006434 <tud_cdc_n_write_flush+0xc>
1000646e:	f504 3480 	add.w	r4, r4, #65536	@ 0x10000
10006472:	3488      	adds	r4, #136	@ 0x88
10006474:	4444      	add	r4, r8
10006476:	4628      	mov	r0, r5
10006478:	2240      	movs	r2, #64	@ 0x40
1000647a:	4621      	mov	r1, r4
1000647c:	f000 fc4c 	bl	10006d18 <tu_fifo_read_n>
10006480:	4605      	mov	r5, r0
10006482:	b180      	cbz	r0, 100064a6 <tud_cdc_n_write_flush+0x7e>
10006484:	4603      	mov	r3, r0
10006486:	4622      	mov	r2, r4
10006488:	4630      	mov	r0, r6
1000648a:	78b9      	ldrb	r1, [r7, #2]
1000648c:	f7ff fe02 	bl	10006094 <usbd_edpt_xfer>
10006490:	b938      	cbnz	r0, 100064a2 <tud_cdc_n_write_flush+0x7a>
10006492:	f04f 23e0 	mov.w	r3, #3758153728	@ 0xe000e000
10006496:	f8d3 3df0 	ldr.w	r3, [r3, #3568]	@ 0xdf0
1000649a:	07db      	lsls	r3, r3, #31
1000649c:	d5ca      	bpl.n	10006434 <tud_cdc_n_write_flush+0xc>
1000649e:	be00      	bkpt	0x0000
100064a0:	e7c8      	b.n	10006434 <tud_cdc_n_write_flush+0xc>
100064a2:	4628      	mov	r0, r5
100064a4:	e7c7      	b.n	10006436 <tud_cdc_n_write_flush+0xe>
100064a6:	78b9      	ldrb	r1, [r7, #2]
100064a8:	f7ff fde2 	bl	10006070 <usbd_edpt_release>
100064ac:	e7c2      	b.n	10006434 <tud_cdc_n_write_flush+0xc>
100064ae:	bf00      	nop
100064b0:	000100c8 	.word	0x000100c8
100064b4:	20001bc8 	.word	0x20001bc8

100064b8 <tud_cdc_n_write>:
100064b8:	b538      	push	{r3, r4, r5, lr}
100064ba:	f64f 75ff 	movw	r5, #65535	@ 0xffff
100064be:	42aa      	cmp	r2, r5
100064c0:	bf28      	it	cs
100064c2:	462a      	movcs	r2, r5
100064c4:	4b0b      	ldr	r3, [pc, #44]	@ (100064f4 <tud_cdc_n_write+0x3c>)
100064c6:	4c0c      	ldr	r4, [pc, #48]	@ (100064f8 <tud_cdc_n_write+0x40>)
100064c8:	b292      	uxth	r2, r2
100064ca:	fb03 4400 	mla	r4, r3, r0, r4
100064ce:	4605      	mov	r5, r0
100064d0:	4620      	mov	r0, r4
100064d2:	f000 fcdd 	bl	10006e90 <tu_fifo_write_n>
100064d6:	4603      	mov	r3, r0
100064d8:	4620      	mov	r0, r4
100064da:	461c      	mov	r4, r3
100064dc:	f000 fba6 	bl	10006c2c <tu_fifo_count>
100064e0:	283f      	cmp	r0, #63	@ 0x3f
100064e2:	d801      	bhi.n	100064e8 <tud_cdc_n_write+0x30>
100064e4:	4620      	mov	r0, r4
100064e6:	bd38      	pop	{r3, r4, r5, pc}
100064e8:	4628      	mov	r0, r5
100064ea:	f7ff ff9d 	bl	10006428 <tud_cdc_n_write_flush>
100064ee:	4620      	mov	r0, r4
100064f0:	bd38      	pop	{r3, r4, r5, pc}
100064f2:	bf00      	nop
100064f4:	000100c8 	.word	0x000100c8
100064f8:	20001bec 	.word	0x20001bec

100064fc <cdcd_init>:
100064fc:	e92d 4ff0 	stmdb	sp!, {r4, r5, r6, r7, r8, r9, sl, fp, lr}
10006500:	4a23      	ldr	r2, [pc, #140]	@ (10006590 <cdcd_init+0x94>)
10006502:	2100      	movs	r1, #0
10006504:	4823      	ldr	r0, [pc, #140]	@ (10006594 <cdcd_init+0x98>)
10006506:	b083      	sub	sp, #12
10006508:	f001 f940 	bl	1000778c <memset>
1000650c:	2200      	movs	r2, #0
1000650e:	f04f 0bff 	mov.w	fp, #255	@ 0xff
10006512:	f04f 0a01 	mov.w	sl, #1
10006516:	4b20      	ldr	r3, [pc, #128]	@ (10006598 <cdcd_init+0x9c>)
10006518:	4c20      	ldr	r4, [pc, #128]	@ (1000659c <cdcd_init+0xa0>)
1000651a:	f8df 9084 	ldr.w	r9, [pc, #132]	@ 100065a0 <cdcd_init+0xa4>
1000651e:	701a      	strb	r2, [r3, #0]
10006520:	2500      	movs	r5, #0
10006522:	f44f 37e1 	mov.w	r7, #115200	@ 0x1c200
10006526:	2608      	movs	r6, #8
10006528:	f844 7c08 	str.w	r7, [r4, #-8]
1000652c:	f804 6c02 	strb.w	r6, [r4, #-2]
10006530:	f804 bc0b 	strb.w	fp, [r4, #-11]
10006534:	f104 0128 	add.w	r1, r4, #40	@ 0x28
10006538:	f824 5c04 	strh.w	r5, [r4, #-4]
1000653c:	2301      	movs	r3, #1
1000653e:	f44f 4200 	mov.w	r2, #32768	@ 0x8000
10006542:	4620      	mov	r0, r4
10006544:	9500      	str	r5, [sp, #0]
10006546:	f000 fb41 	bl	10006bcc <tu_fifo_config>
1000654a:	f44f 4200 	mov.w	r2, #32768	@ 0x8000
1000654e:	f504 3680 	add.w	r6, r4, #65536	@ 0x10000
10006552:	18a1      	adds	r1, r4, r2
10006554:	2301      	movs	r3, #1
10006556:	3128      	adds	r1, #40	@ 0x28
10006558:	f104 0014 	add.w	r0, r4, #20
1000655c:	f106 0828 	add.w	r8, r6, #40	@ 0x28
10006560:	f8cd a000 	str.w	sl, [sp]
10006564:	f000 fb32 	bl	10006bcc <tu_fifo_config>
10006568:	f106 0730 	add.w	r7, r6, #48	@ 0x30
1000656c:	4640      	mov	r0, r8
1000656e:	f7fb fde5 	bl	1000213c <mutex_init>
10006572:	4638      	mov	r0, r7
10006574:	f7fb fde2 	bl	1000213c <mutex_init>
10006578:	e9c4 5803 	strd	r5, r8, [r4, #12]
1000657c:	e9c4 7508 	strd	r7, r5, [r4, #32]
10006580:	f106 04c8 	add.w	r4, r6, #200	@ 0xc8
10006584:	454c      	cmp	r4, r9
10006586:	d1cb      	bne.n	10006520 <cdcd_init+0x24>
10006588:	b003      	add	sp, #12
1000658a:	e8bd 8ff0 	ldmia.w	sp!, {r4, r5, r6, r7, r8, r9, sl, fp, pc}
1000658e:	bf00      	nop
10006590:	00040320 	.word	0x00040320
10006594:	20001bc8 	.word	0x20001bc8
10006598:	200421dc 	.word	0x200421dc
1000659c:	20001bd8 	.word	0x20001bd8
100065a0:	20041ef8 	.word	0x20041ef8

100065a4 <cdcd_deinit>:
100065a4:	4b1b      	ldr	r3, [pc, #108]	@ (10006614 <cdcd_deinit+0x70>)
100065a6:	6a1a      	ldr	r2, [r3, #32]
100065a8:	6b19      	ldr	r1, [r3, #48]	@ 0x30
100065aa:	b112      	cbz	r2, 100065b2 <cdcd_deinit+0xe>
100065ac:	2200      	movs	r2, #0
100065ae:	e9c3 2207 	strd	r2, r2, [r3, #28]
100065b2:	b119      	cbz	r1, 100065bc <cdcd_deinit+0x18>
100065b4:	2000      	movs	r0, #0
100065b6:	2100      	movs	r1, #0
100065b8:	e9c3 010c 	strd	r0, r1, [r3, #48]	@ 0x30
100065bc:	4b16      	ldr	r3, [pc, #88]	@ (10006618 <cdcd_deinit+0x74>)
100065be:	f8d3 20e8 	ldr.w	r2, [r3, #232]	@ 0xe8
100065c2:	f8d3 00f8 	ldr.w	r0, [r3, #248]	@ 0xf8
100065c6:	b112      	cbz	r2, 100065ce <cdcd_deinit+0x2a>
100065c8:	2100      	movs	r1, #0
100065ca:	e9c3 1139 	strd	r1, r1, [r3, #228]	@ 0xe4
100065ce:	b118      	cbz	r0, 100065d8 <cdcd_deinit+0x34>
100065d0:	2000      	movs	r0, #0
100065d2:	2100      	movs	r1, #0
100065d4:	e9c3 013e 	strd	r0, r1, [r3, #248]	@ 0xf8
100065d8:	4b10      	ldr	r3, [pc, #64]	@ (1000661c <cdcd_deinit+0x78>)
100065da:	f8d3 21b0 	ldr.w	r2, [r3, #432]	@ 0x1b0
100065de:	f8d3 11c0 	ldr.w	r1, [r3, #448]	@ 0x1c0
100065e2:	b112      	cbz	r2, 100065ea <cdcd_deinit+0x46>
100065e4:	2200      	movs	r2, #0
100065e6:	e9c3 226b 	strd	r2, r2, [r3, #428]	@ 0x1ac
100065ea:	b119      	cbz	r1, 100065f4 <cdcd_deinit+0x50>
100065ec:	2000      	movs	r0, #0
100065ee:	2100      	movs	r1, #0
100065f0:	e9c3 0170 	strd	r0, r1, [r3, #448]	@ 0x1c0
100065f4:	4b0a      	ldr	r3, [pc, #40]	@ (10006620 <cdcd_deinit+0x7c>)
100065f6:	f8d3 2278 	ldr.w	r2, [r3, #632]	@ 0x278
100065fa:	f8d3 0288 	ldr.w	r0, [r3, #648]	@ 0x288
100065fe:	b112      	cbz	r2, 10006606 <cdcd_deinit+0x62>
10006600:	2100      	movs	r1, #0
10006602:	e9c3 119d 	strd	r1, r1, [r3, #628]	@ 0x274
10006606:	b118      	cbz	r0, 10006610 <cdcd_deinit+0x6c>
10006608:	2000      	movs	r0, #0
1000660a:	2100      	movs	r1, #0
1000660c:	e9c3 01a2 	strd	r0, r1, [r3, #648]	@ 0x288
10006610:	2001      	movs	r0, #1
10006612:	4770      	bx	lr
10006614:	20001bc8 	.word	0x20001bc8
10006618:	20011bc8 	.word	0x20011bc8
1000661c:	20021bc8 	.word	0x20021bc8
10006620:	20031bc8 	.word	0x20031bc8

10006624 <cdcd_reset>:
10006624:	e92d 41f0 	stmdb	sp!, {r4, r5, r6, r7, r8, lr}
10006628:	2600      	movs	r6, #0
1000662a:	4c17      	ldr	r4, [pc, #92]	@ (10006688 <cdcd_reset+0x64>)
1000662c:	f8df 8060 	ldr.w	r8, [pc, #96]	@ 10006690 <cdcd_reset+0x6c>
10006630:	4f16      	ldr	r7, [pc, #88]	@ (1000668c <cdcd_reset+0x68>)
10006632:	783b      	ldrb	r3, [r7, #0]
10006634:	6026      	str	r6, [r4, #0]
10006636:	07da      	lsls	r2, r3, #31
10006638:	7126      	strb	r6, [r4, #4]
1000663a:	d51f      	bpl.n	1000667c <cdcd_reset+0x58>
1000663c:	079b      	lsls	r3, r3, #30
1000663e:	f104 0524 	add.w	r5, r4, #36	@ 0x24
10006642:	d50a      	bpl.n	1000665a <cdcd_reset+0x36>
10006644:	f504 3480 	add.w	r4, r4, #65536	@ 0x10000
10006648:	2101      	movs	r1, #1
1000664a:	4628      	mov	r0, r5
1000664c:	34c8      	adds	r4, #200	@ 0xc8
1000664e:	f000 fce7 	bl	10007020 <tu_fifo_set_overwritable>
10006652:	45a0      	cmp	r8, r4
10006654:	d1ed      	bne.n	10006632 <cdcd_reset+0xe>
10006656:	e8bd 81f0 	ldmia.w	sp!, {r4, r5, r6, r7, r8, pc}
1000665a:	4628      	mov	r0, r5
1000665c:	f504 3480 	add.w	r4, r4, #65536	@ 0x10000
10006660:	f000 fcc2 	bl	10006fe8 <tu_fifo_clear>
10006664:	34c8      	adds	r4, #200	@ 0xc8
10006666:	2101      	movs	r1, #1
10006668:	4628      	mov	r0, r5
1000666a:	f000 fcd9 	bl	10007020 <tu_fifo_set_overwritable>
1000666e:	4544      	cmp	r4, r8
10006670:	d0f1      	beq.n	10006656 <cdcd_reset+0x32>
10006672:	783b      	ldrb	r3, [r7, #0]
10006674:	6026      	str	r6, [r4, #0]
10006676:	07da      	lsls	r2, r3, #31
10006678:	7126      	strb	r6, [r4, #4]
1000667a:	d4df      	bmi.n	1000663c <cdcd_reset+0x18>
1000667c:	f104 0010 	add.w	r0, r4, #16
10006680:	f000 fcb2 	bl	10006fe8 <tu_fifo_clear>
10006684:	783b      	ldrb	r3, [r7, #0]
10006686:	e7d9      	b.n	1000663c <cdcd_reset+0x18>
10006688:	20001bc8 	.word	0x20001bc8
1000668c:	200421dc 	.word	0x200421dc
10006690:	20041ee8 	.word	0x20041ee8

10006694 <cdcd_open>:
10006694:	e92d 47f0 	stmdb	sp!, {r4, r5, r6, r7, r8, r9, sl, lr}
10006698:	794b      	ldrb	r3, [r1, #5]
1000669a:	b082      	sub	sp, #8
1000669c:	2b02      	cmp	r3, #2
1000669e:	d004      	beq.n	100066aa <cdcd_open+0x16>
100066a0:	2600      	movs	r6, #0
100066a2:	4630      	mov	r0, r6
100066a4:	b002      	add	sp, #8
100066a6:	e8bd 87f0 	ldmia.w	sp!, {r4, r5, r6, r7, r8, r9, sl, pc}
100066aa:	798b      	ldrb	r3, [r1, #6]
100066ac:	2b02      	cmp	r3, #2
100066ae:	d1f7      	bne.n	100066a0 <cdcd_open+0xc>
100066b0:	4f38      	ldr	r7, [pc, #224]	@ (10006794 <cdcd_open+0x100>)
100066b2:	4605      	mov	r5, r0
100066b4:	78b8      	ldrb	r0, [r7, #2]
100066b6:	b1d0      	cbz	r0, 100066ee <cdcd_open+0x5a>
100066b8:	f507 3080 	add.w	r0, r7, #65536	@ 0x10000
100066bc:	f890 00ca 	ldrb.w	r0, [r0, #202]	@ 0xca
100066c0:	2800      	cmp	r0, #0
100066c2:	d03a      	beq.n	1000673a <cdcd_open+0xa6>
100066c4:	f507 3000 	add.w	r0, r7, #131072	@ 0x20000
100066c8:	f890 0192 	ldrb.w	r0, [r0, #402]	@ 0x192
100066cc:	2800      	cmp	r0, #0
100066ce:	d037      	beq.n	10006740 <cdcd_open+0xac>
100066d0:	f507 3340 	add.w	r3, r7, #196608	@ 0x30000
100066d4:	f893 325a 	ldrb.w	r3, [r3, #602]	@ 0x25a
100066d8:	f04f 0a03 	mov.w	sl, #3
100066dc:	b143      	cbz	r3, 100066f0 <cdcd_open+0x5c>
100066de:	f04f 23e0 	mov.w	r3, #3758153728	@ 0xe000e000
100066e2:	f8d3 3df0 	ldr.w	r3, [r3, #3568]	@ 0xdf0
100066e6:	07db      	lsls	r3, r3, #31
100066e8:	d5da      	bpl.n	100066a0 <cdcd_open+0xc>
100066ea:	be00      	bkpt	0x0000
100066ec:	e7d8      	b.n	100066a0 <cdcd_open+0xc>
100066ee:	4682      	mov	sl, r0
100066f0:	4b29      	ldr	r3, [pc, #164]	@ (10006798 <cdcd_open+0x104>)
100066f2:	2609      	movs	r6, #9
100066f4:	fb03 f80a 	mul.w	r8, r3, sl
100066f8:	788b      	ldrb	r3, [r1, #2]
100066fa:	eb07 0908 	add.w	r9, r7, r8
100066fe:	f807 3008 	strb.w	r3, [r7, r8]
10006702:	780b      	ldrb	r3, [r1, #0]
10006704:	18cc      	adds	r4, r1, r3
10006706:	7861      	ldrb	r1, [r4, #1]
10006708:	2924      	cmp	r1, #36	@ 0x24
1000670a:	d10b      	bne.n	10006724 <cdcd_open+0x90>
1000670c:	2a08      	cmp	r2, #8
1000670e:	d802      	bhi.n	10006716 <cdcd_open+0x82>
10006710:	e00f      	b.n	10006732 <cdcd_open+0x9e>
10006712:	42b2      	cmp	r2, r6
10006714:	d30d      	bcc.n	10006732 <cdcd_open+0x9e>
10006716:	7823      	ldrb	r3, [r4, #0]
10006718:	441c      	add	r4, r3
1000671a:	7861      	ldrb	r1, [r4, #1]
1000671c:	4433      	add	r3, r6
1000671e:	2924      	cmp	r1, #36	@ 0x24
10006720:	b29e      	uxth	r6, r3
10006722:	d0f6      	beq.n	10006712 <cdcd_open+0x7e>
10006724:	2905      	cmp	r1, #5
10006726:	d00d      	beq.n	10006744 <cdcd_open+0xb0>
10006728:	2904      	cmp	r1, #4
1000672a:	d102      	bne.n	10006732 <cdcd_open+0x9e>
1000672c:	7963      	ldrb	r3, [r4, #5]
1000672e:	2b0a      	cmp	r3, #10
10006730:	d01a      	beq.n	10006768 <cdcd_open+0xd4>
10006732:	4648      	mov	r0, r9
10006734:	f7ff fdf2 	bl	1000631c <_prep_out_transaction.isra.0>
10006738:	e7b3      	b.n	100066a2 <cdcd_open+0xe>
1000673a:	f04f 0a01 	mov.w	sl, #1
1000673e:	e7d7      	b.n	100066f0 <cdcd_open+0x5c>
10006740:	469a      	mov	sl, r3
10006742:	e7d5      	b.n	100066f0 <cdcd_open+0x5c>
10006744:	4621      	mov	r1, r4
10006746:	4628      	mov	r0, r5
10006748:	f7ff fc5e 	bl	10006008 <usbd_edpt_open>
1000674c:	2800      	cmp	r0, #0
1000674e:	d0c6      	beq.n	100066de <cdcd_open+0x4a>
10006750:	4b11      	ldr	r3, [pc, #68]	@ (10006798 <cdcd_open+0x104>)
10006752:	fb03 7a0a 	mla	sl, r3, sl, r7
10006756:	78a3      	ldrb	r3, [r4, #2]
10006758:	f88a 3001 	strb.w	r3, [sl, #1]
1000675c:	7823      	ldrb	r3, [r4, #0]
1000675e:	441c      	add	r4, r3
10006760:	4433      	add	r3, r6
10006762:	7861      	ldrb	r1, [r4, #1]
10006764:	b29e      	uxth	r6, r3
10006766:	e7df      	b.n	10006728 <cdcd_open+0x94>
10006768:	2302      	movs	r3, #2
1000676a:	4628      	mov	r0, r5
1000676c:	eb08 0203 	add.w	r2, r8, r3
10006770:	7825      	ldrb	r5, [r4, #0]
10006772:	f108 0803 	add.w	r8, r8, #3
10006776:	443a      	add	r2, r7
10006778:	4447      	add	r7, r8
1000677a:	e9cd 7200 	strd	r7, r2, [sp]
1000677e:	1961      	adds	r1, r4, r5
10006780:	461a      	mov	r2, r3
10006782:	f7ff fbf3 	bl	10005f6c <usbd_open_edpt_pair>
10006786:	2800      	cmp	r0, #0
10006788:	d0a9      	beq.n	100066de <cdcd_open+0x4a>
1000678a:	360e      	adds	r6, #14
1000678c:	fa15 f686 	uxtah	r6, r5, r6
10006790:	b2b6      	uxth	r6, r6
10006792:	e7ce      	b.n	10006732 <cdcd_open+0x9e>
10006794:	20001bc8 	.word	0x20001bc8
10006798:	000100c8 	.word	0x000100c8

1000679c <cdcd_control_xfer_cb>:
1000679c:	b5f8      	push	{r3, r4, r5, r6, r7, lr}
1000679e:	7813      	ldrb	r3, [r2, #0]
100067a0:	f003 0360 	and.w	r3, r3, #96	@ 0x60
100067a4:	2b20      	cmp	r3, #32
100067a6:	d117      	bne.n	100067d8 <cdcd_control_xfer_cb+0x3c>
100067a8:	4b36      	ldr	r3, [pc, #216]	@ (10006884 <cdcd_control_xfer_cb+0xe8>)
100067aa:	8894      	ldrh	r4, [r2, #4]
100067ac:	f893 c000 	ldrb.w	ip, [r3]
100067b0:	45a4      	cmp	ip, r4
100067b2:	d013      	beq.n	100067dc <cdcd_control_xfer_cb+0x40>
100067b4:	f503 3c80 	add.w	ip, r3, #65536	@ 0x10000
100067b8:	f89c c0c8 	ldrb.w	ip, [ip, #200]	@ 0xc8
100067bc:	45a4      	cmp	ip, r4
100067be:	d04e      	beq.n	1000685e <cdcd_control_xfer_cb+0xc2>
100067c0:	f503 3c00 	add.w	ip, r3, #131072	@ 0x20000
100067c4:	f89c c190 	ldrb.w	ip, [ip, #400]	@ 0x190
100067c8:	45a4      	cmp	ip, r4
100067ca:	d04b      	beq.n	10006864 <cdcd_control_xfer_cb+0xc8>
100067cc:	f503 3340 	add.w	r3, r3, #196608	@ 0x30000
100067d0:	f893 3258 	ldrb.w	r3, [r3, #600]	@ 0x258
100067d4:	42a3      	cmp	r3, r4
100067d6:	d00b      	beq.n	100067f0 <cdcd_control_xfer_cb+0x54>
100067d8:	2000      	movs	r0, #0
100067da:	bdf8      	pop	{r3, r4, r5, r6, r7, pc}
100067dc:	461c      	mov	r4, r3
100067de:	2500      	movs	r5, #0
100067e0:	7853      	ldrb	r3, [r2, #1]
100067e2:	3b20      	subs	r3, #32
100067e4:	2b03      	cmp	r3, #3
100067e6:	d8f7      	bhi.n	100067d8 <cdcd_control_xfer_cb+0x3c>
100067e8:	e8df f003 	tbb	[pc, r3]
100067ec:	050b232c 	.word	0x050b232c
100067f0:	2503      	movs	r5, #3
100067f2:	4c25      	ldr	r4, [pc, #148]	@ (10006888 <cdcd_control_xfer_cb+0xec>)
100067f4:	e7f4      	b.n	100067e0 <cdcd_control_xfer_cb+0x44>
100067f6:	2901      	cmp	r1, #1
100067f8:	d037      	beq.n	1000686a <cdcd_control_xfer_cb+0xce>
100067fa:	2903      	cmp	r1, #3
100067fc:	d039      	beq.n	10006872 <cdcd_control_xfer_cb+0xd6>
100067fe:	2001      	movs	r0, #1
10006800:	bdf8      	pop	{r3, r4, r5, r6, r7, pc}
10006802:	2901      	cmp	r1, #1
10006804:	d031      	beq.n	1000686a <cdcd_control_xfer_cb+0xce>
10006806:	2903      	cmp	r1, #3
10006808:	d1f9      	bne.n	100067fe <cdcd_control_xfer_cb+0x62>
1000680a:	8857      	ldrh	r7, [r2, #2]
1000680c:	f104 0024 	add.w	r0, r4, #36	@ 0x24
10006810:	f007 0601 	and.w	r6, r7, #1
10006814:	f086 0101 	eor.w	r1, r6, #1
10006818:	7127      	strb	r7, [r4, #4]
1000681a:	f000 fc01 	bl	10007020 <tu_fifo_set_overwritable>
1000681e:	4b1b      	ldr	r3, [pc, #108]	@ (1000688c <cdcd_control_xfer_cb+0xf0>)
10006820:	2b00      	cmp	r3, #0
10006822:	d0ec      	beq.n	100067fe <cdcd_control_xfer_cb+0x62>
10006824:	4631      	mov	r1, r6
10006826:	4628      	mov	r0, r5
10006828:	f3c7 0240 	ubfx	r2, r7, #1, #1
1000682c:	f3af 8000 	nop.w
10006830:	e7e5      	b.n	100067fe <cdcd_control_xfer_cb+0x62>
10006832:	2901      	cmp	r1, #1
10006834:	d1e3      	bne.n	100067fe <cdcd_control_xfer_cb+0x62>
10006836:	4611      	mov	r1, r2
10006838:	2307      	movs	r3, #7
1000683a:	f104 0208 	add.w	r2, r4, #8
1000683e:	f7ff fc7b 	bl	10006138 <tud_control_xfer>
10006842:	e7dc      	b.n	100067fe <cdcd_control_xfer_cb+0x62>
10006844:	2901      	cmp	r1, #1
10006846:	d0f6      	beq.n	10006836 <cdcd_control_xfer_cb+0x9a>
10006848:	2903      	cmp	r1, #3
1000684a:	d1d8      	bne.n	100067fe <cdcd_control_xfer_cb+0x62>
1000684c:	4b10      	ldr	r3, [pc, #64]	@ (10006890 <cdcd_control_xfer_cb+0xf4>)
1000684e:	2b00      	cmp	r3, #0
10006850:	d0d5      	beq.n	100067fe <cdcd_control_xfer_cb+0x62>
10006852:	4628      	mov	r0, r5
10006854:	f104 0108 	add.w	r1, r4, #8
10006858:	f3af 8000 	nop.w
1000685c:	e7cf      	b.n	100067fe <cdcd_control_xfer_cb+0x62>
1000685e:	2501      	movs	r5, #1
10006860:	4c0c      	ldr	r4, [pc, #48]	@ (10006894 <cdcd_control_xfer_cb+0xf8>)
10006862:	e7bd      	b.n	100067e0 <cdcd_control_xfer_cb+0x44>
10006864:	2502      	movs	r5, #2
10006866:	4c0c      	ldr	r4, [pc, #48]	@ (10006898 <cdcd_control_xfer_cb+0xfc>)
10006868:	e7ba      	b.n	100067e0 <cdcd_control_xfer_cb+0x44>
1000686a:	4611      	mov	r1, r2
1000686c:	f7ff fc4a 	bl	10006104 <tud_control_status>
10006870:	e7c5      	b.n	100067fe <cdcd_control_xfer_cb+0x62>
10006872:	4b0a      	ldr	r3, [pc, #40]	@ (1000689c <cdcd_control_xfer_cb+0x100>)
10006874:	2b00      	cmp	r3, #0
10006876:	d0c2      	beq.n	100067fe <cdcd_control_xfer_cb+0x62>
10006878:	4628      	mov	r0, r5
1000687a:	8851      	ldrh	r1, [r2, #2]
1000687c:	f3af 8000 	nop.w
10006880:	e7bd      	b.n	100067fe <cdcd_control_xfer_cb+0x62>
10006882:	bf00      	nop
10006884:	20001bc8 	.word	0x20001bc8
10006888:	20031e20 	.word	0x20031e20
	...
10006894:	20011c90 	.word	0x20011c90
10006898:	20021d58 	.word	0x20021d58
1000689c:	00000000 	.word	0x00000000

100068a0 <cdcd_xfer_cb>:
100068a0:	e92d 4ff0 	stmdb	sp!, {r4, r5, r6, r7, r8, r9, sl, fp, lr}
100068a4:	4d6a      	ldr	r5, [pc, #424]	@ (10006a50 <cdcd_xfer_cb+0x1b0>)
100068a6:	460c      	mov	r4, r1
100068a8:	78ea      	ldrb	r2, [r5, #3]
100068aa:	4607      	mov	r7, r0
100068ac:	428a      	cmp	r2, r1
100068ae:	461e      	mov	r6, r3
100068b0:	b085      	sub	sp, #20
100068b2:	d033      	beq.n	1000691c <cdcd_xfer_cb+0x7c>
100068b4:	78ab      	ldrb	r3, [r5, #2]
100068b6:	428b      	cmp	r3, r1
100068b8:	f000 80a7 	beq.w	10006a0a <cdcd_xfer_cb+0x16a>
100068bc:	f505 3380 	add.w	r3, r5, #65536	@ 0x10000
100068c0:	f893 20cb 	ldrb.w	r2, [r3, #203]	@ 0xcb
100068c4:	428a      	cmp	r2, r1
100068c6:	f000 80a7 	beq.w	10006a18 <cdcd_xfer_cb+0x178>
100068ca:	f893 30ca 	ldrb.w	r3, [r3, #202]	@ 0xca
100068ce:	428b      	cmp	r3, r1
100068d0:	f000 80a6 	beq.w	10006a20 <cdcd_xfer_cb+0x180>
100068d4:	f505 3300 	add.w	r3, r5, #131072	@ 0x20000
100068d8:	f893 2193 	ldrb.w	r2, [r3, #403]	@ 0x193
100068dc:	428a      	cmp	r2, r1
100068de:	f000 80a3 	beq.w	10006a28 <cdcd_xfer_cb+0x188>
100068e2:	f893 3192 	ldrb.w	r3, [r3, #402]	@ 0x192
100068e6:	428b      	cmp	r3, r1
100068e8:	f000 80a2 	beq.w	10006a30 <cdcd_xfer_cb+0x190>
100068ec:	f505 3340 	add.w	r3, r5, #196608	@ 0x30000
100068f0:	f893 225b 	ldrb.w	r2, [r3, #603]	@ 0x25b
100068f4:	428a      	cmp	r2, r1
100068f6:	f000 809f 	beq.w	10006a38 <cdcd_xfer_cb+0x198>
100068fa:	f893 325a 	ldrb.w	r3, [r3, #602]	@ 0x25a
100068fe:	428b      	cmp	r3, r1
10006900:	f000 80a2 	beq.w	10006a48 <cdcd_xfer_cb+0x1a8>
10006904:	f04f 23e0 	mov.w	r3, #3758153728	@ 0xe000e000
10006908:	f8d3 3df0 	ldr.w	r3, [r3, #3568]	@ 0xdf0
1000690c:	07db      	lsls	r3, r3, #31
1000690e:	d403      	bmi.n	10006918 <cdcd_xfer_cb+0x78>
10006910:	2000      	movs	r0, #0
10006912:	b005      	add	sp, #20
10006914:	e8bd 8ff0 	ldmia.w	sp!, {r4, r5, r6, r7, r8, r9, sl, fp, pc}
10006918:	be00      	bkpt	0x0000
1000691a:	e7f9      	b.n	10006910 <cdcd_xfer_cb+0x70>
1000691c:	f04f 0b00 	mov.w	fp, #0
10006920:	46da      	mov	sl, fp
10006922:	4b4c      	ldr	r3, [pc, #304]	@ (10006a54 <cdcd_xfer_cb+0x1b4>)
10006924:	b2b2      	uxth	r2, r6
10006926:	fb03 f90a 	mul.w	r9, r3, sl
1000692a:	f109 0310 	add.w	r3, r9, #16
1000692e:	f509 3880 	add.w	r8, r9, #65536	@ 0x10000
10006932:	18eb      	adds	r3, r5, r3
10006934:	f108 0148 	add.w	r1, r8, #72	@ 0x48
10006938:	4618      	mov	r0, r3
1000693a:	4429      	add	r1, r5
1000693c:	9301      	str	r3, [sp, #4]
1000693e:	f000 faa7 	bl	10006e90 <tu_fifo_write_n>
10006942:	4b45      	ldr	r3, [pc, #276]	@ (10006a58 <cdcd_xfer_cb+0x1b8>)
10006944:	b333      	cbz	r3, 10006994 <cdcd_xfer_cb+0xf4>
10006946:	eb05 0309 	add.w	r3, r5, r9
1000694a:	7959      	ldrb	r1, [r3, #5]
1000694c:	29ff      	cmp	r1, #255	@ 0xff
1000694e:	d021      	beq.n	10006994 <cdcd_xfer_cb+0xf4>
10006950:	b306      	cbz	r6, 10006994 <cdcd_xfer_cb+0xf4>
10006952:	4a42      	ldr	r2, [pc, #264]	@ (10006a5c <cdcd_xfer_cb+0x1bc>)
10006954:	f108 0847 	add.w	r8, r8, #71	@ 0x47
10006958:	4432      	add	r2, r6
1000695a:	444a      	add	r2, r9
1000695c:	9402      	str	r4, [sp, #8]
1000695e:	9603      	str	r6, [sp, #12]
10006960:	4614      	mov	r4, r2
10006962:	461e      	mov	r6, r3
10006964:	44a8      	add	r8, r5
10006966:	e002      	b.n	1000696e <cdcd_xfer_cb+0xce>
10006968:	4544      	cmp	r4, r8
1000696a:	d011      	beq.n	10006990 <cdcd_xfer_cb+0xf0>
1000696c:	7971      	ldrb	r1, [r6, #5]
1000696e:	f818 0f01 	ldrb.w	r0, [r8, #1]!
10006972:	4288      	cmp	r0, r1
10006974:	d1f8      	bne.n	10006968 <cdcd_xfer_cb+0xc8>
10006976:	9801      	ldr	r0, [sp, #4]
10006978:	f000 f968 	bl	10006c4c <tu_fifo_empty>
1000697c:	2800      	cmp	r0, #0
1000697e:	d1f3      	bne.n	10006968 <cdcd_xfer_cb+0xc8>
10006980:	4934      	ldr	r1, [pc, #208]	@ (10006a54 <cdcd_xfer_cb+0x1b4>)
10006982:	4658      	mov	r0, fp
10006984:	fb01 510a 	mla	r1, r1, sl, r5
10006988:	7949      	ldrb	r1, [r1, #5]
1000698a:	f3af 8000 	nop.w
1000698e:	e7eb      	b.n	10006968 <cdcd_xfer_cb+0xc8>
10006990:	e9dd 4602 	ldrd	r4, r6, [sp, #8]
10006994:	4b32      	ldr	r3, [pc, #200]	@ (10006a60 <cdcd_xfer_cb+0x1c0>)
10006996:	b123      	cbz	r3, 100069a2 <cdcd_xfer_cb+0x102>
10006998:	9801      	ldr	r0, [sp, #4]
1000699a:	f000 f957 	bl	10006c4c <tu_fifo_empty>
1000699e:	2800      	cmp	r0, #0
100069a0:	d04e      	beq.n	10006a40 <cdcd_xfer_cb+0x1a0>
100069a2:	eb05 0009 	add.w	r0, r5, r9
100069a6:	f7ff fcb9 	bl	1000631c <_prep_out_transaction.isra.0>
100069aa:	4b2a      	ldr	r3, [pc, #168]	@ (10006a54 <cdcd_xfer_cb+0x1b4>)
100069ac:	fb03 530a 	mla	r3, r3, sl, r5
100069b0:	789b      	ldrb	r3, [r3, #2]
100069b2:	42a3      	cmp	r3, r4
100069b4:	d003      	beq.n	100069be <cdcd_xfer_cb+0x11e>
100069b6:	2001      	movs	r0, #1
100069b8:	b005      	add	sp, #20
100069ba:	e8bd 8ff0 	ldmia.w	sp!, {r4, r5, r6, r7, r8, r9, sl, fp, pc}
100069be:	4b29      	ldr	r3, [pc, #164]	@ (10006a64 <cdcd_xfer_cb+0x1c4>)
100069c0:	b113      	cbz	r3, 100069c8 <cdcd_xfer_cb+0x128>
100069c2:	4658      	mov	r0, fp
100069c4:	f3af 8000 	nop.w
100069c8:	4658      	mov	r0, fp
100069ca:	f7ff fd2d 	bl	10006428 <tud_cdc_n_write_flush>
100069ce:	2800      	cmp	r0, #0
100069d0:	d1f1      	bne.n	100069b6 <cdcd_xfer_cb+0x116>
100069d2:	f109 0024 	add.w	r0, r9, #36	@ 0x24
100069d6:	4428      	add	r0, r5
100069d8:	f000 f928 	bl	10006c2c <tu_fifo_count>
100069dc:	2800      	cmp	r0, #0
100069de:	d1ea      	bne.n	100069b6 <cdcd_xfer_cb+0x116>
100069e0:	2e00      	cmp	r6, #0
100069e2:	d0e8      	beq.n	100069b6 <cdcd_xfer_cb+0x116>
100069e4:	f016 063f 	ands.w	r6, r6, #63	@ 0x3f
100069e8:	d1e5      	bne.n	100069b6 <cdcd_xfer_cb+0x116>
100069ea:	4c1a      	ldr	r4, [pc, #104]	@ (10006a54 <cdcd_xfer_cb+0x1b4>)
100069ec:	4638      	mov	r0, r7
100069ee:	fb04 540a 	mla	r4, r4, sl, r5
100069f2:	78a1      	ldrb	r1, [r4, #2]
100069f4:	f7ff fb2a 	bl	1000604c <usbd_edpt_claim>
100069f8:	2800      	cmp	r0, #0
100069fa:	d0dc      	beq.n	100069b6 <cdcd_xfer_cb+0x116>
100069fc:	4633      	mov	r3, r6
100069fe:	4632      	mov	r2, r6
10006a00:	4638      	mov	r0, r7
10006a02:	78a1      	ldrb	r1, [r4, #2]
10006a04:	f7ff fb46 	bl	10006094 <usbd_edpt_xfer>
10006a08:	e7d5      	b.n	100069b6 <cdcd_xfer_cb+0x116>
10006a0a:	f04f 0b00 	mov.w	fp, #0
10006a0e:	46da      	mov	sl, fp
10006a10:	4b10      	ldr	r3, [pc, #64]	@ (10006a54 <cdcd_xfer_cb+0x1b4>)
10006a12:	fb03 f90a 	mul.w	r9, r3, sl
10006a16:	e7c8      	b.n	100069aa <cdcd_xfer_cb+0x10a>
10006a18:	f04f 0b01 	mov.w	fp, #1
10006a1c:	46da      	mov	sl, fp
10006a1e:	e780      	b.n	10006922 <cdcd_xfer_cb+0x82>
10006a20:	f04f 0b01 	mov.w	fp, #1
10006a24:	46da      	mov	sl, fp
10006a26:	e7f3      	b.n	10006a10 <cdcd_xfer_cb+0x170>
10006a28:	f04f 0b02 	mov.w	fp, #2
10006a2c:	46da      	mov	sl, fp
10006a2e:	e778      	b.n	10006922 <cdcd_xfer_cb+0x82>
10006a30:	f04f 0b02 	mov.w	fp, #2
10006a34:	46da      	mov	sl, fp
10006a36:	e7eb      	b.n	10006a10 <cdcd_xfer_cb+0x170>
10006a38:	f04f 0b03 	mov.w	fp, #3
10006a3c:	46da      	mov	sl, fp
10006a3e:	e770      	b.n	10006922 <cdcd_xfer_cb+0x82>
10006a40:	4658      	mov	r0, fp
10006a42:	f3af 8000 	nop.w
10006a46:	e7ac      	b.n	100069a2 <cdcd_xfer_cb+0x102>
10006a48:	f04f 0b03 	mov.w	fp, #3
10006a4c:	46da      	mov	sl, fp
10006a4e:	e7df      	b.n	10006a10 <cdcd_xfer_cb+0x170>
10006a50:	20001bc8 	.word	0x20001bc8
10006a54:	000100c8 	.word	0x000100c8
10006a58:	00000000 	.word	0x00000000
10006a5c:	20011c0f 	.word	0x20011c0f
	...

10006a68 <tusb_init>:
10006a68:	b508      	push	{r3, lr}
10006a6a:	2000      	movs	r0, #0
10006a6c:	f7fe fe5c 	bl	10005728 <tud_init>
10006a70:	b100      	cbz	r0, 10006a74 <tusb_init+0xc>
10006a72:	bd08      	pop	{r3, pc}
10006a74:	f04f 23e0 	mov.w	r3, #3758153728	@ 0xe000e000
10006a78:	f8d3 3df0 	ldr.w	r3, [r3, #3568]	@ 0xdf0
10006a7c:	07db      	lsls	r3, r3, #31
10006a7e:	d5f8      	bpl.n	10006a72 <tusb_init+0xa>
10006a80:	be00      	bkpt	0x0000
10006a82:	bd08      	pop	{r3, pc}

10006a84 <tu_edpt_claim>:
10006a84:	b5f8      	push	{r3, r4, r5, r6, r7, lr}
10006a86:	7803      	ldrb	r3, [r0, #0]
10006a88:	f013 0401 	ands.w	r4, r3, #1
10006a8c:	d11a      	bne.n	10006ac4 <tu_edpt_claim+0x40>
10006a8e:	7803      	ldrb	r3, [r0, #0]
10006a90:	4605      	mov	r5, r0
10006a92:	075a      	lsls	r2, r3, #29
10006a94:	f3c3 0780 	ubfx	r7, r3, #2, #1
10006a98:	d501      	bpl.n	10006a9e <tu_edpt_claim+0x1a>
10006a9a:	4620      	mov	r0, r4
10006a9c:	bdf8      	pop	{r3, r4, r5, r6, r7, pc}
10006a9e:	460e      	mov	r6, r1
10006aa0:	f04f 31ff 	mov.w	r1, #4294967295
10006aa4:	4630      	mov	r0, r6
10006aa6:	f001 f8eb 	bl	10007c80 <__mutex_enter_timeout_ms_veneer>
10006aaa:	782b      	ldrb	r3, [r5, #0]
10006aac:	f013 0401 	ands.w	r4, r3, #1
10006ab0:	d10b      	bne.n	10006aca <tu_edpt_claim+0x46>
10006ab2:	782b      	ldrb	r3, [r5, #0]
10006ab4:	075b      	lsls	r3, r3, #29
10006ab6:	d409      	bmi.n	10006acc <tu_edpt_claim+0x48>
10006ab8:	782b      	ldrb	r3, [r5, #0]
10006aba:	2401      	movs	r4, #1
10006abc:	f043 0304 	orr.w	r3, r3, #4
10006ac0:	702b      	strb	r3, [r5, #0]
10006ac2:	e003      	b.n	10006acc <tu_edpt_claim+0x48>
10006ac4:	2400      	movs	r4, #0
10006ac6:	4620      	mov	r0, r4
10006ac8:	bdf8      	pop	{r3, r4, r5, r6, r7, pc}
10006aca:	463c      	mov	r4, r7
10006acc:	4630      	mov	r0, r6
10006ace:	f001 f8eb 	bl	10007ca8 <__mutex_exit_veneer>
10006ad2:	4620      	mov	r0, r4
10006ad4:	bdf8      	pop	{r3, r4, r5, r6, r7, pc}
10006ad6:	bf00      	nop

10006ad8 <tu_edpt_release>:
10006ad8:	b570      	push	{r4, r5, r6, lr}
10006ada:	460c      	mov	r4, r1
10006adc:	4605      	mov	r5, r0
10006ade:	f04f 31ff 	mov.w	r1, #4294967295
10006ae2:	4620      	mov	r0, r4
10006ae4:	f001 f8cc 	bl	10007c80 <__mutex_enter_timeout_ms_veneer>
10006ae8:	782b      	ldrb	r3, [r5, #0]
10006aea:	f3c3 0680 	ubfx	r6, r3, #2, #1
10006aee:	075b      	lsls	r3, r3, #29
10006af0:	d508      	bpl.n	10006b04 <tu_edpt_release+0x2c>
10006af2:	782b      	ldrb	r3, [r5, #0]
10006af4:	f013 0301 	ands.w	r3, r3, #1
10006af8:	bf11      	iteee	ne
10006afa:	2600      	movne	r6, #0
10006afc:	782a      	ldrbeq	r2, [r5, #0]
10006afe:	f363 0282 	bfieq	r2, r3, #2, #1
10006b02:	702a      	strbeq	r2, [r5, #0]
10006b04:	4620      	mov	r0, r4
10006b06:	f001 f8cf 	bl	10007ca8 <__mutex_exit_veneer>
10006b0a:	4630      	mov	r0, r6
10006b0c:	bd70      	pop	{r4, r5, r6, pc}
10006b0e:	bf00      	nop

10006b10 <tu_edpt_validate>:
10006b10:	78c3      	ldrb	r3, [r0, #3]
10006b12:	8882      	ldrh	r2, [r0, #4]
10006b14:	f003 0003 	and.w	r0, r3, #3
10006b18:	2802      	cmp	r0, #2
10006b1a:	f3c2 020a 	ubfx	r2, r2, #0, #11
10006b1e:	d01f      	beq.n	10006b60 <tu_edpt_validate+0x50>
10006b20:	2803      	cmp	r0, #3
10006b22:	d003      	beq.n	10006b2c <tu_edpt_validate+0x1c>
10006b24:	2801      	cmp	r0, #1
10006b26:	d00a      	beq.n	10006b3e <tu_edpt_validate+0x2e>
10006b28:	2000      	movs	r0, #0
10006b2a:	4770      	bx	lr
10006b2c:	2902      	cmp	r1, #2
10006b2e:	bf14      	ite	ne
10006b30:	2340      	movne	r3, #64	@ 0x40
10006b32:	f44f 6380 	moveq.w	r3, #1024	@ 0x400
10006b36:	4293      	cmp	r3, r2
10006b38:	d309      	bcc.n	10006b4e <tu_edpt_validate+0x3e>
10006b3a:	2001      	movs	r0, #1
10006b3c:	4770      	bx	lr
10006b3e:	2902      	cmp	r1, #2
10006b40:	f240 33ff 	movw	r3, #1023	@ 0x3ff
10006b44:	bf08      	it	eq
10006b46:	f44f 6380 	moveq.w	r3, #1024	@ 0x400
10006b4a:	4293      	cmp	r3, r2
10006b4c:	d2f6      	bcs.n	10006b3c <tu_edpt_validate+0x2c>
10006b4e:	f04f 23e0 	mov.w	r3, #3758153728	@ 0xe000e000
10006b52:	f8d3 3df0 	ldr.w	r3, [r3, #3568]	@ 0xdf0
10006b56:	07db      	lsls	r3, r3, #31
10006b58:	d5e6      	bpl.n	10006b28 <tu_edpt_validate+0x18>
10006b5a:	be00      	bkpt	0x0000
10006b5c:	2000      	movs	r0, #0
10006b5e:	4770      	bx	lr
10006b60:	2902      	cmp	r1, #2
10006b62:	d002      	beq.n	10006b6a <tu_edpt_validate+0x5a>
10006b64:	2a40      	cmp	r2, #64	@ 0x40
10006b66:	d9e8      	bls.n	10006b3a <tu_edpt_validate+0x2a>
10006b68:	e7f1      	b.n	10006b4e <tu_edpt_validate+0x3e>
10006b6a:	f5b2 7f00 	cmp.w	r2, #512	@ 0x200
10006b6e:	d0e4      	beq.n	10006b3a <tu_edpt_validate+0x2a>
10006b70:	e7ed      	b.n	10006b4e <tu_edpt_validate+0x3e>
10006b72:	bf00      	nop

10006b74 <tu_edpt_bind_driver>:
10006b74:	440a      	add	r2, r1
10006b76:	4291      	cmp	r1, r2
10006b78:	d226      	bcs.n	10006bc8 <tu_edpt_bind_driver+0x54>
10006b7a:	f891 c001 	ldrb.w	ip, [r1, #1]
10006b7e:	f1bc 0f05 	cmp.w	ip, #5
10006b82:	d005      	beq.n	10006b90 <tu_edpt_bind_driver+0x1c>
10006b84:	f891 c000 	ldrb.w	ip, [r1]
10006b88:	4461      	add	r1, ip
10006b8a:	428a      	cmp	r2, r1
10006b8c:	d8f5      	bhi.n	10006b7a <tu_edpt_bind_driver+0x6>
10006b8e:	4770      	bx	lr
10006b90:	b500      	push	{lr}
10006b92:	f891 c002 	ldrb.w	ip, [r1, #2]
10006b96:	f00c 0e7f 	and.w	lr, ip, #127	@ 0x7f
10006b9a:	eb00 0e4e 	add.w	lr, r0, lr, lsl #1
10006b9e:	ea4f 1cdc 	mov.w	ip, ip, lsr #7
10006ba2:	f80e 300c 	strb.w	r3, [lr, ip]
10006ba6:	f891 c000 	ldrb.w	ip, [r1]
10006baa:	4461      	add	r1, ip
10006bac:	428a      	cmp	r2, r1
10006bae:	d909      	bls.n	10006bc4 <tu_edpt_bind_driver+0x50>
10006bb0:	f891 c001 	ldrb.w	ip, [r1, #1]
10006bb4:	f1bc 0f05 	cmp.w	ip, #5
10006bb8:	d0eb      	beq.n	10006b92 <tu_edpt_bind_driver+0x1e>
10006bba:	f891 c000 	ldrb.w	ip, [r1]
10006bbe:	4461      	add	r1, ip
10006bc0:	428a      	cmp	r2, r1
10006bc2:	d8f5      	bhi.n	10006bb0 <tu_edpt_bind_driver+0x3c>
10006bc4:	f85d fb04 	ldr.w	pc, [sp], #4
10006bc8:	4770      	bx	lr
10006bca:	bf00      	nop

10006bcc <tu_fifo_config>:
10006bcc:	e92d 41f0 	stmdb	sp!, {r4, r5, r6, r7, r8, lr}
10006bd0:	f5b2 4f00 	cmp.w	r2, #32768	@ 0x8000
10006bd4:	f89d 8018 	ldrb.w	r8, [sp, #24]
10006bd8:	d824      	bhi.n	10006c24 <tu_fifo_config+0x58>
10006bda:	4604      	mov	r4, r0
10006bdc:	68c0      	ldr	r0, [r0, #12]
10006bde:	4617      	mov	r7, r2
10006be0:	460e      	mov	r6, r1
10006be2:	461d      	mov	r5, r3
10006be4:	b118      	cbz	r0, 10006bee <tu_fifo_config+0x22>
10006be6:	f04f 31ff 	mov.w	r1, #4294967295
10006bea:	f001 f849 	bl	10007c80 <__mutex_enter_timeout_ms_veneer>
10006bee:	6920      	ldr	r0, [r4, #16]
10006bf0:	b118      	cbz	r0, 10006bfa <tu_fifo_config+0x2e>
10006bf2:	f04f 31ff 	mov.w	r1, #4294967295
10006bf6:	f001 f843 	bl	10007c80 <__mutex_enter_timeout_ms_veneer>
10006bfa:	2200      	movs	r2, #0
10006bfc:	f3c5 030e 	ubfx	r3, r5, #0, #15
10006c00:	68e0      	ldr	r0, [r4, #12]
10006c02:	ea43 33c8 	orr.w	r3, r3, r8, lsl #15
10006c06:	8162      	strh	r2, [r4, #10]
10006c08:	6026      	str	r6, [r4, #0]
10006c0a:	80a7      	strh	r7, [r4, #4]
10006c0c:	80e3      	strh	r3, [r4, #6]
10006c0e:	8122      	strh	r2, [r4, #8]
10006c10:	b108      	cbz	r0, 10006c16 <tu_fifo_config+0x4a>
10006c12:	f001 f849 	bl	10007ca8 <__mutex_exit_veneer>
10006c16:	6920      	ldr	r0, [r4, #16]
10006c18:	b108      	cbz	r0, 10006c1e <tu_fifo_config+0x52>
10006c1a:	f001 f845 	bl	10007ca8 <__mutex_exit_veneer>
10006c1e:	2001      	movs	r0, #1
10006c20:	e8bd 81f0 	ldmia.w	sp!, {r4, r5, r6, r7, r8, pc}
10006c24:	2000      	movs	r0, #0
10006c26:	e8bd 81f0 	ldmia.w	sp!, {r4, r5, r6, r7, r8, pc}
10006c2a:	bf00      	nop

10006c2c <tu_fifo_count>:
10006c2c:	8903      	ldrh	r3, [r0, #8]
10006c2e:	8942      	ldrh	r2, [r0, #10]
10006c30:	b29b      	uxth	r3, r3
10006c32:	b292      	uxth	r2, r2
10006c34:	8880      	ldrh	r0, [r0, #4]
10006c36:	4293      	cmp	r3, r2
10006c38:	bf36      	itet	cc
10006c3a:	ebc2 0240 	rsbcc	r2, r2, r0, lsl #1
10006c3e:	1a9b      	subcs	r3, r3, r2
10006c40:	189b      	addcc	r3, r3, r2
10006c42:	b29b      	uxth	r3, r3
10006c44:	4298      	cmp	r0, r3
10006c46:	bf28      	it	cs
10006c48:	4618      	movcs	r0, r3
10006c4a:	4770      	bx	lr

10006c4c <tu_fifo_empty>:
10006c4c:	8902      	ldrh	r2, [r0, #8]
10006c4e:	8943      	ldrh	r3, [r0, #10]
10006c50:	b290      	uxth	r0, r2
10006c52:	b29b      	uxth	r3, r3
10006c54:	1ac0      	subs	r0, r0, r3
10006c56:	fab0 f080 	clz	r0, r0
10006c5a:	0940      	lsrs	r0, r0, #5
10006c5c:	4770      	bx	lr
10006c5e:	bf00      	nop

10006c60 <tu_fifo_remaining>:
10006c60:	8903      	ldrh	r3, [r0, #8]
10006c62:	8942      	ldrh	r2, [r0, #10]
10006c64:	b29b      	uxth	r3, r3
10006c66:	8880      	ldrh	r0, [r0, #4]
10006c68:	b292      	uxth	r2, r2
10006c6a:	4293      	cmp	r3, r2
10006c6c:	bf36      	itet	cc
10006c6e:	ebc2 0240 	rsbcc	r2, r2, r0, lsl #1
10006c72:	1a9b      	subcs	r3, r3, r2
10006c74:	189b      	addcc	r3, r3, r2
10006c76:	b29b      	uxth	r3, r3
10006c78:	4298      	cmp	r0, r3
10006c7a:	bf86      	itte	hi
10006c7c:	1ac0      	subhi	r0, r0, r3
10006c7e:	b280      	uxthhi	r0, r0
10006c80:	2000      	movls	r0, #0
10006c82:	4770      	bx	lr

10006c84 <tu_fifo_read>:
10006c84:	b538      	push	{r3, r4, r5, lr}
10006c86:	4604      	mov	r4, r0
10006c88:	6900      	ldr	r0, [r0, #16]
10006c8a:	460d      	mov	r5, r1
10006c8c:	b118      	cbz	r0, 10006c96 <tu_fifo_read+0x12>
10006c8e:	f04f 31ff 	mov.w	r1, #4294967295
10006c92:	f000 fff5 	bl	10007c80 <__mutex_enter_timeout_ms_veneer>
10006c96:	8921      	ldrh	r1, [r4, #8]
10006c98:	8963      	ldrh	r3, [r4, #10]
10006c9a:	b289      	uxth	r1, r1
10006c9c:	b29b      	uxth	r3, r3
10006c9e:	88a2      	ldrh	r2, [r4, #4]
10006ca0:	4299      	cmp	r1, r3
10006ca2:	bf36      	itet	cc
10006ca4:	ebc3 0042 	rsbcc	r0, r3, r2, lsl #1
10006ca8:	1ac8      	subcs	r0, r1, r3
10006caa:	1840      	addcc	r0, r0, r1
10006cac:	b280      	uxth	r0, r0
10006cae:	b350      	cbz	r0, 10006d06 <tu_fifo_read+0x82>
10006cb0:	4282      	cmp	r2, r0
10006cb2:	d209      	bcs.n	10006cc8 <tu_fifo_read+0x44>
10006cb4:	4291      	cmp	r1, r2
10006cb6:	bf2c      	ite	cs
10006cb8:	1a89      	subcs	r1, r1, r2
10006cba:	1889      	addcc	r1, r1, r2
10006cbc:	b28b      	uxth	r3, r1
10006cbe:	429a      	cmp	r2, r3
10006cc0:	8163      	strh	r3, [r4, #10]
10006cc2:	d803      	bhi.n	10006ccc <tu_fifo_read+0x48>
10006cc4:	1a9b      	subs	r3, r3, r2
10006cc6:	b29b      	uxth	r3, r3
10006cc8:	429a      	cmp	r2, r3
10006cca:	d9fb      	bls.n	10006cc4 <tu_fifo_read+0x40>
10006ccc:	88e2      	ldrh	r2, [r4, #6]
10006cce:	6821      	ldr	r1, [r4, #0]
10006cd0:	f3c2 020e 	ubfx	r2, r2, #0, #15
10006cd4:	fb02 1103 	mla	r1, r2, r3, r1
10006cd8:	4628      	mov	r0, r5
10006cda:	f000 fdd3 	bl	10007884 <memcpy>
10006cde:	8961      	ldrh	r1, [r4, #10]
10006ce0:	2501      	movs	r5, #1
10006ce2:	b289      	uxth	r1, r1
10006ce4:	1c4b      	adds	r3, r1, #1
10006ce6:	b29b      	uxth	r3, r3
10006ce8:	4299      	cmp	r1, r3
10006cea:	88a2      	ldrh	r2, [r4, #4]
10006cec:	d90e      	bls.n	10006d0c <tu_fifo_read+0x88>
10006cee:	2300      	movs	r3, #0
10006cf0:	fa02 f105 	lsl.w	r1, r2, r5
10006cf4:	1a5b      	subs	r3, r3, r1
10006cf6:	b29b      	uxth	r3, r3
10006cf8:	6920      	ldr	r0, [r4, #16]
10006cfa:	8163      	strh	r3, [r4, #10]
10006cfc:	b108      	cbz	r0, 10006d02 <tu_fifo_read+0x7e>
10006cfe:	f000 ffd3 	bl	10007ca8 <__mutex_exit_veneer>
10006d02:	4628      	mov	r0, r5
10006d04:	bd38      	pop	{r3, r4, r5, pc}
10006d06:	4605      	mov	r5, r0
10006d08:	8963      	ldrh	r3, [r4, #10]
10006d0a:	b29b      	uxth	r3, r3
10006d0c:	ebb3 0f42 	cmp.w	r3, r2, lsl #1
10006d10:	ea4f 0142 	mov.w	r1, r2, lsl #1
10006d14:	dbf0      	blt.n	10006cf8 <tu_fifo_read+0x74>
10006d16:	e7ed      	b.n	10006cf4 <tu_fifo_read+0x70>

10006d18 <tu_fifo_read_n>:
10006d18:	e92d 47f0 	stmdb	sp!, {r4, r5, r6, r7, r8, r9, sl, lr}
10006d1c:	4606      	mov	r6, r0
10006d1e:	6900      	ldr	r0, [r0, #16]
10006d20:	4688      	mov	r8, r1
10006d22:	4691      	mov	r9, r2
10006d24:	b118      	cbz	r0, 10006d2e <tu_fifo_read_n+0x16>
10006d26:	f04f 31ff 	mov.w	r1, #4294967295
10006d2a:	f000 ffa9 	bl	10007c80 <__mutex_enter_timeout_ms_veneer>
10006d2e:	8933      	ldrh	r3, [r6, #8]
10006d30:	8974      	ldrh	r4, [r6, #10]
10006d32:	b29b      	uxth	r3, r3
10006d34:	b2a4      	uxth	r4, r4
10006d36:	88b5      	ldrh	r5, [r6, #4]
10006d38:	42a3      	cmp	r3, r4
10006d3a:	bf36      	itet	cc
10006d3c:	ebc4 0745 	rsbcc	r7, r4, r5, lsl #1
10006d40:	1b1f      	subcs	r7, r3, r4
10006d42:	18ff      	addcc	r7, r7, r3
10006d44:	b2bf      	uxth	r7, r7
10006d46:	2f00      	cmp	r7, #0
10006d48:	d04a      	beq.n	10006de0 <tu_fifo_read_n+0xc8>
10006d4a:	42bd      	cmp	r5, r7
10006d4c:	d340      	bcc.n	10006dd0 <tu_fifo_read_n+0xb8>
10006d4e:	45b9      	cmp	r9, r7
10006d50:	bf28      	it	cs
10006d52:	46b9      	movcs	r9, r7
10006d54:	42a5      	cmp	r5, r4
10006d56:	fa1f f789 	uxth.w	r7, r9
10006d5a:	d803      	bhi.n	10006d64 <tu_fifo_read_n+0x4c>
10006d5c:	1b64      	subs	r4, r4, r5
10006d5e:	b2a4      	uxth	r4, r4
10006d60:	42a5      	cmp	r5, r4
10006d62:	d9fb      	bls.n	10006d5c <tu_fifo_read_n+0x44>
10006d64:	f8b6 a006 	ldrh.w	sl, [r6, #6]
10006d68:	1b2b      	subs	r3, r5, r4
10006d6a:	6831      	ldr	r1, [r6, #0]
10006d6c:	b29b      	uxth	r3, r3
10006d6e:	f3ca 020e 	ubfx	r2, sl, #0, #15
10006d72:	429f      	cmp	r7, r3
10006d74:	4692      	mov	sl, r2
10006d76:	fb02 1104 	mla	r1, r2, r4, r1
10006d7a:	d923      	bls.n	10006dc4 <tu_fifo_read_n+0xac>
10006d7c:	fb13 f302 	smulbb	r3, r3, r2
10006d80:	fa1f f983 	uxth.w	r9, r3
10006d84:	464a      	mov	r2, r9
10006d86:	4640      	mov	r0, r8
10006d88:	1b7d      	subs	r5, r7, r5
10006d8a:	f000 fd7b 	bl	10007884 <memcpy>
10006d8e:	1962      	adds	r2, r4, r5
10006d90:	fb12 f20a 	smulbb	r2, r2, sl
10006d94:	6831      	ldr	r1, [r6, #0]
10006d96:	eb08 0009 	add.w	r0, r8, r9
10006d9a:	b292      	uxth	r2, r2
10006d9c:	f000 fd72 	bl	10007884 <memcpy>
10006da0:	8972      	ldrh	r2, [r6, #10]
10006da2:	88b5      	ldrh	r5, [r6, #4]
10006da4:	b292      	uxth	r2, r2
10006da6:	19d3      	adds	r3, r2, r7
10006da8:	b29b      	uxth	r3, r3
10006daa:	429a      	cmp	r2, r3
10006dac:	d91a      	bls.n	10006de4 <tu_fifo_read_n+0xcc>
10006dae:	006a      	lsls	r2, r5, #1
10006db0:	1a9b      	subs	r3, r3, r2
10006db2:	b29b      	uxth	r3, r3
10006db4:	6930      	ldr	r0, [r6, #16]
10006db6:	8173      	strh	r3, [r6, #10]
10006db8:	b108      	cbz	r0, 10006dbe <tu_fifo_read_n+0xa6>
10006dba:	f000 ff75 	bl	10007ca8 <__mutex_exit_veneer>
10006dbe:	4638      	mov	r0, r7
10006dc0:	e8bd 87f0 	ldmia.w	sp!, {r4, r5, r6, r7, r8, r9, sl, pc}
10006dc4:	4640      	mov	r0, r8
10006dc6:	fb07 f202 	mul.w	r2, r7, r2
10006dca:	f000 fd5b 	bl	10007884 <memcpy>
10006dce:	e7e7      	b.n	10006da0 <tu_fifo_read_n+0x88>
10006dd0:	42ab      	cmp	r3, r5
10006dd2:	bf2c      	ite	cs
10006dd4:	1b5b      	subcs	r3, r3, r5
10006dd6:	195b      	addcc	r3, r3, r5
10006dd8:	b29c      	uxth	r4, r3
10006dda:	462f      	mov	r7, r5
10006ddc:	8174      	strh	r4, [r6, #10]
10006dde:	e7b6      	b.n	10006d4e <tu_fifo_read_n+0x36>
10006de0:	8973      	ldrh	r3, [r6, #10]
10006de2:	b29b      	uxth	r3, r3
10006de4:	ebb3 0f45 	cmp.w	r3, r5, lsl #1
10006de8:	ea4f 0245 	mov.w	r2, r5, lsl #1
10006dec:	dbe2      	blt.n	10006db4 <tu_fifo_read_n+0x9c>
10006dee:	e7df      	b.n	10006db0 <tu_fifo_read_n+0x98>

10006df0 <tu_fifo_write>:
10006df0:	b5f8      	push	{r3, r4, r5, r6, r7, lr}
10006df2:	4604      	mov	r4, r0
10006df4:	68c0      	ldr	r0, [r0, #12]
10006df6:	460e      	mov	r6, r1
10006df8:	b118      	cbz	r0, 10006e02 <tu_fifo_write+0x12>
10006dfa:	f04f 31ff 	mov.w	r1, #4294967295
10006dfe:	f000 ff3f 	bl	10007c80 <__mutex_enter_timeout_ms_veneer>
10006e02:	8925      	ldrh	r5, [r4, #8]
10006e04:	8923      	ldrh	r3, [r4, #8]
10006e06:	8961      	ldrh	r1, [r4, #10]
10006e08:	b29b      	uxth	r3, r3
10006e0a:	b289      	uxth	r1, r1
10006e0c:	88a2      	ldrh	r2, [r4, #4]
10006e0e:	428b      	cmp	r3, r1
10006e10:	bf36      	itet	cc
10006e12:	ebc1 0142 	rsbcc	r1, r1, r2, lsl #1
10006e16:	1a5b      	subcs	r3, r3, r1
10006e18:	185b      	addcc	r3, r3, r1
10006e1a:	b29b      	uxth	r3, r3
10006e1c:	429a      	cmp	r2, r3
10006e1e:	b2ad      	uxth	r5, r5
10006e20:	d808      	bhi.n	10006e34 <tu_fifo_write+0x44>
10006e22:	79e7      	ldrb	r7, [r4, #7]
10006e24:	09ff      	lsrs	r7, r7, #7
10006e26:	d105      	bne.n	10006e34 <tu_fifo_write+0x44>
10006e28:	68e0      	ldr	r0, [r4, #12]
10006e2a:	b108      	cbz	r0, 10006e30 <tu_fifo_write+0x40>
10006e2c:	f000 ff3c 	bl	10007ca8 <__mutex_exit_veneer>
10006e30:	4638      	mov	r0, r7
10006e32:	bdf8      	pop	{r3, r4, r5, r6, r7, pc}
10006e34:	4295      	cmp	r5, r2
10006e36:	d319      	bcc.n	10006e6c <tu_fifo_write+0x7c>
10006e38:	462b      	mov	r3, r5
10006e3a:	1a9b      	subs	r3, r3, r2
10006e3c:	b29b      	uxth	r3, r3
10006e3e:	4293      	cmp	r3, r2
10006e40:	d2fb      	bcs.n	10006e3a <tu_fifo_write+0x4a>
10006e42:	88e2      	ldrh	r2, [r4, #6]
10006e44:	6820      	ldr	r0, [r4, #0]
10006e46:	f3c2 020e 	ubfx	r2, r2, #0, #15
10006e4a:	fb02 0003 	mla	r0, r2, r3, r0
10006e4e:	4631      	mov	r1, r6
10006e50:	f000 fd18 	bl	10007884 <memcpy>
10006e54:	1c6b      	adds	r3, r5, #1
10006e56:	b29b      	uxth	r3, r3
10006e58:	429d      	cmp	r5, r3
10006e5a:	88a2      	ldrh	r2, [r4, #4]
10006e5c:	d912      	bls.n	10006e84 <tu_fifo_write+0x94>
10006e5e:	2300      	movs	r3, #0
10006e60:	0051      	lsls	r1, r2, #1
10006e62:	1a5b      	subs	r3, r3, r1
10006e64:	b29b      	uxth	r3, r3
10006e66:	2701      	movs	r7, #1
10006e68:	8123      	strh	r3, [r4, #8]
10006e6a:	e7dd      	b.n	10006e28 <tu_fifo_write+0x38>
10006e6c:	88e2      	ldrh	r2, [r4, #6]
10006e6e:	6820      	ldr	r0, [r4, #0]
10006e70:	f3c2 020e 	ubfx	r2, r2, #0, #15
10006e74:	fb05 0002 	mla	r0, r5, r2, r0
10006e78:	4631      	mov	r1, r6
10006e7a:	f000 fd03 	bl	10007884 <memcpy>
10006e7e:	3501      	adds	r5, #1
10006e80:	88a2      	ldrh	r2, [r4, #4]
10006e82:	b2ab      	uxth	r3, r5
10006e84:	ebb3 0f42 	cmp.w	r3, r2, lsl #1
10006e88:	ea4f 0142 	mov.w	r1, r2, lsl #1
10006e8c:	dbeb      	blt.n	10006e66 <tu_fifo_write+0x76>
10006e8e:	e7e8      	b.n	10006e62 <tu_fifo_write+0x72>

10006e90 <tu_fifo_write_n>:
10006e90:	e92d 4ff0 	stmdb	sp!, {r4, r5, r6, r7, r8, r9, sl, fp, lr}
10006e94:	4616      	mov	r6, r2
10006e96:	b083      	sub	sp, #12
10006e98:	2a00      	cmp	r2, #0
10006e9a:	d04c      	beq.n	10006f36 <tu_fifo_write_n+0xa6>
10006e9c:	4605      	mov	r5, r0
10006e9e:	68c0      	ldr	r0, [r0, #12]
10006ea0:	4688      	mov	r8, r1
10006ea2:	b118      	cbz	r0, 10006eac <tu_fifo_write_n+0x1c>
10006ea4:	f04f 31ff 	mov.w	r1, #4294967295
10006ea8:	f000 feea 	bl	10007c80 <__mutex_enter_timeout_ms_veneer>
10006eac:	79ea      	ldrb	r2, [r5, #7]
10006eae:	892f      	ldrh	r7, [r5, #8]
10006eb0:	8969      	ldrh	r1, [r5, #10]
10006eb2:	09d2      	lsrs	r2, r2, #7
10006eb4:	88ab      	ldrh	r3, [r5, #4]
10006eb6:	b2bf      	uxth	r7, r7
10006eb8:	b289      	uxth	r1, r1
10006eba:	d140      	bne.n	10006f3e <tu_fifo_write_n+0xae>
10006ebc:	428f      	cmp	r7, r1
10006ebe:	bf36      	itet	cc
10006ec0:	ebc1 0143 	rsbcc	r1, r1, r3, lsl #1
10006ec4:	1a79      	subcs	r1, r7, r1
10006ec6:	19c9      	addcc	r1, r1, r7
10006ec8:	b289      	uxth	r1, r1
10006eca:	4299      	cmp	r1, r3
10006ecc:	d241      	bcs.n	10006f52 <tu_fifo_write_n+0xc2>
10006ece:	1a59      	subs	r1, r3, r1
10006ed0:	b289      	uxth	r1, r1
10006ed2:	428e      	cmp	r6, r1
10006ed4:	bf28      	it	cs
10006ed6:	460e      	movcs	r6, r1
10006ed8:	f8b5 a006 	ldrh.w	sl, [r5, #6]
10006edc:	eb07 0906 	add.w	r9, r7, r6
10006ee0:	eba6 0b03 	sub.w	fp, r6, r3
10006ee4:	f3ca 0a0e 	ubfx	sl, sl, #0, #15
10006ee8:	fa1f f989 	uxth.w	r9, r9
10006eec:	fa1f fb8b 	uxth.w	fp, fp
10006ef0:	429f      	cmp	r7, r3
10006ef2:	463c      	mov	r4, r7
10006ef4:	d303      	bcc.n	10006efe <tu_fifo_write_n+0x6e>
10006ef6:	1ae4      	subs	r4, r4, r3
10006ef8:	b2a4      	uxth	r4, r4
10006efa:	429c      	cmp	r4, r3
10006efc:	d2fb      	bcs.n	10006ef6 <tu_fifo_write_n+0x66>
10006efe:	1b1b      	subs	r3, r3, r4
10006f00:	6828      	ldr	r0, [r5, #0]
10006f02:	b29b      	uxth	r3, r3
10006f04:	42b3      	cmp	r3, r6
10006f06:	fb0a 0004 	mla	r0, sl, r4, r0
10006f0a:	d34b      	bcc.n	10006fa4 <tu_fifo_write_n+0x114>
10006f0c:	4641      	mov	r1, r8
10006f0e:	fb0a f206 	mul.w	r2, sl, r6
10006f12:	f000 fcb7 	bl	10007884 <memcpy>
10006f16:	88aa      	ldrh	r2, [r5, #4]
10006f18:	454f      	cmp	r7, r9
10006f1a:	ea4f 0342 	mov.w	r3, r2, lsl #1
10006f1e:	d802      	bhi.n	10006f26 <tu_fifo_write_n+0x96>
10006f20:	ebb9 0f42 	cmp.w	r9, r2, lsl #1
10006f24:	db03      	blt.n	10006f2e <tu_fifo_write_n+0x9e>
10006f26:	eba9 0303 	sub.w	r3, r9, r3
10006f2a:	fa1f f983 	uxth.w	r9, r3
10006f2e:	68e8      	ldr	r0, [r5, #12]
10006f30:	f8a5 9008 	strh.w	r9, [r5, #8]
10006f34:	b988      	cbnz	r0, 10006f5a <tu_fifo_write_n+0xca>
10006f36:	4630      	mov	r0, r6
10006f38:	b003      	add	sp, #12
10006f3a:	e8bd 8ff0 	ldmia.w	sp!, {r4, r5, r6, r7, r8, r9, sl, fp, pc}
10006f3e:	f8b5 a006 	ldrh.w	sl, [r5, #6]
10006f42:	429e      	cmp	r6, r3
10006f44:	f3ca 0a0e 	ubfx	sl, sl, #0, #15
10006f48:	d30d      	bcc.n	10006f66 <tu_fifo_write_n+0xd6>
10006f4a:	2b00      	cmp	r3, #0
10006f4c:	d13f      	bne.n	10006fce <tu_fifo_write_n+0x13e>
10006f4e:	461e      	mov	r6, r3
10006f50:	e000      	b.n	10006f54 <tu_fifo_write_n+0xc4>
10006f52:	2600      	movs	r6, #0
10006f54:	68e8      	ldr	r0, [r5, #12]
10006f56:	2800      	cmp	r0, #0
10006f58:	d0ed      	beq.n	10006f36 <tu_fifo_write_n+0xa6>
10006f5a:	f000 fea5 	bl	10007ca8 <__mutex_exit_veneer>
10006f5e:	4630      	mov	r0, r6
10006f60:	b003      	add	sp, #12
10006f62:	e8bd 8ff0 	ldmia.w	sp!, {r4, r5, r6, r7, r8, r9, sl, fp, pc}
10006f66:	428f      	cmp	r7, r1
10006f68:	bf36      	itet	cc
10006f6a:	ebc1 0243 	rsbcc	r2, r1, r3, lsl #1
10006f6e:	1a7a      	subcs	r2, r7, r1
10006f70:	19d2      	addcc	r2, r2, r7
10006f72:	b292      	uxth	r2, r2
10006f74:	0058      	lsls	r0, r3, #1
10006f76:	4432      	add	r2, r6
10006f78:	eba6 0b03 	sub.w	fp, r6, r3
10006f7c:	4282      	cmp	r2, r0
10006f7e:	fa1f fb8b 	uxth.w	fp, fp
10006f82:	db0a      	blt.n	10006f9a <tu_fifo_write_n+0x10a>
10006f84:	eb01 0903 	add.w	r9, r1, r3
10006f88:	fa1f f989 	uxth.w	r9, r9
10006f8c:	eba9 0706 	sub.w	r7, r9, r6
10006f90:	b2bf      	uxth	r7, r7
10006f92:	42b9      	cmp	r1, r7
10006f94:	d918      	bls.n	10006fc8 <tu_fifo_write_n+0x138>
10006f96:	1a38      	subs	r0, r7, r0
10006f98:	b287      	uxth	r7, r0
10006f9a:	eb06 0907 	add.w	r9, r6, r7
10006f9e:	fa1f f989 	uxth.w	r9, r9
10006fa2:	e7a5      	b.n	10006ef0 <tu_fifo_write_n+0x60>
10006fa4:	fb13 f30a 	smulbb	r3, r3, sl
10006fa8:	445c      	add	r4, fp
10006faa:	fb14 f40a 	smulbb	r4, r4, sl
10006fae:	b29a      	uxth	r2, r3
10006fb0:	4641      	mov	r1, r8
10006fb2:	9201      	str	r2, [sp, #4]
10006fb4:	f000 fc66 	bl	10007884 <memcpy>
10006fb8:	9a01      	ldr	r2, [sp, #4]
10006fba:	6828      	ldr	r0, [r5, #0]
10006fbc:	eb08 0102 	add.w	r1, r8, r2
10006fc0:	b2a2      	uxth	r2, r4
10006fc2:	f000 fc5f 	bl	10007884 <memcpy>
10006fc6:	e7a6      	b.n	10006f16 <tu_fifo_write_n+0x86>
10006fc8:	42b8      	cmp	r0, r7
10006fca:	dc91      	bgt.n	10006ef0 <tu_fifo_write_n+0x60>
10006fcc:	e7e3      	b.n	10006f96 <tu_fifo_write_n+0x106>
10006fce:	1af6      	subs	r6, r6, r3
10006fd0:	eb01 0903 	add.w	r9, r1, r3
10006fd4:	fb0a 8806 	mla	r8, sl, r6, r8
10006fd8:	460f      	mov	r7, r1
10006fda:	461e      	mov	r6, r3
10006fdc:	f04f 0b00 	mov.w	fp, #0
10006fe0:	fa1f f989 	uxth.w	r9, r9
10006fe4:	e784      	b.n	10006ef0 <tu_fifo_write_n+0x60>
10006fe6:	bf00      	nop

10006fe8 <tu_fifo_clear>:
10006fe8:	b510      	push	{r4, lr}
10006fea:	4604      	mov	r4, r0
10006fec:	68c0      	ldr	r0, [r0, #12]
10006fee:	b118      	cbz	r0, 10006ff8 <tu_fifo_clear+0x10>
10006ff0:	f04f 31ff 	mov.w	r1, #4294967295
10006ff4:	f000 fe44 	bl	10007c80 <__mutex_enter_timeout_ms_veneer>
10006ff8:	6920      	ldr	r0, [r4, #16]
10006ffa:	b118      	cbz	r0, 10007004 <tu_fifo_clear+0x1c>
10006ffc:	f04f 31ff 	mov.w	r1, #4294967295
10007000:	f000 fe3e 	bl	10007c80 <__mutex_enter_timeout_ms_veneer>
10007004:	2300      	movs	r3, #0
10007006:	68e0      	ldr	r0, [r4, #12]
10007008:	8163      	strh	r3, [r4, #10]
1000700a:	8123      	strh	r3, [r4, #8]
1000700c:	b108      	cbz	r0, 10007012 <tu_fifo_clear+0x2a>
1000700e:	f000 fe4b 	bl	10007ca8 <__mutex_exit_veneer>
10007012:	6920      	ldr	r0, [r4, #16]
10007014:	b108      	cbz	r0, 1000701a <tu_fifo_clear+0x32>
10007016:	f000 fe47 	bl	10007ca8 <__mutex_exit_veneer>
1000701a:	2001      	movs	r0, #1
1000701c:	bd10      	pop	{r4, pc}
1000701e:	bf00      	nop

10007020 <tu_fifo_set_overwritable>:
10007020:	b538      	push	{r3, r4, r5, lr}
10007022:	4604      	mov	r4, r0
10007024:	68c0      	ldr	r0, [r0, #12]
10007026:	460d      	mov	r5, r1
10007028:	b118      	cbz	r0, 10007032 <tu_fifo_set_overwritable+0x12>
1000702a:	f04f 31ff 	mov.w	r1, #4294967295
1000702e:	f000 fe27 	bl	10007c80 <__mutex_enter_timeout_ms_veneer>
10007032:	6920      	ldr	r0, [r4, #16]
10007034:	b118      	cbz	r0, 1000703e <tu_fifo_set_overwritable+0x1e>
10007036:	f04f 31ff 	mov.w	r1, #4294967295
1000703a:	f000 fe21 	bl	10007c80 <__mutex_enter_timeout_ms_veneer>
1000703e:	79e3      	ldrb	r3, [r4, #7]
10007040:	68e0      	ldr	r0, [r4, #12]
10007042:	f365 13c7 	bfi	r3, r5, #7, #1
10007046:	71e3      	strb	r3, [r4, #7]
10007048:	b108      	cbz	r0, 1000704e <tu_fifo_set_overwritable+0x2e>
1000704a:	f000 fe2d 	bl	10007ca8 <__mutex_exit_veneer>
1000704e:	6920      	ldr	r0, [r4, #16]
10007050:	b108      	cbz	r0, 10007056 <tu_fifo_set_overwritable+0x36>
10007052:	f000 fe29 	bl	10007ca8 <__mutex_exit_veneer>
10007056:	2001      	movs	r0, #1
10007058:	bd38      	pop	{r3, r4, r5, pc}
1000705a:	bf00      	nop

1000705c <_retrieve_unique_id_on_boot>:
1000705c:	b500      	push	{lr}
1000705e:	f245 3047 	movw	r0, #21319	@ 0x5347
10007062:	b08b      	sub	sp, #44	@ 0x2c
10007064:	f7fb fff6 	bl	10003054 <rom_func_lookup>
10007068:	2201      	movs	r2, #1
1000706a:	4603      	mov	r3, r0
1000706c:	2109      	movs	r1, #9
1000706e:	a801      	add	r0, sp, #4
10007070:	4798      	blx	r3
10007072:	e9dd 3203 	ldrd	r3, r2, [sp, #12]
10007076:	4904      	ldr	r1, [pc, #16]	@ (10007088 <_retrieve_unique_id_on_boot+0x2c>)
10007078:	ba12      	rev	r2, r2
1000707a:	ba1b      	rev	r3, r3
1000707c:	e9c1 2300 	strd	r2, r3, [r1]
10007080:	b00b      	add	sp, #44	@ 0x2c
10007082:	f85d fb04 	ldr.w	pc, [sp], #4
10007086:	bf00      	nop
10007088:	2004298c 	.word	0x2004298c

1000708c <pico_get_unique_board_id_string>:
1000708c:	2901      	cmp	r1, #1
1000708e:	f101 33ff 	add.w	r3, r1, #4294967295
10007092:	f000 80b3 	beq.w	100071fc <pico_get_unique_board_id_string+0x170>
10007096:	495d      	ldr	r1, [pc, #372]	@ (1000720c <pico_get_unique_board_id_string+0x180>)
10007098:	780a      	ldrb	r2, [r1, #0]
1000709a:	ea4f 1c12 	mov.w	ip, r2, lsr #4
1000709e:	2a9f      	cmp	r2, #159	@ 0x9f
100070a0:	bf8c      	ite	hi
100070a2:	f10c 0c37 	addhi.w	ip, ip, #55	@ 0x37
100070a6:	f10c 0c30 	addls.w	ip, ip, #48	@ 0x30
100070aa:	2b01      	cmp	r3, #1
100070ac:	f880 c000 	strb.w	ip, [r0]
100070b0:	f000 80a7 	beq.w	10007202 <pico_get_unique_board_id_string+0x176>
100070b4:	f002 020f 	and.w	r2, r2, #15
100070b8:	2a09      	cmp	r2, #9
100070ba:	bf8c      	ite	hi
100070bc:	3237      	addhi	r2, #55	@ 0x37
100070be:	3230      	addls	r2, #48	@ 0x30
100070c0:	2b02      	cmp	r3, #2
100070c2:	7042      	strb	r2, [r0, #1]
100070c4:	f000 809d 	beq.w	10007202 <pico_get_unique_board_id_string+0x176>
100070c8:	784a      	ldrb	r2, [r1, #1]
100070ca:	ea4f 1c12 	mov.w	ip, r2, lsr #4
100070ce:	2a9f      	cmp	r2, #159	@ 0x9f
100070d0:	bf8c      	ite	hi
100070d2:	f10c 0c37 	addhi.w	ip, ip, #55	@ 0x37
100070d6:	f10c 0c30 	addls.w	ip, ip, #48	@ 0x30
100070da:	2b03      	cmp	r3, #3
100070dc:	f880 c002 	strb.w	ip, [r0, #2]
100070e0:	f000 808f 	beq.w	10007202 <pico_get_unique_board_id_string+0x176>
100070e4:	f002 020f 	and.w	r2, r2, #15
100070e8:	2a09      	cmp	r2, #9
100070ea:	bf8c      	ite	hi
100070ec:	3237      	addhi	r2, #55	@ 0x37
100070ee:	3230      	addls	r2, #48	@ 0x30
100070f0:	2b04      	cmp	r3, #4
100070f2:	70c2      	strb	r2, [r0, #3]
100070f4:	f000 8085 	beq.w	10007202 <pico_get_unique_board_id_string+0x176>
100070f8:	788a      	ldrb	r2, [r1, #2]
100070fa:	ea4f 1c12 	mov.w	ip, r2, lsr #4
100070fe:	2a9f      	cmp	r2, #159	@ 0x9f
10007100:	bf8c      	ite	hi
10007102:	f10c 0c37 	addhi.w	ip, ip, #55	@ 0x37
10007106:	f10c 0c30 	addls.w	ip, ip, #48	@ 0x30
1000710a:	2b05      	cmp	r3, #5
1000710c:	f880 c004 	strb.w	ip, [r0, #4]
10007110:	d077      	beq.n	10007202 <pico_get_unique_board_id_string+0x176>
10007112:	f002 020f 	and.w	r2, r2, #15
10007116:	2a09      	cmp	r2, #9
10007118:	bf8c      	ite	hi
1000711a:	3237      	addhi	r2, #55	@ 0x37
1000711c:	3230      	addls	r2, #48	@ 0x30
1000711e:	2b06      	cmp	r3, #6
10007120:	7142      	strb	r2, [r0, #5]
10007122:	d06e      	beq.n	10007202 <pico_get_unique_board_id_string+0x176>
10007124:	78ca      	ldrb	r2, [r1, #3]
10007126:	ea4f 1c12 	mov.w	ip, r2, lsr #4
1000712a:	2a9f      	cmp	r2, #159	@ 0x9f
1000712c:	bf8c      	ite	hi
1000712e:	f10c 0c37 	addhi.w	ip, ip, #55	@ 0x37
10007132:	f10c 0c30 	addls.w	ip, ip, #48	@ 0x30
10007136:	2b07      	cmp	r3, #7
10007138:	f880 c006 	strb.w	ip, [r0, #6]
1000713c:	d061      	beq.n	10007202 <pico_get_unique_board_id_string+0x176>
1000713e:	f002 020f 	and.w	r2, r2, #15
10007142:	2a09      	cmp	r2, #9
10007144:	bf8c      	ite	hi
10007146:	3237      	addhi	r2, #55	@ 0x37
10007148:	3230      	addls	r2, #48	@ 0x30
1000714a:	2b08      	cmp	r3, #8
1000714c:	71c2      	strb	r2, [r0, #7]
1000714e:	d058      	beq.n	10007202 <pico_get_unique_board_id_string+0x176>
10007150:	790a      	ldrb	r2, [r1, #4]
10007152:	ea4f 1c12 	mov.w	ip, r2, lsr #4
10007156:	2a9f      	cmp	r2, #159	@ 0x9f
10007158:	bf8c      	ite	hi
1000715a:	f10c 0c37 	addhi.w	ip, ip, #55	@ 0x37
1000715e:	f10c 0c30 	addls.w	ip, ip, #48	@ 0x30
10007162:	2b09      	cmp	r3, #9
10007164:	f880 c008 	strb.w	ip, [r0, #8]
10007168:	d04b      	beq.n	10007202 <pico_get_unique_board_id_string+0x176>
1000716a:	f002 020f 	and.w	r2, r2, #15
1000716e:	2a09      	cmp	r2, #9
10007170:	bf8c      	ite	hi
10007172:	3237      	addhi	r2, #55	@ 0x37
10007174:	3230      	addls	r2, #48	@ 0x30
10007176:	2b0a      	cmp	r3, #10
10007178:	7242      	strb	r2, [r0, #9]
1000717a:	d042      	beq.n	10007202 <pico_get_unique_board_id_string+0x176>
1000717c:	794a      	ldrb	r2, [r1, #5]
1000717e:	ea4f 1c12 	mov.w	ip, r2, lsr #4
10007182:	2a9f      	cmp	r2, #159	@ 0x9f
10007184:	bf8c      	ite	hi
10007186:	f10c 0c37 	addhi.w	ip, ip, #55	@ 0x37
1000718a:	f10c 0c30 	addls.w	ip, ip, #48	@ 0x30
1000718e:	2b0b      	cmp	r3, #11
10007190:	f880 c00a 	strb.w	ip, [r0, #10]
10007194:	d035      	beq.n	10007202 <pico_get_unique_board_id_string+0x176>
10007196:	f002 020f 	and.w	r2, r2, #15
1000719a:	2a09      	cmp	r2, #9
1000719c:	bf8c      	ite	hi
1000719e:	3237      	addhi	r2, #55	@ 0x37
100071a0:	3230      	addls	r2, #48	@ 0x30
100071a2:	2b0c      	cmp	r3, #12
100071a4:	72c2      	strb	r2, [r0, #11]
100071a6:	d02c      	beq.n	10007202 <pico_get_unique_board_id_string+0x176>
100071a8:	798a      	ldrb	r2, [r1, #6]
100071aa:	ea4f 1c12 	mov.w	ip, r2, lsr #4
100071ae:	2a9f      	cmp	r2, #159	@ 0x9f
100071b0:	bf8c      	ite	hi
100071b2:	f10c 0c37 	addhi.w	ip, ip, #55	@ 0x37
100071b6:	f10c 0c30 	addls.w	ip, ip, #48	@ 0x30
100071ba:	2b0d      	cmp	r3, #13
100071bc:	f880 c00c 	strb.w	ip, [r0, #12]
100071c0:	d01f      	beq.n	10007202 <pico_get_unique_board_id_string+0x176>
100071c2:	f002 020f 	and.w	r2, r2, #15
100071c6:	2a09      	cmp	r2, #9
100071c8:	bf8c      	ite	hi
100071ca:	3237      	addhi	r2, #55	@ 0x37
100071cc:	3230      	addls	r2, #48	@ 0x30
100071ce:	2b0e      	cmp	r3, #14
100071d0:	7342      	strb	r2, [r0, #13]
100071d2:	d016      	beq.n	10007202 <pico_get_unique_board_id_string+0x176>
100071d4:	79ca      	ldrb	r2, [r1, #7]
100071d6:	0911      	lsrs	r1, r2, #4
100071d8:	2a9f      	cmp	r2, #159	@ 0x9f
100071da:	bf8c      	ite	hi
100071dc:	3137      	addhi	r1, #55	@ 0x37
100071de:	3130      	addls	r1, #48	@ 0x30
100071e0:	2b0f      	cmp	r3, #15
100071e2:	7381      	strb	r1, [r0, #14]
100071e4:	d00d      	beq.n	10007202 <pico_get_unique_board_id_string+0x176>
100071e6:	f002 020f 	and.w	r2, r2, #15
100071ea:	2a09      	cmp	r2, #9
100071ec:	bf94      	ite	ls
100071ee:	3230      	addls	r2, #48	@ 0x30
100071f0:	3237      	addhi	r2, #55	@ 0x37
100071f2:	2b10      	cmp	r3, #16
100071f4:	73c2      	strb	r2, [r0, #15]
100071f6:	bf18      	it	ne
100071f8:	3010      	addne	r0, #16
100071fa:	d002      	beq.n	10007202 <pico_get_unique_board_id_string+0x176>
100071fc:	2300      	movs	r3, #0
100071fe:	7003      	strb	r3, [r0, #0]
10007200:	4770      	bx	lr
10007202:	4418      	add	r0, r3
10007204:	2300      	movs	r3, #0
10007206:	7003      	strb	r3, [r0, #0]
10007208:	4770      	bx	lr
1000720a:	bf00      	nop
1000720c:	2004298c 	.word	0x2004298c

10007210 <malloc>:
10007210:	4b02      	ldr	r3, [pc, #8]	@ (1000721c <malloc+0xc>)
10007212:	4601      	mov	r1, r0
10007214:	6818      	ldr	r0, [r3, #0]
10007216:	f000 b803 	b.w	10007220 <_malloc_r>
1000721a:	bf00      	nop
1000721c:	20001a70 	.word	0x20001a70

10007220 <_malloc_r>:
10007220:	f101 030b 	add.w	r3, r1, #11
10007224:	2b16      	cmp	r3, #22
10007226:	e92d 4ff0 	stmdb	sp!, {r4, r5, r6, r7, r8, r9, sl, fp, lr}
1000722a:	4607      	mov	r7, r0
1000722c:	b083      	sub	sp, #12
1000722e:	d823      	bhi.n	10007278 <_malloc_r+0x58>
10007230:	2910      	cmp	r1, #16
10007232:	f200 80af 	bhi.w	10007394 <_malloc_r+0x174>
10007236:	f000 fa9d 	bl	10007774 <__malloc_lock>
1000723a:	2510      	movs	r5, #16
1000723c:	2318      	movs	r3, #24
1000723e:	2002      	movs	r0, #2
10007240:	4ebc      	ldr	r6, [pc, #752]	@ (10007534 <_malloc_r+0x314>)
10007242:	4433      	add	r3, r6
10007244:	685c      	ldr	r4, [r3, #4]
10007246:	f1a3 0208 	sub.w	r2, r3, #8
1000724a:	4294      	cmp	r4, r2
1000724c:	f000 8180 	beq.w	10007550 <_malloc_r+0x330>
10007250:	6863      	ldr	r3, [r4, #4]
10007252:	4638      	mov	r0, r7
10007254:	f023 0303 	bic.w	r3, r3, #3
10007258:	e9d4 1202 	ldrd	r1, r2, [r4, #8]
1000725c:	4423      	add	r3, r4
1000725e:	60ca      	str	r2, [r1, #12]
10007260:	6091      	str	r1, [r2, #8]
10007262:	685a      	ldr	r2, [r3, #4]
10007264:	3408      	adds	r4, #8
10007266:	f042 0201 	orr.w	r2, r2, #1
1000726a:	605a      	str	r2, [r3, #4]
1000726c:	f000 fa88 	bl	10007780 <__malloc_unlock>
10007270:	4620      	mov	r0, r4
10007272:	b003      	add	sp, #12
10007274:	e8bd 8ff0 	ldmia.w	sp!, {r4, r5, r6, r7, r8, r9, sl, fp, pc}
10007278:	2b00      	cmp	r3, #0
1000727a:	f023 0507 	bic.w	r5, r3, #7
1000727e:	f2c0 8089 	blt.w	10007394 <_malloc_r+0x174>
10007282:	42a9      	cmp	r1, r5
10007284:	f200 8086 	bhi.w	10007394 <_malloc_r+0x174>
10007288:	f000 fa74 	bl	10007774 <__malloc_lock>
1000728c:	f5b5 7ffc 	cmp.w	r5, #504	@ 0x1f8
10007290:	f0c0 81b4 	bcc.w	100075fc <_malloc_r+0x3dc>
10007294:	0a6b      	lsrs	r3, r5, #9
10007296:	f000 8081 	beq.w	1000739c <_malloc_r+0x17c>
1000729a:	2b04      	cmp	r3, #4
1000729c:	f200 817e 	bhi.w	1000759c <_malloc_r+0x37c>
100072a0:	09ab      	lsrs	r3, r5, #6
100072a2:	f103 0039 	add.w	r0, r3, #57	@ 0x39
100072a6:	f103 0e38 	add.w	lr, r3, #56	@ 0x38
100072aa:	00c3      	lsls	r3, r0, #3
100072ac:	4ea1      	ldr	r6, [pc, #644]	@ (10007534 <_malloc_r+0x314>)
100072ae:	4433      	add	r3, r6
100072b0:	f1a3 0c08 	sub.w	ip, r3, #8
100072b4:	685c      	ldr	r4, [r3, #4]
100072b6:	45a4      	cmp	ip, r4
100072b8:	d107      	bne.n	100072ca <_malloc_r+0xaa>
100072ba:	e00d      	b.n	100072d8 <_malloc_r+0xb8>
100072bc:	2a00      	cmp	r2, #0
100072be:	68e1      	ldr	r1, [r4, #12]
100072c0:	f280 8132 	bge.w	10007528 <_malloc_r+0x308>
100072c4:	458c      	cmp	ip, r1
100072c6:	460c      	mov	r4, r1
100072c8:	d006      	beq.n	100072d8 <_malloc_r+0xb8>
100072ca:	6863      	ldr	r3, [r4, #4]
100072cc:	f023 0303 	bic.w	r3, r3, #3
100072d0:	1b5a      	subs	r2, r3, r5
100072d2:	2a0f      	cmp	r2, #15
100072d4:	ddf2      	ble.n	100072bc <_malloc_r+0x9c>
100072d6:	4670      	mov	r0, lr
100072d8:	f8df 8270 	ldr.w	r8, [pc, #624]	@ 1000754c <_malloc_r+0x32c>
100072dc:	6934      	ldr	r4, [r6, #16]
100072de:	4544      	cmp	r4, r8
100072e0:	f000 80e7 	beq.w	100074b2 <_malloc_r+0x292>
100072e4:	6863      	ldr	r3, [r4, #4]
100072e6:	f023 0c03 	bic.w	ip, r3, #3
100072ea:	ebac 0305 	sub.w	r3, ip, r5
100072ee:	2b0f      	cmp	r3, #15
100072f0:	f300 8194 	bgt.w	1000761c <_malloc_r+0x3fc>
100072f4:	2b00      	cmp	r3, #0
100072f6:	e9c6 8804 	strd	r8, r8, [r6, #16]
100072fa:	f280 8183 	bge.w	10007604 <_malloc_r+0x3e4>
100072fe:	f5bc 7f00 	cmp.w	ip, #512	@ 0x200
10007302:	f8d6 e004 	ldr.w	lr, [r6, #4]
10007306:	f080 8129 	bcs.w	1000755c <_malloc_r+0x33c>
1000730a:	ea4f 03dc 	mov.w	r3, ip, lsr #3
1000730e:	2201      	movs	r2, #1
10007310:	ea4f 1c5c 	mov.w	ip, ip, lsr #5
10007314:	3301      	adds	r3, #1
10007316:	fa02 f20c 	lsl.w	r2, r2, ip
1000731a:	f856 1033 	ldr.w	r1, [r6, r3, lsl #3]
1000731e:	ea4e 0e02 	orr.w	lr, lr, r2
10007322:	eb06 02c3 	add.w	r2, r6, r3, lsl #3
10007326:	3a08      	subs	r2, #8
10007328:	f8c6 e004 	str.w	lr, [r6, #4]
1000732c:	e9c4 1202 	strd	r1, r2, [r4, #8]
10007330:	f846 4033 	str.w	r4, [r6, r3, lsl #3]
10007334:	60cc      	str	r4, [r1, #12]
10007336:	1083      	asrs	r3, r0, #2
10007338:	f04f 0c01 	mov.w	ip, #1
1000733c:	fa0c fc03 	lsl.w	ip, ip, r3
10007340:	45f4      	cmp	ip, lr
10007342:	d831      	bhi.n	100073a8 <_malloc_r+0x188>
10007344:	ea1c 0f0e 	tst.w	ip, lr
10007348:	d107      	bne.n	1000735a <_malloc_r+0x13a>
1000734a:	f020 0003 	bic.w	r0, r0, #3
1000734e:	ea4f 0c4c 	mov.w	ip, ip, lsl #1
10007352:	3004      	adds	r0, #4
10007354:	ea1c 0f0e 	tst.w	ip, lr
10007358:	d0f9      	beq.n	1000734e <_malloc_r+0x12e>
1000735a:	eb06 0ac0 	add.w	sl, r6, r0, lsl #3
1000735e:	4681      	mov	r9, r0
10007360:	46d6      	mov	lr, sl
10007362:	f8de 300c 	ldr.w	r3, [lr, #12]
10007366:	e00b      	b.n	10007380 <_malloc_r+0x160>
10007368:	685a      	ldr	r2, [r3, #4]
1000736a:	461c      	mov	r4, r3
1000736c:	68db      	ldr	r3, [r3, #12]
1000736e:	f022 0203 	bic.w	r2, r2, #3
10007372:	1b51      	subs	r1, r2, r5
10007374:	290f      	cmp	r1, #15
10007376:	f300 811d 	bgt.w	100075b4 <_malloc_r+0x394>
1000737a:	2900      	cmp	r1, #0
1000737c:	f280 8131 	bge.w	100075e2 <_malloc_r+0x3c2>
10007380:	459e      	cmp	lr, r3
10007382:	d1f1      	bne.n	10007368 <_malloc_r+0x148>
10007384:	f109 0901 	add.w	r9, r9, #1
10007388:	f10e 0e08 	add.w	lr, lr, #8
1000738c:	f019 0f03 	tst.w	r9, #3
10007390:	d1e7      	bne.n	10007362 <_malloc_r+0x142>
10007392:	e167      	b.n	10007664 <_malloc_r+0x444>
10007394:	230c      	movs	r3, #12
10007396:	603b      	str	r3, [r7, #0]
10007398:	2400      	movs	r4, #0
1000739a:	e769      	b.n	10007270 <_malloc_r+0x50>
1000739c:	f44f 7300 	mov.w	r3, #512	@ 0x200
100073a0:	2040      	movs	r0, #64	@ 0x40
100073a2:	f04f 0e3f 	mov.w	lr, #63	@ 0x3f
100073a6:	e781      	b.n	100072ac <_malloc_r+0x8c>
100073a8:	68b4      	ldr	r4, [r6, #8]
100073aa:	6863      	ldr	r3, [r4, #4]
100073ac:	f023 0903 	bic.w	r9, r3, #3
100073b0:	eba9 0305 	sub.w	r3, r9, r5
100073b4:	2b0f      	cmp	r3, #15
100073b6:	dd02      	ble.n	100073be <_malloc_r+0x19e>
100073b8:	45a9      	cmp	r9, r5
100073ba:	f080 80a4 	bcs.w	10007506 <_malloc_r+0x2e6>
100073be:	4b5e      	ldr	r3, [pc, #376]	@ (10007538 <_malloc_r+0x318>)
100073c0:	2008      	movs	r0, #8
100073c2:	681b      	ldr	r3, [r3, #0]
100073c4:	f103 0810 	add.w	r8, r3, #16
100073c8:	eb04 0309 	add.w	r3, r4, r9
100073cc:	9300      	str	r3, [sp, #0]
100073ce:	f000 fa4b 	bl	10007868 <sysconf>
100073d2:	4a5a      	ldr	r2, [pc, #360]	@ (1000753c <_malloc_r+0x31c>)
100073d4:	44a8      	add	r8, r5
100073d6:	4683      	mov	fp, r0
100073d8:	6813      	ldr	r3, [r2, #0]
100073da:	3301      	adds	r3, #1
100073dc:	d005      	beq.n	100073ea <_malloc_r+0x1ca>
100073de:	f108 38ff 	add.w	r8, r8, #4294967295
100073e2:	4243      	negs	r3, r0
100073e4:	4480      	add	r8, r0
100073e6:	ea03 0808 	and.w	r8, r3, r8
100073ea:	4641      	mov	r1, r8
100073ec:	4638      	mov	r0, r7
100073ee:	f000 fa1f 	bl	10007830 <_sbrk_r>
100073f2:	f1b0 3fff 	cmp.w	r0, #4294967295
100073f6:	4682      	mov	sl, r0
100073f8:	4a50      	ldr	r2, [pc, #320]	@ (1000753c <_malloc_r+0x31c>)
100073fa:	d079      	beq.n	100074f0 <_malloc_r+0x2d0>
100073fc:	9b00      	ldr	r3, [sp, #0]
100073fe:	4283      	cmp	r3, r0
10007400:	d95a      	bls.n	100074b8 <_malloc_r+0x298>
10007402:	42b4      	cmp	r4, r6
10007404:	d174      	bne.n	100074f0 <_malloc_r+0x2d0>
10007406:	4b4e      	ldr	r3, [pc, #312]	@ (10007540 <_malloc_r+0x320>)
10007408:	f10b 3cff 	add.w	ip, fp, #4294967295
1000740c:	6818      	ldr	r0, [r3, #0]
1000740e:	eb00 0e08 	add.w	lr, r0, r8
10007412:	f8c3 e000 	str.w	lr, [r3]
10007416:	6811      	ldr	r1, [r2, #0]
10007418:	3101      	adds	r1, #1
1000741a:	f000 8173 	beq.w	10007704 <_malloc_r+0x4e4>
1000741e:	9a00      	ldr	r2, [sp, #0]
10007420:	ebaa 0202 	sub.w	r2, sl, r2
10007424:	4472      	add	r2, lr
10007426:	601a      	str	r2, [r3, #0]
10007428:	f01a 0207 	ands.w	r2, sl, #7
1000742c:	e9cd 2300 	strd	r2, r3, [sp]
10007430:	f000 8142 	beq.w	100076b8 <_malloc_r+0x498>
10007434:	f1c2 0208 	rsb	r2, r2, #8
10007438:	4638      	mov	r0, r7
1000743a:	4492      	add	sl, r2
1000743c:	445a      	add	r2, fp
1000743e:	44d0      	add	r8, sl
10007440:	ea08 010c 	and.w	r1, r8, ip
10007444:	1a52      	subs	r2, r2, r1
10007446:	ea02 0b0c 	and.w	fp, r2, ip
1000744a:	4659      	mov	r1, fp
1000744c:	f000 f9f0 	bl	10007830 <_sbrk_r>
10007450:	1c42      	adds	r2, r0, #1
10007452:	9b01      	ldr	r3, [sp, #4]
10007454:	f000 816e 	beq.w	10007734 <_malloc_r+0x514>
10007458:	eba0 000a 	sub.w	r0, r0, sl
1000745c:	eb00 080b 	add.w	r8, r0, fp
10007460:	6819      	ldr	r1, [r3, #0]
10007462:	f048 0201 	orr.w	r2, r8, #1
10007466:	42b4      	cmp	r4, r6
10007468:	f8c6 a008 	str.w	sl, [r6, #8]
1000746c:	4459      	add	r1, fp
1000746e:	f8ca 2004 	str.w	r2, [sl, #4]
10007472:	6019      	str	r1, [r3, #0]
10007474:	d032      	beq.n	100074dc <_malloc_r+0x2bc>
10007476:	f1b9 0f0f 	cmp.w	r9, #15
1000747a:	f240 810c 	bls.w	10007696 <_malloc_r+0x476>
1000747e:	6860      	ldr	r0, [r4, #4]
10007480:	f1a9 020c 	sub.w	r2, r9, #12
10007484:	f04f 0c05 	mov.w	ip, #5
10007488:	f022 0207 	bic.w	r2, r2, #7
1000748c:	f000 0001 	and.w	r0, r0, #1
10007490:	4310      	orrs	r0, r2
10007492:	2a0f      	cmp	r2, #15
10007494:	6060      	str	r0, [r4, #4]
10007496:	eb04 0002 	add.w	r0, r4, r2
1000749a:	e9c0 cc01 	strd	ip, ip, [r0, #4]
1000749e:	d91d      	bls.n	100074dc <_malloc_r+0x2bc>
100074a0:	f104 0108 	add.w	r1, r4, #8
100074a4:	4638      	mov	r0, r7
100074a6:	9300      	str	r3, [sp, #0]
100074a8:	f000 faec 	bl	10007a84 <_free_r>
100074ac:	9b00      	ldr	r3, [sp, #0]
100074ae:	6819      	ldr	r1, [r3, #0]
100074b0:	e014      	b.n	100074dc <_malloc_r+0x2bc>
100074b2:	f8d6 e004 	ldr.w	lr, [r6, #4]
100074b6:	e73e      	b.n	10007336 <_malloc_r+0x116>
100074b8:	4b21      	ldr	r3, [pc, #132]	@ (10007540 <_malloc_r+0x320>)
100074ba:	f10b 3cff 	add.w	ip, fp, #4294967295
100074be:	6819      	ldr	r1, [r3, #0]
100074c0:	4441      	add	r1, r8
100074c2:	468e      	mov	lr, r1
100074c4:	6019      	str	r1, [r3, #0]
100074c6:	d1a6      	bne.n	10007416 <_malloc_r+0x1f6>
100074c8:	9800      	ldr	r0, [sp, #0]
100074ca:	ea10 0f0c 	tst.w	r0, ip
100074ce:	d1a2      	bne.n	10007416 <_malloc_r+0x1f6>
100074d0:	eb09 0308 	add.w	r3, r9, r8
100074d4:	68b2      	ldr	r2, [r6, #8]
100074d6:	f043 0301 	orr.w	r3, r3, #1
100074da:	6053      	str	r3, [r2, #4]
100074dc:	4b19      	ldr	r3, [pc, #100]	@ (10007544 <_malloc_r+0x324>)
100074de:	681a      	ldr	r2, [r3, #0]
100074e0:	428a      	cmp	r2, r1
100074e2:	bf38      	it	cc
100074e4:	6019      	strcc	r1, [r3, #0]
100074e6:	4b18      	ldr	r3, [pc, #96]	@ (10007548 <_malloc_r+0x328>)
100074e8:	681a      	ldr	r2, [r3, #0]
100074ea:	428a      	cmp	r2, r1
100074ec:	bf38      	it	cc
100074ee:	6019      	strcc	r1, [r3, #0]
100074f0:	68b4      	ldr	r4, [r6, #8]
100074f2:	6862      	ldr	r2, [r4, #4]
100074f4:	f022 0203 	bic.w	r2, r2, #3
100074f8:	1b53      	subs	r3, r2, r5
100074fa:	2b0f      	cmp	r3, #15
100074fc:	f340 80ce 	ble.w	1000769c <_malloc_r+0x47c>
10007500:	4295      	cmp	r5, r2
10007502:	f200 80cb 	bhi.w	1000769c <_malloc_r+0x47c>
10007506:	1962      	adds	r2, r4, r5
10007508:	f045 0501 	orr.w	r5, r5, #1
1000750c:	f043 0301 	orr.w	r3, r3, #1
10007510:	3408      	adds	r4, #8
10007512:	f844 5c04 	str.w	r5, [r4, #-4]
10007516:	4638      	mov	r0, r7
10007518:	60b2      	str	r2, [r6, #8]
1000751a:	6053      	str	r3, [r2, #4]
1000751c:	f000 f930 	bl	10007780 <__malloc_unlock>
10007520:	4620      	mov	r0, r4
10007522:	b003      	add	sp, #12
10007524:	e8bd 8ff0 	ldmia.w	sp!, {r4, r5, r6, r7, r8, r9, sl, fp, pc}
10007528:	68a2      	ldr	r2, [r4, #8]
1000752a:	4423      	add	r3, r4
1000752c:	4638      	mov	r0, r7
1000752e:	60d1      	str	r1, [r2, #12]
10007530:	608a      	str	r2, [r1, #8]
10007532:	e696      	b.n	10007262 <_malloc_r+0x42>
10007534:	20001668 	.word	0x20001668
10007538:	2004209c 	.word	0x2004209c
1000753c:	2000165c 	.word	0x2000165c
10007540:	2004206c 	.word	0x2004206c
10007544:	20042094 	.word	0x20042094
10007548:	20042098 	.word	0x20042098
1000754c:	20001670 	.word	0x20001670
10007550:	68dc      	ldr	r4, [r3, #12]
10007552:	42a3      	cmp	r3, r4
10007554:	f47f ae7c 	bne.w	10007250 <_malloc_r+0x30>
10007558:	3002      	adds	r0, #2
1000755a:	e6bd      	b.n	100072d8 <_malloc_r+0xb8>
1000755c:	f5bc 6f20 	cmp.w	ip, #2560	@ 0xa00
10007560:	ea4f 225c 	mov.w	r2, ip, lsr #9
10007564:	d36c      	bcc.n	10007640 <_malloc_r+0x420>
10007566:	2a14      	cmp	r2, #20
10007568:	f200 80b9 	bhi.w	100076de <_malloc_r+0x4be>
1000756c:	f102 035c 	add.w	r3, r2, #92	@ 0x5c
10007570:	325b      	adds	r2, #91	@ 0x5b
10007572:	00db      	lsls	r3, r3, #3
10007574:	18f1      	adds	r1, r6, r3
10007576:	58f3      	ldr	r3, [r6, r3]
10007578:	3908      	subs	r1, #8
1000757a:	4299      	cmp	r1, r3
1000757c:	d103      	bne.n	10007586 <_malloc_r+0x366>
1000757e:	e091      	b.n	100076a4 <_malloc_r+0x484>
10007580:	689b      	ldr	r3, [r3, #8]
10007582:	4299      	cmp	r1, r3
10007584:	d004      	beq.n	10007590 <_malloc_r+0x370>
10007586:	685a      	ldr	r2, [r3, #4]
10007588:	f022 0203 	bic.w	r2, r2, #3
1000758c:	4562      	cmp	r2, ip
1000758e:	d8f7      	bhi.n	10007580 <_malloc_r+0x360>
10007590:	68d9      	ldr	r1, [r3, #12]
10007592:	e9c4 3102 	strd	r3, r1, [r4, #8]
10007596:	608c      	str	r4, [r1, #8]
10007598:	60dc      	str	r4, [r3, #12]
1000759a:	e6cc      	b.n	10007336 <_malloc_r+0x116>
1000759c:	2b14      	cmp	r3, #20
1000759e:	d956      	bls.n	1000764e <_malloc_r+0x42e>
100075a0:	2b54      	cmp	r3, #84	@ 0x54
100075a2:	f200 80a5 	bhi.w	100076f0 <_malloc_r+0x4d0>
100075a6:	0b2b      	lsrs	r3, r5, #12
100075a8:	f103 006f 	add.w	r0, r3, #111	@ 0x6f
100075ac:	f103 0e6e 	add.w	lr, r3, #110	@ 0x6e
100075b0:	00c3      	lsls	r3, r0, #3
100075b2:	e67b      	b.n	100072ac <_malloc_r+0x8c>
100075b4:	f8d4 c008 	ldr.w	ip, [r4, #8]
100075b8:	4638      	mov	r0, r7
100075ba:	1967      	adds	r7, r4, r5
100075bc:	f045 0501 	orr.w	r5, r5, #1
100075c0:	6065      	str	r5, [r4, #4]
100075c2:	f8cc 300c 	str.w	r3, [ip, #12]
100075c6:	f8c3 c008 	str.w	ip, [r3, #8]
100075ca:	f041 0301 	orr.w	r3, r1, #1
100075ce:	e9c6 7704 	strd	r7, r7, [r6, #16]
100075d2:	e9c7 8802 	strd	r8, r8, [r7, #8]
100075d6:	607b      	str	r3, [r7, #4]
100075d8:	50a1      	str	r1, [r4, r2]
100075da:	3408      	adds	r4, #8
100075dc:	f000 f8d0 	bl	10007780 <__malloc_unlock>
100075e0:	e646      	b.n	10007270 <_malloc_r+0x50>
100075e2:	4422      	add	r2, r4
100075e4:	4638      	mov	r0, r7
100075e6:	6851      	ldr	r1, [r2, #4]
100075e8:	f041 0101 	orr.w	r1, r1, #1
100075ec:	6051      	str	r1, [r2, #4]
100075ee:	f854 2f08 	ldr.w	r2, [r4, #8]!
100075f2:	60d3      	str	r3, [r2, #12]
100075f4:	609a      	str	r2, [r3, #8]
100075f6:	f000 f8c3 	bl	10007780 <__malloc_unlock>
100075fa:	e639      	b.n	10007270 <_malloc_r+0x50>
100075fc:	08e8      	lsrs	r0, r5, #3
100075fe:	f105 0308 	add.w	r3, r5, #8
10007602:	e61d      	b.n	10007240 <_malloc_r+0x20>
10007604:	44a4      	add	ip, r4
10007606:	4638      	mov	r0, r7
10007608:	3408      	adds	r4, #8
1000760a:	f8dc 3004 	ldr.w	r3, [ip, #4]
1000760e:	f043 0301 	orr.w	r3, r3, #1
10007612:	f8cc 3004 	str.w	r3, [ip, #4]
10007616:	f000 f8b3 	bl	10007780 <__malloc_unlock>
1000761a:	e629      	b.n	10007270 <_malloc_r+0x50>
1000761c:	1962      	adds	r2, r4, r5
1000761e:	f043 0101 	orr.w	r1, r3, #1
10007622:	f045 0501 	orr.w	r5, r5, #1
10007626:	4638      	mov	r0, r7
10007628:	6065      	str	r5, [r4, #4]
1000762a:	e9c6 2204 	strd	r2, r2, [r6, #16]
1000762e:	e9c2 8802 	strd	r8, r8, [r2, #8]
10007632:	6051      	str	r1, [r2, #4]
10007634:	f844 300c 	str.w	r3, [r4, ip]
10007638:	3408      	adds	r4, #8
1000763a:	f000 f8a1 	bl	10007780 <__malloc_unlock>
1000763e:	e617      	b.n	10007270 <_malloc_r+0x50>
10007640:	ea4f 129c 	mov.w	r2, ip, lsr #6
10007644:	f102 0339 	add.w	r3, r2, #57	@ 0x39
10007648:	3238      	adds	r2, #56	@ 0x38
1000764a:	00db      	lsls	r3, r3, #3
1000764c:	e792      	b.n	10007574 <_malloc_r+0x354>
1000764e:	f103 005c 	add.w	r0, r3, #92	@ 0x5c
10007652:	f103 0e5b 	add.w	lr, r3, #91	@ 0x5b
10007656:	00c3      	lsls	r3, r0, #3
10007658:	e628      	b.n	100072ac <_malloc_r+0x8c>
1000765a:	f85a 3908 	ldr.w	r3, [sl], #-8
1000765e:	4553      	cmp	r3, sl
10007660:	f040 8085 	bne.w	1000776e <_malloc_r+0x54e>
10007664:	f010 0f03 	tst.w	r0, #3
10007668:	f100 30ff 	add.w	r0, r0, #4294967295
1000766c:	d1f5      	bne.n	1000765a <_malloc_r+0x43a>
1000766e:	6873      	ldr	r3, [r6, #4]
10007670:	ea23 030c 	bic.w	r3, r3, ip
10007674:	6073      	str	r3, [r6, #4]
10007676:	ea4f 0c4c 	mov.w	ip, ip, lsl #1
1000767a:	f10c 32ff 	add.w	r2, ip, #4294967295
1000767e:	429a      	cmp	r2, r3
10007680:	d304      	bcc.n	1000768c <_malloc_r+0x46c>
10007682:	e691      	b.n	100073a8 <_malloc_r+0x188>
10007684:	ea4f 0c4c 	mov.w	ip, ip, lsl #1
10007688:	f109 0904 	add.w	r9, r9, #4
1000768c:	ea1c 0f03 	tst.w	ip, r3
10007690:	d0f8      	beq.n	10007684 <_malloc_r+0x464>
10007692:	4648      	mov	r0, r9
10007694:	e661      	b.n	1000735a <_malloc_r+0x13a>
10007696:	2301      	movs	r3, #1
10007698:	f8ca 3004 	str.w	r3, [sl, #4]
1000769c:	4638      	mov	r0, r7
1000769e:	f000 f86f 	bl	10007780 <__malloc_unlock>
100076a2:	e679      	b.n	10007398 <_malloc_r+0x178>
100076a4:	1092      	asrs	r2, r2, #2
100076a6:	f04f 0c01 	mov.w	ip, #1
100076aa:	fa0c f202 	lsl.w	r2, ip, r2
100076ae:	ea4e 0e02 	orr.w	lr, lr, r2
100076b2:	f8c6 e004 	str.w	lr, [r6, #4]
100076b6:	e76c      	b.n	10007592 <_malloc_r+0x372>
100076b8:	eb0a 0208 	add.w	r2, sl, r8
100076bc:	4638      	mov	r0, r7
100076be:	ea02 020c 	and.w	r2, r2, ip
100076c2:	ebab 0b02 	sub.w	fp, fp, r2
100076c6:	ea0b 0b0c 	and.w	fp, fp, ip
100076ca:	4659      	mov	r1, fp
100076cc:	f000 f8b0 	bl	10007830 <_sbrk_r>
100076d0:	1c43      	adds	r3, r0, #1
100076d2:	9b01      	ldr	r3, [sp, #4]
100076d4:	f47f aec0 	bne.w	10007458 <_malloc_r+0x238>
100076d8:	f8dd b000 	ldr.w	fp, [sp]
100076dc:	e6c0      	b.n	10007460 <_malloc_r+0x240>
100076de:	2a54      	cmp	r2, #84	@ 0x54
100076e0:	d813      	bhi.n	1000770a <_malloc_r+0x4ea>
100076e2:	ea4f 321c 	mov.w	r2, ip, lsr #12
100076e6:	f102 036f 	add.w	r3, r2, #111	@ 0x6f
100076ea:	326e      	adds	r2, #110	@ 0x6e
100076ec:	00db      	lsls	r3, r3, #3
100076ee:	e741      	b.n	10007574 <_malloc_r+0x354>
100076f0:	f5b3 7faa 	cmp.w	r3, #340	@ 0x154
100076f4:	d813      	bhi.n	1000771e <_malloc_r+0x4fe>
100076f6:	0beb      	lsrs	r3, r5, #15
100076f8:	f103 0078 	add.w	r0, r3, #120	@ 0x78
100076fc:	f103 0e77 	add.w	lr, r3, #119	@ 0x77
10007700:	00c3      	lsls	r3, r0, #3
10007702:	e5d3      	b.n	100072ac <_malloc_r+0x8c>
10007704:	f8c2 a000 	str.w	sl, [r2]
10007708:	e68e      	b.n	10007428 <_malloc_r+0x208>
1000770a:	f5b2 7faa 	cmp.w	r2, #340	@ 0x154
1000770e:	d819      	bhi.n	10007744 <_malloc_r+0x524>
10007710:	ea4f 32dc 	mov.w	r2, ip, lsr #15
10007714:	f102 0378 	add.w	r3, r2, #120	@ 0x78
10007718:	3277      	adds	r2, #119	@ 0x77
1000771a:	00db      	lsls	r3, r3, #3
1000771c:	e72a      	b.n	10007574 <_malloc_r+0x354>
1000771e:	f240 5254 	movw	r2, #1364	@ 0x554
10007722:	4293      	cmp	r3, r2
10007724:	d819      	bhi.n	1000775a <_malloc_r+0x53a>
10007726:	0cab      	lsrs	r3, r5, #18
10007728:	f103 007d 	add.w	r0, r3, #125	@ 0x7d
1000772c:	f103 0e7c 	add.w	lr, r3, #124	@ 0x7c
10007730:	00c3      	lsls	r3, r0, #3
10007732:	e5bb      	b.n	100072ac <_malloc_r+0x8c>
10007734:	9a00      	ldr	r2, [sp, #0]
10007736:	f04f 0b00 	mov.w	fp, #0
1000773a:	3a08      	subs	r2, #8
1000773c:	4490      	add	r8, r2
1000773e:	eba8 080a 	sub.w	r8, r8, sl
10007742:	e68d      	b.n	10007460 <_malloc_r+0x240>
10007744:	f240 5354 	movw	r3, #1364	@ 0x554
10007748:	429a      	cmp	r2, r3
1000774a:	d80c      	bhi.n	10007766 <_malloc_r+0x546>
1000774c:	ea4f 429c 	mov.w	r2, ip, lsr #18
10007750:	f102 037d 	add.w	r3, r2, #125	@ 0x7d
10007754:	327c      	adds	r2, #124	@ 0x7c
10007756:	00db      	lsls	r3, r3, #3
10007758:	e70c      	b.n	10007574 <_malloc_r+0x354>
1000775a:	f44f 737e 	mov.w	r3, #1016	@ 0x3f8
1000775e:	207f      	movs	r0, #127	@ 0x7f
10007760:	f04f 0e7e 	mov.w	lr, #126	@ 0x7e
10007764:	e5a2      	b.n	100072ac <_malloc_r+0x8c>
10007766:	f44f 737e 	mov.w	r3, #1016	@ 0x3f8
1000776a:	227e      	movs	r2, #126	@ 0x7e
1000776c:	e702      	b.n	10007574 <_malloc_r+0x354>
1000776e:	6873      	ldr	r3, [r6, #4]
10007770:	e781      	b.n	10007676 <_malloc_r+0x456>
10007772:	bf00      	nop

10007774 <__malloc_lock>:
10007774:	4801      	ldr	r0, [pc, #4]	@ (1000777c <__malloc_lock+0x8>)
10007776:	f000 b873 	b.w	10007860 <__retarget_lock_acquire_recursive>
1000777a:	bf00      	nop
1000777c:	20042068 	.word	0x20042068

10007780 <__malloc_unlock>:
10007780:	4801      	ldr	r0, [pc, #4]	@ (10007788 <__malloc_unlock+0x8>)
10007782:	f000 b86f 	b.w	10007864 <__retarget_lock_release_recursive>
10007786:	bf00      	nop
10007788:	20042068 	.word	0x20042068

1000778c <memset>:
1000778c:	b570      	push	{r4, r5, r6, lr}
1000778e:	0786      	lsls	r6, r0, #30
10007790:	d047      	beq.n	10007822 <memset+0x96>
10007792:	1e54      	subs	r4, r2, #1
10007794:	2a00      	cmp	r2, #0
10007796:	d03e      	beq.n	10007816 <memset+0x8a>
10007798:	b2ca      	uxtb	r2, r1
1000779a:	4603      	mov	r3, r0
1000779c:	e001      	b.n	100077a2 <memset+0x16>
1000779e:	3c01      	subs	r4, #1
100077a0:	d339      	bcc.n	10007816 <memset+0x8a>
100077a2:	f803 2b01 	strb.w	r2, [r3], #1
100077a6:	079d      	lsls	r5, r3, #30
100077a8:	d1f9      	bne.n	1000779e <memset+0x12>
100077aa:	2c03      	cmp	r4, #3
100077ac:	d92c      	bls.n	10007808 <memset+0x7c>
100077ae:	b2cd      	uxtb	r5, r1
100077b0:	2c0f      	cmp	r4, #15
100077b2:	eb05 2505 	add.w	r5, r5, r5, lsl #8
100077b6:	eb05 4505 	add.w	r5, r5, r5, lsl #16
100077ba:	d935      	bls.n	10007828 <memset+0x9c>
100077bc:	f1a4 0c10 	sub.w	ip, r4, #16
100077c0:	f103 0e10 	add.w	lr, r3, #16
100077c4:	461a      	mov	r2, r3
100077c6:	f02c 060f 	bic.w	r6, ip, #15
100077ca:	ea4f 1c1c 	mov.w	ip, ip, lsr #4
100077ce:	44b6      	add	lr, r6
100077d0:	e9c2 5500 	strd	r5, r5, [r2]
100077d4:	e9c2 5502 	strd	r5, r5, [r2, #8]
100077d8:	3210      	adds	r2, #16
100077da:	4572      	cmp	r2, lr
100077dc:	d1f8      	bne.n	100077d0 <memset+0x44>
100077de:	f10c 0201 	add.w	r2, ip, #1
100077e2:	f014 0f0c 	tst.w	r4, #12
100077e6:	f004 0c0f 	and.w	ip, r4, #15
100077ea:	eb03 1202 	add.w	r2, r3, r2, lsl #4
100077ee:	d013      	beq.n	10007818 <memset+0x8c>
100077f0:	f1ac 0304 	sub.w	r3, ip, #4
100077f4:	f023 0303 	bic.w	r3, r3, #3
100077f8:	3304      	adds	r3, #4
100077fa:	4413      	add	r3, r2
100077fc:	f842 5b04 	str.w	r5, [r2], #4
10007800:	4293      	cmp	r3, r2
10007802:	d1fb      	bne.n	100077fc <memset+0x70>
10007804:	f00c 0403 	and.w	r4, ip, #3
10007808:	b12c      	cbz	r4, 10007816 <memset+0x8a>
1000780a:	b2c9      	uxtb	r1, r1
1000780c:	441c      	add	r4, r3
1000780e:	f803 1b01 	strb.w	r1, [r3], #1
10007812:	42a3      	cmp	r3, r4
10007814:	d1fb      	bne.n	1000780e <memset+0x82>
10007816:	bd70      	pop	{r4, r5, r6, pc}
10007818:	4664      	mov	r4, ip
1000781a:	4613      	mov	r3, r2
1000781c:	2c00      	cmp	r4, #0
1000781e:	d1f4      	bne.n	1000780a <memset+0x7e>
10007820:	e7f9      	b.n	10007816 <memset+0x8a>
10007822:	4603      	mov	r3, r0
10007824:	4614      	mov	r4, r2
10007826:	e7c0      	b.n	100077aa <memset+0x1e>
10007828:	461a      	mov	r2, r3
1000782a:	46a4      	mov	ip, r4
1000782c:	e7e0      	b.n	100077f0 <memset+0x64>
1000782e:	bf00      	nop

10007830 <_sbrk_r>:
10007830:	b538      	push	{r3, r4, r5, lr}
10007832:	2200      	movs	r2, #0
10007834:	4d06      	ldr	r5, [pc, #24]	@ (10007850 <_sbrk_r+0x20>)
10007836:	4604      	mov	r4, r0
10007838:	4608      	mov	r0, r1
1000783a:	602a      	str	r2, [r5, #0]
1000783c:	f7fd f9be 	bl	10004bbc <_sbrk>
10007840:	1c43      	adds	r3, r0, #1
10007842:	d000      	beq.n	10007846 <_sbrk_r+0x16>
10007844:	bd38      	pop	{r3, r4, r5, pc}
10007846:	682b      	ldr	r3, [r5, #0]
10007848:	2b00      	cmp	r3, #0
1000784a:	d0fb      	beq.n	10007844 <_sbrk_r+0x14>
1000784c:	6023      	str	r3, [r4, #0]
1000784e:	bd38      	pop	{r3, r4, r5, pc}
10007850:	2004250c 	.word	0x2004250c

10007854 <__errno>:
10007854:	4b01      	ldr	r3, [pc, #4]	@ (1000785c <__errno+0x8>)
10007856:	6818      	ldr	r0, [r3, #0]
10007858:	4770      	bx	lr
1000785a:	bf00      	nop
1000785c:	20001a70 	.word	0x20001a70

10007860 <__retarget_lock_acquire_recursive>:
10007860:	4770      	bx	lr
10007862:	bf00      	nop

10007864 <__retarget_lock_release_recursive>:
10007864:	4770      	bx	lr
10007866:	bf00      	nop

10007868 <sysconf>:
10007868:	2808      	cmp	r0, #8
1000786a:	d102      	bne.n	10007872 <sysconf+0xa>
1000786c:	f44f 5080 	mov.w	r0, #4096	@ 0x1000
10007870:	4770      	bx	lr
10007872:	b508      	push	{r3, lr}
10007874:	f7ff ffee 	bl	10007854 <__errno>
10007878:	2216      	movs	r2, #22
1000787a:	4603      	mov	r3, r0
1000787c:	f04f 30ff 	mov.w	r0, #4294967295
10007880:	601a      	str	r2, [r3, #0]
10007882:	bd08      	pop	{r3, pc}

10007884 <memcpy>:
10007884:	4684      	mov	ip, r0
10007886:	ea41 0300 	orr.w	r3, r1, r0
1000788a:	f013 0303 	ands.w	r3, r3, #3
1000788e:	d149      	bne.n	10007924 <memcpy+0xa0>
10007890:	3a40      	subs	r2, #64	@ 0x40
10007892:	d323      	bcc.n	100078dc <memcpy+0x58>
10007894:	680b      	ldr	r3, [r1, #0]
10007896:	6003      	str	r3, [r0, #0]
10007898:	684b      	ldr	r3, [r1, #4]
1000789a:	6043      	str	r3, [r0, #4]
1000789c:	688b      	ldr	r3, [r1, #8]
1000789e:	6083      	str	r3, [r0, #8]
100078a0:	68cb      	ldr	r3, [r1, #12]
100078a2:	60c3      	str	r3, [r0, #12]
100078a4:	690b      	ldr	r3, [r1, #16]
100078a6:	6103      	str	r3, [r0, #16]
100078a8:	694b      	ldr	r3, [r1, #20]
100078aa:	6143      	str	r3, [r0, #20]
100078ac:	698b      	ldr	r3, [r1, #24]
100078ae:	6183      	str	r3, [r0, #24]
100078b0:	69cb      	ldr	r3, [r1, #28]
100078b2:	61c3      	str	r3, [r0, #28]
100078b4:	6a0b      	ldr	r3, [r1, #32]
100078b6:	6203      	str	r3, [r0, #32]
100078b8:	6a4b      	ldr	r3, [r1, #36]	@ 0x24
100078ba:	6243      	str	r3, [r0, #36]	@ 0x24
100078bc:	6a8b      	ldr	r3, [r1, #40]	@ 0x28
100078be:	6283      	str	r3, [r0, #40]	@ 0x28
100078c0:	6acb      	ldr	r3, [r1, #44]	@ 0x2c
100078c2:	62c3      	str	r3, [r0, #44]	@ 0x2c
100078c4:	6b0b      	ldr	r3, [r1, #48]	@ 0x30
100078c6:	6303      	str	r3, [r0, #48]	@ 0x30
100078c8:	6b4b      	ldr	r3, [r1, #52]	@ 0x34
100078ca:	6343      	str	r3, [r0, #52]	@ 0x34
100078cc:	6b8b      	ldr	r3, [r1, #56]	@ 0x38
100078ce:	6383      	str	r3, [r0, #56]	@ 0x38
100078d0:	6bcb      	ldr	r3, [r1, #60]	@ 0x3c
100078d2:	63c3      	str	r3, [r0, #60]	@ 0x3c
100078d4:	3040      	adds	r0, #64	@ 0x40
100078d6:	3140      	adds	r1, #64	@ 0x40
100078d8:	3a40      	subs	r2, #64	@ 0x40
100078da:	d2db      	bcs.n	10007894 <memcpy+0x10>
100078dc:	3230      	adds	r2, #48	@ 0x30
100078de:	d30b      	bcc.n	100078f8 <memcpy+0x74>
100078e0:	680b      	ldr	r3, [r1, #0]
100078e2:	6003      	str	r3, [r0, #0]
100078e4:	684b      	ldr	r3, [r1, #4]
100078e6:	6043      	str	r3, [r0, #4]
100078e8:	688b      	ldr	r3, [r1, #8]
100078ea:	6083      	str	r3, [r0, #8]
100078ec:	68cb      	ldr	r3, [r1, #12]
100078ee:	60c3      	str	r3, [r0, #12]
100078f0:	3010      	adds	r0, #16
100078f2:	3110      	adds	r1, #16
100078f4:	3a10      	subs	r2, #16
100078f6:	d2f3      	bcs.n	100078e0 <memcpy+0x5c>
100078f8:	320c      	adds	r2, #12
100078fa:	d305      	bcc.n	10007908 <memcpy+0x84>
100078fc:	f851 3b04 	ldr.w	r3, [r1], #4
10007900:	f840 3b04 	str.w	r3, [r0], #4
10007904:	3a04      	subs	r2, #4
10007906:	d2f9      	bcs.n	100078fc <memcpy+0x78>
10007908:	3204      	adds	r2, #4
1000790a:	d008      	beq.n	1000791e <memcpy+0x9a>
1000790c:	07d2      	lsls	r2, r2, #31
1000790e:	bf1c      	itt	ne
10007910:	f811 3b01 	ldrbne.w	r3, [r1], #1
10007914:	f800 3b01 	strbne.w	r3, [r0], #1
10007918:	d301      	bcc.n	1000791e <memcpy+0x9a>
1000791a:	880b      	ldrh	r3, [r1, #0]
1000791c:	8003      	strh	r3, [r0, #0]
1000791e:	4660      	mov	r0, ip
10007920:	4770      	bx	lr
10007922:	bf00      	nop
10007924:	2a08      	cmp	r2, #8
10007926:	d313      	bcc.n	10007950 <memcpy+0xcc>
10007928:	078b      	lsls	r3, r1, #30
1000792a:	d0b1      	beq.n	10007890 <memcpy+0xc>
1000792c:	f010 0303 	ands.w	r3, r0, #3
10007930:	d0ae      	beq.n	10007890 <memcpy+0xc>
10007932:	f1c3 0304 	rsb	r3, r3, #4
10007936:	1ad2      	subs	r2, r2, r3
10007938:	07db      	lsls	r3, r3, #31
1000793a:	bf1c      	itt	ne
1000793c:	f811 3b01 	ldrbne.w	r3, [r1], #1
10007940:	f800 3b01 	strbne.w	r3, [r0], #1
10007944:	d3a4      	bcc.n	10007890 <memcpy+0xc>
10007946:	f831 3b02 	ldrh.w	r3, [r1], #2
1000794a:	f820 3b02 	strh.w	r3, [r0], #2
1000794e:	e79f      	b.n	10007890 <memcpy+0xc>
10007950:	3a04      	subs	r2, #4
10007952:	d3d9      	bcc.n	10007908 <memcpy+0x84>
10007954:	3a01      	subs	r2, #1
10007956:	f811 3b01 	ldrb.w	r3, [r1], #1
1000795a:	f800 3b01 	strb.w	r3, [r0], #1
1000795e:	d2f9      	bcs.n	10007954 <memcpy+0xd0>
10007960:	780b      	ldrb	r3, [r1, #0]
10007962:	7003      	strb	r3, [r0, #0]
10007964:	784b      	ldrb	r3, [r1, #1]
10007966:	7043      	strb	r3, [r0, #1]
10007968:	788b      	ldrb	r3, [r1, #2]
1000796a:	7083      	strb	r3, [r0, #2]
1000796c:	4660      	mov	r0, ip
1000796e:	4770      	bx	lr

10007970 <strlen>:
10007970:	f020 0103 	bic.w	r1, r0, #3
10007974:	f010 0003 	ands.w	r0, r0, #3
10007978:	f1c0 0000 	rsb	r0, r0, #0
1000797c:	f851 3b04 	ldr.w	r3, [r1], #4
10007980:	f100 0c04 	add.w	ip, r0, #4
10007984:	ea4f 0ccc 	mov.w	ip, ip, lsl #3
10007988:	f06f 0200 	mvn.w	r2, #0
1000798c:	bf1c      	itt	ne
1000798e:	fa22 f20c 	lsrne.w	r2, r2, ip
10007992:	4313      	orrne	r3, r2
10007994:	f04f 0c01 	mov.w	ip, #1
10007998:	ea4c 2c0c 	orr.w	ip, ip, ip, lsl #8
1000799c:	ea4c 4c0c 	orr.w	ip, ip, ip, lsl #16
100079a0:	eba3 020c 	sub.w	r2, r3, ip
100079a4:	ea22 0203 	bic.w	r2, r2, r3
100079a8:	ea12 12cc 	ands.w	r2, r2, ip, lsl #7
100079ac:	bf04      	itt	eq
100079ae:	f851 3b04 	ldreq.w	r3, [r1], #4
100079b2:	3004      	addeq	r0, #4
100079b4:	d0f4      	beq.n	100079a0 <strlen+0x30>
100079b6:	f1c2 0100 	rsb	r1, r2, #0
100079ba:	ea02 0201 	and.w	r2, r2, r1
100079be:	fab2 f282 	clz	r2, r2
100079c2:	f1c2 021f 	rsb	r2, r2, #31
100079c6:	eb00 00d2 	add.w	r0, r0, r2, lsr #3
100079ca:	4770      	bx	lr

100079cc <_malloc_trim_r>:
100079cc:	e92d 43f8 	stmdb	sp!, {r3, r4, r5, r6, r7, r8, r9, lr}
100079d0:	4606      	mov	r6, r0
100079d2:	f8df 80ac 	ldr.w	r8, [pc, #172]	@ 10007a80 <_malloc_trim_r+0xb4>
100079d6:	2008      	movs	r0, #8
100079d8:	4689      	mov	r9, r1
100079da:	f7ff ff45 	bl	10007868 <sysconf>
100079de:	4605      	mov	r5, r0
100079e0:	4630      	mov	r0, r6
100079e2:	f7ff fec7 	bl	10007774 <__malloc_lock>
100079e6:	f8d8 3008 	ldr.w	r3, [r8, #8]
100079ea:	685f      	ldr	r7, [r3, #4]
100079ec:	f027 0703 	bic.w	r7, r7, #3
100079f0:	f1a7 0411 	sub.w	r4, r7, #17
100079f4:	eba4 0409 	sub.w	r4, r4, r9
100079f8:	442c      	add	r4, r5
100079fa:	fbb4 f4f5 	udiv	r4, r4, r5
100079fe:	3c01      	subs	r4, #1
10007a00:	fb05 f404 	mul.w	r4, r5, r4
10007a04:	42a5      	cmp	r5, r4
10007a06:	dc08      	bgt.n	10007a1a <_malloc_trim_r+0x4e>
10007a08:	2100      	movs	r1, #0
10007a0a:	4630      	mov	r0, r6
10007a0c:	f7ff ff10 	bl	10007830 <_sbrk_r>
10007a10:	f8d8 3008 	ldr.w	r3, [r8, #8]
10007a14:	443b      	add	r3, r7
10007a16:	4298      	cmp	r0, r3
10007a18:	d005      	beq.n	10007a26 <_malloc_trim_r+0x5a>
10007a1a:	4630      	mov	r0, r6
10007a1c:	f7ff feb0 	bl	10007780 <__malloc_unlock>
10007a20:	2000      	movs	r0, #0
10007a22:	e8bd 83f8 	ldmia.w	sp!, {r3, r4, r5, r6, r7, r8, r9, pc}
10007a26:	4261      	negs	r1, r4
10007a28:	4630      	mov	r0, r6
10007a2a:	f7ff ff01 	bl	10007830 <_sbrk_r>
10007a2e:	3001      	adds	r0, #1
10007a30:	d00f      	beq.n	10007a52 <_malloc_trim_r+0x86>
10007a32:	1b3f      	subs	r7, r7, r4
10007a34:	4a10      	ldr	r2, [pc, #64]	@ (10007a78 <_malloc_trim_r+0xac>)
10007a36:	f8d8 3008 	ldr.w	r3, [r8, #8]
10007a3a:	4630      	mov	r0, r6
10007a3c:	f047 0701 	orr.w	r7, r7, #1
10007a40:	605f      	str	r7, [r3, #4]
10007a42:	6813      	ldr	r3, [r2, #0]
10007a44:	1b1b      	subs	r3, r3, r4
10007a46:	6013      	str	r3, [r2, #0]
10007a48:	f7ff fe9a 	bl	10007780 <__malloc_unlock>
10007a4c:	2001      	movs	r0, #1
10007a4e:	e8bd 83f8 	ldmia.w	sp!, {r3, r4, r5, r6, r7, r8, r9, pc}
10007a52:	2100      	movs	r1, #0
10007a54:	4630      	mov	r0, r6
10007a56:	f7ff feeb 	bl	10007830 <_sbrk_r>
10007a5a:	f8d8 2008 	ldr.w	r2, [r8, #8]
10007a5e:	1a83      	subs	r3, r0, r2
10007a60:	2b0f      	cmp	r3, #15
10007a62:	ddda      	ble.n	10007a1a <_malloc_trim_r+0x4e>
10007a64:	f043 0301 	orr.w	r3, r3, #1
10007a68:	4903      	ldr	r1, [pc, #12]	@ (10007a78 <_malloc_trim_r+0xac>)
10007a6a:	6053      	str	r3, [r2, #4]
10007a6c:	4b03      	ldr	r3, [pc, #12]	@ (10007a7c <_malloc_trim_r+0xb0>)
10007a6e:	681b      	ldr	r3, [r3, #0]
10007a70:	1ac0      	subs	r0, r0, r3
10007a72:	6008      	str	r0, [r1, #0]
10007a74:	e7d1      	b.n	10007a1a <_malloc_trim_r+0x4e>
10007a76:	bf00      	nop
10007a78:	2004206c 	.word	0x2004206c
10007a7c:	2000165c 	.word	0x2000165c
10007a80:	20001668 	.word	0x20001668

10007a84 <_free_r>:
10007a84:	2900      	cmp	r1, #0
10007a86:	d07c      	beq.n	10007b82 <_free_r+0xfe>
10007a88:	e92d 41f0 	stmdb	sp!, {r4, r5, r6, r7, r8, lr}
10007a8c:	460c      	mov	r4, r1
10007a8e:	4680      	mov	r8, r0
10007a90:	f7ff fe70 	bl	10007774 <__malloc_lock>
10007a94:	4f76      	ldr	r7, [pc, #472]	@ (10007c70 <_free_r+0x1ec>)
10007a96:	f854 3c04 	ldr.w	r3, [r4, #-4]
10007a9a:	f1a4 0508 	sub.w	r5, r4, #8
10007a9e:	68be      	ldr	r6, [r7, #8]
10007aa0:	f023 0101 	bic.w	r1, r3, #1
10007aa4:	1868      	adds	r0, r5, r1
10007aa6:	6842      	ldr	r2, [r0, #4]
10007aa8:	4286      	cmp	r6, r0
10007aaa:	f022 0203 	bic.w	r2, r2, #3
10007aae:	f000 8083 	beq.w	10007bb8 <_free_r+0x134>
10007ab2:	07de      	lsls	r6, r3, #31
10007ab4:	eb00 0c02 	add.w	ip, r0, r2
10007ab8:	6042      	str	r2, [r0, #4]
10007aba:	d433      	bmi.n	10007b24 <_free_r+0xa0>
10007abc:	f854 4c08 	ldr.w	r4, [r4, #-8]
10007ac0:	f8dc 3004 	ldr.w	r3, [ip, #4]
10007ac4:	f107 0c08 	add.w	ip, r7, #8
10007ac8:	1b2d      	subs	r5, r5, r4
10007aca:	4421      	add	r1, r4
10007acc:	f003 0301 	and.w	r3, r3, #1
10007ad0:	68ac      	ldr	r4, [r5, #8]
10007ad2:	4564      	cmp	r4, ip
10007ad4:	d064      	beq.n	10007ba0 <_free_r+0x11c>
10007ad6:	f8d5 e00c 	ldr.w	lr, [r5, #12]
10007ada:	f8c4 e00c 	str.w	lr, [r4, #12]
10007ade:	f8ce 4008 	str.w	r4, [lr, #8]
10007ae2:	2b00      	cmp	r3, #0
10007ae4:	f000 8081 	beq.w	10007bea <_free_r+0x166>
10007ae8:	f041 0301 	orr.w	r3, r1, #1
10007aec:	606b      	str	r3, [r5, #4]
10007aee:	6001      	str	r1, [r0, #0]
10007af0:	f5b1 7f00 	cmp.w	r1, #512	@ 0x200
10007af4:	d222      	bcs.n	10007b3c <_free_r+0xb8>
10007af6:	08cb      	lsrs	r3, r1, #3
10007af8:	2201      	movs	r2, #1
10007afa:	0949      	lsrs	r1, r1, #5
10007afc:	3301      	adds	r3, #1
10007afe:	408a      	lsls	r2, r1
10007b00:	6879      	ldr	r1, [r7, #4]
10007b02:	430a      	orrs	r2, r1
10007b04:	f857 1033 	ldr.w	r1, [r7, r3, lsl #3]
10007b08:	607a      	str	r2, [r7, #4]
10007b0a:	eb07 02c3 	add.w	r2, r7, r3, lsl #3
10007b0e:	3a08      	subs	r2, #8
10007b10:	e9c5 1202 	strd	r1, r2, [r5, #8]
10007b14:	f847 5033 	str.w	r5, [r7, r3, lsl #3]
10007b18:	60cd      	str	r5, [r1, #12]
10007b1a:	4640      	mov	r0, r8
10007b1c:	e8bd 41f0 	ldmia.w	sp!, {r4, r5, r6, r7, r8, lr}
10007b20:	f7ff be2e 	b.w	10007780 <__malloc_unlock>
10007b24:	f8dc 3004 	ldr.w	r3, [ip, #4]
10007b28:	07db      	lsls	r3, r3, #31
10007b2a:	d52b      	bpl.n	10007b84 <_free_r+0x100>
10007b2c:	f041 0301 	orr.w	r3, r1, #1
10007b30:	f5b1 7f00 	cmp.w	r1, #512	@ 0x200
10007b34:	f844 3c04 	str.w	r3, [r4, #-4]
10007b38:	6001      	str	r1, [r0, #0]
10007b3a:	d3dc      	bcc.n	10007af6 <_free_r+0x72>
10007b3c:	f5b1 6f20 	cmp.w	r1, #2560	@ 0xa00
10007b40:	ea4f 2351 	mov.w	r3, r1, lsr #9
10007b44:	d253      	bcs.n	10007bee <_free_r+0x16a>
10007b46:	098b      	lsrs	r3, r1, #6
10007b48:	f103 0039 	add.w	r0, r3, #57	@ 0x39
10007b4c:	f103 0238 	add.w	r2, r3, #56	@ 0x38
10007b50:	00c3      	lsls	r3, r0, #3
10007b52:	18f8      	adds	r0, r7, r3
10007b54:	58fb      	ldr	r3, [r7, r3]
10007b56:	3808      	subs	r0, #8
10007b58:	4298      	cmp	r0, r3
10007b5a:	d103      	bne.n	10007b64 <_free_r+0xe0>
10007b5c:	e061      	b.n	10007c22 <_free_r+0x19e>
10007b5e:	689b      	ldr	r3, [r3, #8]
10007b60:	4298      	cmp	r0, r3
10007b62:	d004      	beq.n	10007b6e <_free_r+0xea>
10007b64:	685a      	ldr	r2, [r3, #4]
10007b66:	f022 0203 	bic.w	r2, r2, #3
10007b6a:	428a      	cmp	r2, r1
10007b6c:	d8f7      	bhi.n	10007b5e <_free_r+0xda>
10007b6e:	68d8      	ldr	r0, [r3, #12]
10007b70:	e9c5 3002 	strd	r3, r0, [r5, #8]
10007b74:	6085      	str	r5, [r0, #8]
10007b76:	4640      	mov	r0, r8
10007b78:	60dd      	str	r5, [r3, #12]
10007b7a:	e8bd 41f0 	ldmia.w	sp!, {r4, r5, r6, r7, r8, lr}
10007b7e:	f7ff bdff 	b.w	10007780 <__malloc_unlock>
10007b82:	4770      	bx	lr
10007b84:	4411      	add	r1, r2
10007b86:	f107 0c08 	add.w	ip, r7, #8
10007b8a:	6883      	ldr	r3, [r0, #8]
10007b8c:	4563      	cmp	r3, ip
10007b8e:	d03f      	beq.n	10007c10 <_free_r+0x18c>
10007b90:	68c2      	ldr	r2, [r0, #12]
10007b92:	60da      	str	r2, [r3, #12]
10007b94:	6093      	str	r3, [r2, #8]
10007b96:	f041 0301 	orr.w	r3, r1, #1
10007b9a:	606b      	str	r3, [r5, #4]
10007b9c:	5069      	str	r1, [r5, r1]
10007b9e:	e7a7      	b.n	10007af0 <_free_r+0x6c>
10007ba0:	2b00      	cmp	r3, #0
10007ba2:	d15f      	bne.n	10007c64 <_free_r+0x1e0>
10007ba4:	440a      	add	r2, r1
10007ba6:	e9d0 1302 	ldrd	r1, r3, [r0, #8]
10007baa:	60cb      	str	r3, [r1, #12]
10007bac:	6099      	str	r1, [r3, #8]
10007bae:	f042 0301 	orr.w	r3, r2, #1
10007bb2:	606b      	str	r3, [r5, #4]
10007bb4:	50aa      	str	r2, [r5, r2]
10007bb6:	e7b0      	b.n	10007b1a <_free_r+0x96>
10007bb8:	07db      	lsls	r3, r3, #31
10007bba:	440a      	add	r2, r1
10007bbc:	d407      	bmi.n	10007bce <_free_r+0x14a>
10007bbe:	f854 3c08 	ldr.w	r3, [r4, #-8]
10007bc2:	1aed      	subs	r5, r5, r3
10007bc4:	441a      	add	r2, r3
10007bc6:	e9d5 1302 	ldrd	r1, r3, [r5, #8]
10007bca:	60cb      	str	r3, [r1, #12]
10007bcc:	6099      	str	r1, [r3, #8]
10007bce:	f042 0301 	orr.w	r3, r2, #1
10007bd2:	606b      	str	r3, [r5, #4]
10007bd4:	4b27      	ldr	r3, [pc, #156]	@ (10007c74 <_free_r+0x1f0>)
10007bd6:	60bd      	str	r5, [r7, #8]
10007bd8:	681b      	ldr	r3, [r3, #0]
10007bda:	4293      	cmp	r3, r2
10007bdc:	d89d      	bhi.n	10007b1a <_free_r+0x96>
10007bde:	4b26      	ldr	r3, [pc, #152]	@ (10007c78 <_free_r+0x1f4>)
10007be0:	4640      	mov	r0, r8
10007be2:	6819      	ldr	r1, [r3, #0]
10007be4:	f7ff fef2 	bl	100079cc <_malloc_trim_r>
10007be8:	e797      	b.n	10007b1a <_free_r+0x96>
10007bea:	4411      	add	r1, r2
10007bec:	e7cd      	b.n	10007b8a <_free_r+0x106>
10007bee:	2b14      	cmp	r3, #20
10007bf0:	d908      	bls.n	10007c04 <_free_r+0x180>
10007bf2:	2b54      	cmp	r3, #84	@ 0x54
10007bf4:	d81d      	bhi.n	10007c32 <_free_r+0x1ae>
10007bf6:	0b0b      	lsrs	r3, r1, #12
10007bf8:	f103 006f 	add.w	r0, r3, #111	@ 0x6f
10007bfc:	f103 026e 	add.w	r2, r3, #110	@ 0x6e
10007c00:	00c3      	lsls	r3, r0, #3
10007c02:	e7a6      	b.n	10007b52 <_free_r+0xce>
10007c04:	f103 005c 	add.w	r0, r3, #92	@ 0x5c
10007c08:	f103 025b 	add.w	r2, r3, #91	@ 0x5b
10007c0c:	00c3      	lsls	r3, r0, #3
10007c0e:	e7a0      	b.n	10007b52 <_free_r+0xce>
10007c10:	f041 0301 	orr.w	r3, r1, #1
10007c14:	e9c7 5504 	strd	r5, r5, [r7, #16]
10007c18:	e9c5 cc02 	strd	ip, ip, [r5, #8]
10007c1c:	606b      	str	r3, [r5, #4]
10007c1e:	5069      	str	r1, [r5, r1]
10007c20:	e77b      	b.n	10007b1a <_free_r+0x96>
10007c22:	2101      	movs	r1, #1
10007c24:	1092      	asrs	r2, r2, #2
10007c26:	fa01 f202 	lsl.w	r2, r1, r2
10007c2a:	6879      	ldr	r1, [r7, #4]
10007c2c:	430a      	orrs	r2, r1
10007c2e:	607a      	str	r2, [r7, #4]
10007c30:	e79e      	b.n	10007b70 <_free_r+0xec>
10007c32:	f5b3 7faa 	cmp.w	r3, #340	@ 0x154
10007c36:	d806      	bhi.n	10007c46 <_free_r+0x1c2>
10007c38:	0bcb      	lsrs	r3, r1, #15
10007c3a:	f103 0078 	add.w	r0, r3, #120	@ 0x78
10007c3e:	f103 0277 	add.w	r2, r3, #119	@ 0x77
10007c42:	00c3      	lsls	r3, r0, #3
10007c44:	e785      	b.n	10007b52 <_free_r+0xce>
10007c46:	f240 5254 	movw	r2, #1364	@ 0x554
10007c4a:	4293      	cmp	r3, r2
10007c4c:	d806      	bhi.n	10007c5c <_free_r+0x1d8>
10007c4e:	0c8b      	lsrs	r3, r1, #18
10007c50:	f103 007d 	add.w	r0, r3, #125	@ 0x7d
10007c54:	f103 027c 	add.w	r2, r3, #124	@ 0x7c
10007c58:	00c3      	lsls	r3, r0, #3
10007c5a:	e77a      	b.n	10007b52 <_free_r+0xce>
10007c5c:	f44f 737e 	mov.w	r3, #1016	@ 0x3f8
10007c60:	227e      	movs	r2, #126	@ 0x7e
10007c62:	e776      	b.n	10007b52 <_free_r+0xce>
10007c64:	f041 0301 	orr.w	r3, r1, #1
10007c68:	606b      	str	r3, [r5, #4]
10007c6a:	6001      	str	r1, [r0, #0]
10007c6c:	e755      	b.n	10007b1a <_free_r+0x96>
10007c6e:	bf00      	nop
10007c70:	20001668 	.word	0x20001668
10007c74:	20001660 	.word	0x20001660
10007c78:	2004209c 	.word	0x2004209c

10007c7c <_fini>:
10007c7c:	b5f8      	push	{r3, r4, r5, r6, r7, lr}
10007c7e:	bf00      	nop

10007c80 <__mutex_enter_timeout_ms_veneer>:
10007c80:	f85f f000 	ldr.w	pc, [pc]	@ 10007c84 <__mutex_enter_timeout_ms_veneer+0x4>
10007c84:	200003d1 	.word	0x200003d1

10007c88 <__hw_endpoint_start_next_buffer_veneer>:
10007c88:	f85f f000 	ldr.w	pc, [pc]	@ 10007c8c <__hw_endpoint_start_next_buffer_veneer+0x4>
10007c8c:	20000d4d 	.word	0x20000d4d

10007c90 <__e15_is_bulkin_ep_veneer>:
10007c90:	f85f f000 	ldr.w	pc, [pc]	@ 10007c94 <__e15_is_bulkin_ep_veneer+0x4>
10007c94:	20000cad 	.word	0x20000cad

10007c98 <__save_to_flash_veneer>:
10007c98:	f85f f000 	ldr.w	pc, [pc]	@ 10007c9c <__save_to_flash_veneer+0x4>
10007c9c:	20000111 	.word	0x20000111

10007ca0 <____aeabi_uldivmod_veneer>:
10007ca0:	f85f f000 	ldr.w	pc, [pc]	@ 10007ca4 <____aeabi_uldivmod_veneer+0x4>
10007ca4:	20001231 	.word	0x20001231

10007ca8 <__mutex_exit_veneer>:
10007ca8:	f85f f000 	ldr.w	pc, [pc]	@ 10007cac <__mutex_exit_veneer+0x4>
10007cac:	20000409 	.word	0x20000409

10007cb0 <__mutex_enter_blocking_veneer>:
10007cb0:	f85f f000 	ldr.w	pc, [pc]	@ 10007cb4 <__mutex_enter_blocking_veneer+0x4>
10007cb4:	20000225 	.word	0x20000225

10007cb8 <___hw_endpoint_buffer_control_update32_veneer>:
10007cb8:	f85f f000 	ldr.w	pc, [pc]	@ 10007cbc <___hw_endpoint_buffer_control_update32_veneer+0x4>
10007cbc:	20000d09 	.word	0x20000d09

10007cc0 <__mutex_try_enter_block_until_veneer>:
10007cc0:	f85f f000 	ldr.w	pc, [pc]	@ 10007cc4 <__mutex_try_enter_block_until_veneer+0x4>
10007cc4:	20000365 	.word	0x20000365

10007cc8 <__mutex_enter_block_until_veneer>:
10007cc8:	f85f f000 	ldr.w	pc, [pc]	@ 10007ccc <__mutex_enter_block_until_veneer+0x4>
10007ccc:	200002f5 	.word	0x200002f5

10007cd0 <__e15_is_critical_frame_period_veneer>:
10007cd0:	f85f f000 	ldr.w	pc, [pc]	@ 10007cd4 <__e15_is_critical_frame_period_veneer+0x4>
10007cd4:	20000cd5 	.word	0x20000cd5

10007cd8 <__reset_non_control_endpoints_veneer>:
10007cd8:	f85f f000 	ldr.w	pc, [pc]	@ 10007cdc <__reset_non_control_endpoints_veneer+0x4>
10007cdc:	200004bd 	.word	0x200004bd

10007ce0 <__mutex_try_enter_veneer>:
10007ce0:	f85f f000 	ldr.w	pc, [pc]	@ 10007ce4 <__mutex_try_enter_veneer+0x4>
10007ce4:	200002a5 	.word	0x200002a5

10007ce8 <__pre_init_runtime_init_bootrom_reset>:
10007ce8:	100031c9                                .1..

10007cec <__pre_init_runtime_init_early_resets>:
10007cec:	1000313d                                =1..

10007cf0 <__pre_init_runtime_init_usb_power_down>:
10007cf0:	10003171                                q1..

10007cf4 <__pre_init_runtime_init_clocks>:
10007cf4:	10003215                                .2..

10007cf8 <__pre_init_runtime_init_post_clock_resets>:
10007cf8:	100031a9                                .1..

10007cfc <__pre_init_runtime_init_boot_locks_reset>:
10007cfc:	100030a5                                .0..

10007d00 <__pre_init_runtime_init_spin_locks_reset>:
10007d00:	100031f1                                .1..

10007d04 <__pre_init_runtime_init_bootrom_locking_enable>:
10007d04:	10003091                                .0..

10007d08 <__pre_init_runtime_init_mutex>:
10007d08:	100020f1                                . ..

10007d0c <__pre_init_runtime_init_install_ram_vector_table>:
10007d0c:	100031f5                                .1..

10007d10 <__pre_init_runtime_init_default_alarm_pool>:
10007d10:	10002491                                .$..

10007d14 <__pre_init_first_per_core_initializer>:
10007d14:	100030ed                                .0..

10007d18 <__pre_init_runtime_init_per_core_bootrom_reset>:
10007d18:	100031dd                                .1..

10007d1c <__pre_init_runtime_init_per_core_enable_coprocessors>:
10007d1c:	1000318d                                .1..

10007d20 <__pre_init_spinlock_set_extexclall>:
10007d20:	10001d2d                                -...

10007d24 <__pre_init_runtime_init_per_core_irq_priorities>:
10007d24:	10001d55                                U...

10007d28 <__frame_dummy_init_array_entry>:
10007d28:	10000219 1000705d                       ....]p..

Disassembly of section .data:

20000110 <save_to_flash>:
20000110:	b5f8      	push	{r3, r4, r5, r6, r7, lr}
20000112:	460e      	mov	r6, r1
20000114:	f400 4570 	and.w	r5, r0, #61440	@ 0xf000
20000118:	b1c2      	cbz	r2, 2000014c <save_to_flash+0x3c>
2000011a:	4b0e      	ldr	r3, [pc, #56]	@ (20000154 <save_to_flash+0x44>)
2000011c:	4c0e      	ldr	r4, [pc, #56]	@ (20000158 <save_to_flash+0x48>)
2000011e:	781b      	ldrb	r3, [r3, #0]
20000120:	2b00      	cmp	r3, #0
20000122:	bf08      	it	eq
20000124:	f44f 1480 	moveq.w	r4, #1048576	@ 0x100000
20000128:	442c      	add	r4, r5
2000012a:	f3ef 8710 	mrs	r7, PRIMASK
2000012e:	b672      	cpsid	i
20000130:	f44f 5180 	mov.w	r1, #4096	@ 0x1000
20000134:	4620      	mov	r0, r4
20000136:	f000 ffb3 	bl	200010a0 <flash_range_erase>
2000013a:	f44f 5280 	mov.w	r2, #4096	@ 0x1000
2000013e:	4620      	mov	r0, r4
20000140:	1971      	adds	r1, r6, r5
20000142:	f001 f805 	bl	20001150 <flash_range_program>
20000146:	f387 8810 	msr	PRIMASK, r7
2000014a:	bdf8      	pop	{r3, r4, r5, r6, r7, pc}
2000014c:	f44f 247f 	mov.w	r4, #1044480	@ 0xff000
20000150:	e7ea      	b.n	20000128 <save_to_flash+0x18>
20000152:	bf00      	nop
20000154:	200429d2 	.word	0x200429d2
20000158:	00109000 	.word	0x00109000

2000015c <set_reset>:
2000015c:	b5f8      	push	{r3, r4, r5, r6, r7, lr}
2000015e:	2019      	movs	r0, #25
20000160:	f001 fa2a 	bl	200015b8 <__gpio_init_veneer>
20000164:	f04f 0601 	mov.w	r6, #1
20000168:	2319      	movs	r3, #25
2000016a:	ec46 3044 	gpioc_bit_oe_put r3, r6
2000016e:	2403      	movs	r4, #3
20000170:	f04f 0700 	mov.w	r7, #0
20000174:	2519      	movs	r5, #25
20000176:	ec46 5040 	gpioc_bit_out_put r5, r6
2000017a:	2064      	movs	r0, #100	@ 0x64
2000017c:	f001 fa18 	bl	200015b0 <__sleep_ms_veneer>
20000180:	ec47 5040 	gpioc_bit_out_put r5, r7
20000184:	2064      	movs	r0, #100	@ 0x64
20000186:	f001 fa13 	bl	200015b0 <__sleep_ms_veneer>
2000018a:	3c01      	subs	r4, #1
2000018c:	d1f2      	bne.n	20000174 <set_reset+0x18>
2000018e:	4621      	mov	r1, r4
20000190:	4620      	mov	r0, r4
20000192:	f001 fa01 	bl	20001598 <__rom_reset_usb_boot_veneer>
20000196:	bf00      	nop

20000198 <set_clean>:
20000198:	b5f8      	push	{r3, r4, r5, r6, r7, lr}
2000019a:	4c1e      	ldr	r4, [pc, #120]	@ (20000214 <set_clean+0x7c>)
2000019c:	4d1e      	ldr	r5, [pc, #120]	@ (20000218 <set_clean+0x80>)
2000019e:	4628      	mov	r0, r5
200001a0:	6821      	ldr	r1, [r4, #0]
200001a2:	f000 f87f 	bl	200002a4 <mutex_try_enter>
200001a6:	2800      	cmp	r0, #0
200001a8:	d1f9      	bne.n	2000019e <set_clean+0x6>
200001aa:	4d1c      	ldr	r5, [pc, #112]	@ (2000021c <set_clean+0x84>)
200001ac:	4628      	mov	r0, r5
200001ae:	6821      	ldr	r1, [r4, #0]
200001b0:	f000 f878 	bl	200002a4 <mutex_try_enter>
200001b4:	2800      	cmp	r0, #0
200001b6:	d1f9      	bne.n	200001ac <set_clean+0x14>
200001b8:	2400      	movs	r4, #0
200001ba:	4620      	mov	r0, r4
200001bc:	3401      	adds	r4, #1
200001be:	f001 f9ef 	bl	200015a0 <__gpio_deinit_veneer>
200001c2:	2c2f      	cmp	r4, #47	@ 0x2f
200001c4:	d1f9      	bne.n	200001ba <set_clean+0x22>
200001c6:	2019      	movs	r0, #25
200001c8:	f001 f9f6 	bl	200015b8 <__gpio_init_veneer>
200001cc:	f04f 0601 	mov.w	r6, #1
200001d0:	2319      	movs	r3, #25
200001d2:	ec46 3044 	gpioc_bit_oe_put r3, r6
200001d6:	240a      	movs	r4, #10
200001d8:	f04f 0700 	mov.w	r7, #0
200001dc:	2519      	movs	r5, #25
200001de:	ec46 5040 	gpioc_bit_out_put r5, r6
200001e2:	2064      	movs	r0, #100	@ 0x64
200001e4:	f001 f9e4 	bl	200015b0 <__sleep_ms_veneer>
200001e8:	ec47 5040 	gpioc_bit_out_put r5, r7
200001ec:	2064      	movs	r0, #100	@ 0x64
200001ee:	f001 f9df 	bl	200015b0 <__sleep_ms_veneer>
200001f2:	3c01      	subs	r4, #1
200001f4:	d1f2      	bne.n	200001dc <set_clean+0x44>
200001f6:	f44f 0180 	mov.w	r1, #4194304	@ 0x400000
200001fa:	4620      	mov	r0, r4
200001fc:	f000 ff50 	bl	200010a0 <flash_range_erase>
20000200:	4620      	mov	r0, r4
20000202:	4907      	ldr	r1, [pc, #28]	@ (20000220 <set_clean+0x88>)
20000204:	f44f 7280 	mov.w	r2, #256	@ 0x100
20000208:	f000 ffa2 	bl	20001150 <flash_range_program>
2000020c:	4621      	mov	r1, r4
2000020e:	4620      	mov	r0, r4
20000210:	f001 f9c2 	bl	20001598 <__rom_reset_usb_boot_veneer>
20000214:	20042934 	.word	0x20042934
20000218:	20042958 	.word	0x20042958
2000021c:	20042998 	.word	0x20042998
20000220:	10008128 	.word	0x10008128

20000224 <mutex_enter_blocking>:
20000224:	f04f 4350 	mov.w	r3, #3489660928	@ 0xd0000000
20000228:	b510      	push	{r4, lr}
2000022a:	6802      	ldr	r2, [r0, #0]
2000022c:	f993 4000 	ldrsb.w	r4, [r3]
20000230:	f3ef 8310 	mrs	r3, PRIMASK
20000234:	b672      	cpsid	i
20000236:	e8d2 cfcf 	ldaexb	ip, [r2]
2000023a:	2101      	movs	r1, #1
2000023c:	f1bc 0f00 	cmp.w	ip, #0
20000240:	d1f9      	bne.n	20000236 <mutex_enter_blocking+0x12>
20000242:	e8c2 1f4c 	strexb	ip, r1, [r2]
20000246:	f1bc 0f00 	cmp.w	ip, #0
2000024a:	d1f4      	bne.n	20000236 <mutex_enter_blocking+0x12>
2000024c:	f3bf 8f5f 	dmb	sy
20000250:	f990 2004 	ldrsb.w	r2, [r0, #4]
20000254:	2a00      	cmp	r2, #0
20000256:	db1c      	blt.n	20000292 <mutex_enter_blocking+0x6e>
20000258:	2100      	movs	r1, #0
2000025a:	6802      	ldr	r2, [r0, #0]
2000025c:	e8c2 1f8f 	stlb	r1, [r2]
20000260:	f383 8810 	msr	PRIMASK, r3
20000264:	bf20      	wfe
20000266:	6802      	ldr	r2, [r0, #0]
20000268:	f3ef 8310 	mrs	r3, PRIMASK
2000026c:	b672      	cpsid	i
2000026e:	e8d2 efcf 	ldaexb	lr, [r2]
20000272:	f05f 0c01 	movs.w	ip, #1
20000276:	f1be 0f00 	cmp.w	lr, #0
2000027a:	d1f8      	bne.n	2000026e <mutex_enter_blocking+0x4a>
2000027c:	e8c2 cf4e 	strexb	lr, ip, [r2]
20000280:	f1be 0f00 	cmp.w	lr, #0
20000284:	d1f3      	bne.n	2000026e <mutex_enter_blocking+0x4a>
20000286:	f3bf 8f5f 	dmb	sy
2000028a:	f990 2004 	ldrsb.w	r2, [r0, #4]
2000028e:	2a00      	cmp	r2, #0
20000290:	dae3      	bge.n	2000025a <mutex_enter_blocking+0x36>
20000292:	2200      	movs	r2, #0
20000294:	6801      	ldr	r1, [r0, #0]
20000296:	7104      	strb	r4, [r0, #4]
20000298:	e8c1 2f8f 	stlb	r2, [r1]
2000029c:	f383 8810 	msr	PRIMASK, r3
200002a0:	bd10      	pop	{r4, pc}
200002a2:	bf00      	nop

200002a4 <mutex_try_enter>:
200002a4:	4603      	mov	r3, r0
200002a6:	b500      	push	{lr}
200002a8:	6802      	ldr	r2, [r0, #0]
200002aa:	f3ef 8c10 	mrs	ip, PRIMASK
200002ae:	b672      	cpsid	i
200002b0:	e8d2 efcf 	ldaexb	lr, [r2]
200002b4:	2001      	movs	r0, #1
200002b6:	f1be 0f00 	cmp.w	lr, #0
200002ba:	d1f9      	bne.n	200002b0 <mutex_try_enter+0xc>
200002bc:	e8c2 0f4e 	strexb	lr, r0, [r2]
200002c0:	f1be 0f00 	cmp.w	lr, #0
200002c4:	d1f4      	bne.n	200002b0 <mutex_try_enter+0xc>
200002c6:	f3bf 8f5f 	dmb	sy
200002ca:	f993 2004 	ldrsb.w	r2, [r3, #4]
200002ce:	2a00      	cmp	r2, #0
200002d0:	db0a      	blt.n	200002e8 <mutex_try_enter+0x44>
200002d2:	b101      	cbz	r1, 200002d6 <mutex_try_enter+0x32>
200002d4:	600a      	str	r2, [r1, #0]
200002d6:	2000      	movs	r0, #0
200002d8:	2200      	movs	r2, #0
200002da:	681b      	ldr	r3, [r3, #0]
200002dc:	e8c3 2f8f 	stlb	r2, [r3]
200002e0:	f38c 8810 	msr	PRIMASK, ip
200002e4:	f85d fb04 	ldr.w	pc, [sp], #4
200002e8:	f04f 4250 	mov.w	r2, #3489660928	@ 0xd0000000
200002ec:	6812      	ldr	r2, [r2, #0]
200002ee:	2001      	movs	r0, #1
200002f0:	711a      	strb	r2, [r3, #4]
200002f2:	e7f1      	b.n	200002d8 <mutex_try_enter+0x34>

200002f4 <mutex_enter_block_until>:
200002f4:	f04f 4150 	mov.w	r1, #3489660928	@ 0xd0000000
200002f8:	e92d 41f0 	stmdb	sp!, {r4, r5, r6, r7, r8, lr}
200002fc:	2700      	movs	r7, #0
200002fe:	4604      	mov	r4, r0
20000300:	4616      	mov	r6, r2
20000302:	461d      	mov	r5, r3
20000304:	f8d1 8000 	ldr.w	r8, [r1]
20000308:	e009      	b.n	2000031e <mutex_enter_block_until+0x2a>
2000030a:	6823      	ldr	r3, [r4, #0]
2000030c:	e8c3 7f8f 	stlb	r7, [r3]
20000310:	f38c 8810 	msr	PRIMASK, ip
20000314:	4630      	mov	r0, r6
20000316:	4629      	mov	r1, r5
20000318:	f001 f936 	bl	20001588 <__best_effort_wfe_or_timeout_veneer>
2000031c:	b9f0      	cbnz	r0, 2000035c <mutex_enter_block_until+0x68>
2000031e:	6821      	ldr	r1, [r4, #0]
20000320:	f3ef 8c10 	mrs	ip, PRIMASK
20000324:	b672      	cpsid	i
20000326:	e8d1 2fcf 	ldaexb	r2, [r1]
2000032a:	2301      	movs	r3, #1
2000032c:	2a00      	cmp	r2, #0
2000032e:	d1fa      	bne.n	20000326 <mutex_enter_block_until+0x32>
20000330:	e8c1 3f42 	strexb	r2, r3, [r1]
20000334:	2a00      	cmp	r2, #0
20000336:	d1f6      	bne.n	20000326 <mutex_enter_block_until+0x32>
20000338:	f3bf 8f5f 	dmb	sy
2000033c:	f994 e004 	ldrsb.w	lr, [r4, #4]
20000340:	f1be 0f00 	cmp.w	lr, #0
20000344:	dae1      	bge.n	2000030a <mutex_enter_block_until+0x16>
20000346:	2300      	movs	r3, #0
20000348:	6822      	ldr	r2, [r4, #0]
2000034a:	f884 8004 	strb.w	r8, [r4, #4]
2000034e:	e8c2 3f8f 	stlb	r3, [r2]
20000352:	f38c 8810 	msr	PRIMASK, ip
20000356:	2001      	movs	r0, #1
20000358:	e8bd 81f0 	ldmia.w	sp!, {r4, r5, r6, r7, r8, pc}
2000035c:	2000      	movs	r0, #0
2000035e:	e8bd 81f0 	ldmia.w	sp!, {r4, r5, r6, r7, r8, pc}
20000362:	bf00      	nop

20000364 <mutex_try_enter_block_until>:
20000364:	b530      	push	{r4, r5, lr}
20000366:	4601      	mov	r1, r0
20000368:	6804      	ldr	r4, [r0, #0]
2000036a:	f3ef 8c10 	mrs	ip, PRIMASK
2000036e:	b672      	cpsid	i
20000370:	e8d4 efcf 	ldaexb	lr, [r4]
20000374:	2501      	movs	r5, #1
20000376:	f1be 0f00 	cmp.w	lr, #0
2000037a:	d1f9      	bne.n	20000370 <mutex_try_enter_block_until+0xc>
2000037c:	e8c4 5f4e 	strexb	lr, r5, [r4]
20000380:	f1be 0f00 	cmp.w	lr, #0
20000384:	d1f4      	bne.n	20000370 <mutex_try_enter_block_until+0xc>
20000386:	f3bf 8f5f 	dmb	sy
2000038a:	f990 4004 	ldrsb.w	r4, [r0, #4]
2000038e:	2c00      	cmp	r4, #0
20000390:	db11      	blt.n	200003b6 <mutex_try_enter_block_until+0x52>
20000392:	2100      	movs	r1, #0
20000394:	6805      	ldr	r5, [r0, #0]
20000396:	e8c5 1f8f 	stlb	r1, [r5]
2000039a:	f38c 8810 	msr	PRIMASK, ip
2000039e:	f04f 4c50 	mov.w	ip, #3489660928	@ 0xd0000000
200003a2:	f99c c000 	ldrsb.w	ip, [ip]
200003a6:	45a4      	cmp	ip, r4
200003a8:	d101      	bne.n	200003ae <mutex_try_enter_block_until+0x4a>
200003aa:	4608      	mov	r0, r1
200003ac:	bd30      	pop	{r4, r5, pc}
200003ae:	e8bd 4030 	ldmia.w	sp!, {r4, r5, lr}
200003b2:	f7ff bf9f 	b.w	200002f4 <mutex_enter_block_until>
200003b6:	f04f 4050 	mov.w	r0, #3489660928	@ 0xd0000000
200003ba:	6800      	ldr	r0, [r0, #0]
200003bc:	2300      	movs	r3, #0
200003be:	680a      	ldr	r2, [r1, #0]
200003c0:	7108      	strb	r0, [r1, #4]
200003c2:	e8c2 3f8f 	stlb	r3, [r2]
200003c6:	f38c 8810 	msr	PRIMASK, ip
200003ca:	2001      	movs	r0, #1
200003cc:	bd30      	pop	{r4, r5, pc}
200003ce:	bf00      	nop

200003d0 <mutex_enter_timeout_ms>:
200003d0:	b570      	push	{r4, r5, r6, lr}
200003d2:	4605      	mov	r5, r0
200003d4:	460c      	mov	r4, r1
200003d6:	f001 f8c7 	bl	20001568 <__time_us_64_veneer>
200003da:	4602      	mov	r2, r0
200003dc:	460b      	mov	r3, r1
200003de:	f44f 707a 	mov.w	r0, #1000	@ 0x3e8
200003e2:	f04f 3eff 	mov.w	lr, #4294967295
200003e6:	f06f 4c00 	mvn.w	ip, #2147483648	@ 0x80000000
200003ea:	fbe4 2300 	umlal	r2, r3, r4, r0
200003ee:	4596      	cmp	lr, r2
200003f0:	eb7c 0103 	sbcs.w	r1, ip, r3
200003f4:	bf38      	it	cc
200003f6:	4672      	movcc	r2, lr
200003f8:	4628      	mov	r0, r5
200003fa:	e8bd 4070 	ldmia.w	sp!, {r4, r5, r6, lr}
200003fe:	bf38      	it	cc
20000400:	4663      	movcc	r3, ip
20000402:	f7ff bf77 	b.w	200002f4 <mutex_enter_block_until>
20000406:	bf00      	nop

20000408 <mutex_exit>:
20000408:	6803      	ldr	r3, [r0, #0]
2000040a:	f3ef 8210 	mrs	r2, PRIMASK
2000040e:	b672      	cpsid	i
20000410:	e8d3 cfcf 	ldaexb	ip, [r3]
20000414:	2101      	movs	r1, #1
20000416:	f1bc 0f00 	cmp.w	ip, #0
2000041a:	d1f9      	bne.n	20000410 <mutex_exit+0x8>
2000041c:	e8c3 1f4c 	strexb	ip, r1, [r3]
20000420:	f1bc 0f00 	cmp.w	ip, #0
20000424:	d1f4      	bne.n	20000410 <mutex_exit+0x8>
20000426:	f3bf 8f5f 	dmb	sy
2000042a:	f04f 0cff 	mov.w	ip, #255	@ 0xff
2000042e:	2300      	movs	r3, #0
20000430:	6801      	ldr	r1, [r0, #0]
20000432:	f880 c004 	strb.w	ip, [r0, #4]
20000436:	e8c1 3f8f 	stlb	r3, [r1]
2000043a:	f382 8810 	msr	PRIMASK, r2
2000043e:	bf40      	sev
20000440:	4770      	bx	lr
20000442:	bf00      	nop

20000444 <multicore_lockout_handler>:
20000444:	f04f 4150 	mov.w	r1, #3489660928	@ 0xd0000000
20000448:	23ff      	movs	r3, #255	@ 0xff
2000044a:	481a      	ldr	r0, [pc, #104]	@ (200004b4 <multicore_lockout_handler+0x70>)
2000044c:	650b      	str	r3, [r1, #80]	@ 0x50
2000044e:	e002      	b.n	20000456 <multicore_lockout_handler+0x12>
20000450:	6d8b      	ldr	r3, [r1, #88]	@ 0x58
20000452:	4283      	cmp	r3, r0
20000454:	d003      	beq.n	2000045e <multicore_lockout_handler+0x1a>
20000456:	6d0b      	ldr	r3, [r1, #80]	@ 0x50
20000458:	07db      	lsls	r3, r3, #31
2000045a:	d4f9      	bmi.n	20000450 <multicore_lockout_handler+0xc>
2000045c:	4770      	bx	lr
2000045e:	b410      	push	{r4}
20000460:	f3ef 8c10 	mrs	ip, PRIMASK
20000464:	b672      	cpsid	i
20000466:	f04f 4250 	mov.w	r2, #3489660928	@ 0xd0000000
2000046a:	6d13      	ldr	r3, [r2, #80]	@ 0x50
2000046c:	079c      	lsls	r4, r3, #30
2000046e:	d5fc      	bpl.n	2000046a <multicore_lockout_handler+0x26>
20000470:	4b10      	ldr	r3, [pc, #64]	@ (200004b4 <multicore_lockout_handler+0x70>)
20000472:	6553      	str	r3, [r2, #84]	@ 0x54
20000474:	bf40      	sev
20000476:	f04f 4250 	mov.w	r2, #3489660928	@ 0xd0000000
2000047a:	4c0f      	ldr	r4, [pc, #60]	@ (200004b8 <multicore_lockout_handler+0x74>)
2000047c:	e000      	b.n	20000480 <multicore_lockout_handler+0x3c>
2000047e:	bf20      	wfe
20000480:	6d13      	ldr	r3, [r2, #80]	@ 0x50
20000482:	07db      	lsls	r3, r3, #31
20000484:	d5fb      	bpl.n	2000047e <multicore_lockout_handler+0x3a>
20000486:	6d93      	ldr	r3, [r2, #88]	@ 0x58
20000488:	42a3      	cmp	r3, r4
2000048a:	d1f9      	bne.n	20000480 <multicore_lockout_handler+0x3c>
2000048c:	f38c 8810 	msr	PRIMASK, ip
20000490:	f04f 4250 	mov.w	r2, #3489660928	@ 0xd0000000
20000494:	6d13      	ldr	r3, [r2, #80]	@ 0x50
20000496:	079c      	lsls	r4, r3, #30
20000498:	d5fc      	bpl.n	20000494 <multicore_lockout_handler+0x50>
2000049a:	4b07      	ldr	r3, [pc, #28]	@ (200004b8 <multicore_lockout_handler+0x74>)
2000049c:	6553      	str	r3, [r2, #84]	@ 0x54
2000049e:	bf40      	sev
200004a0:	e002      	b.n	200004a8 <multicore_lockout_handler+0x64>
200004a2:	6d8b      	ldr	r3, [r1, #88]	@ 0x58
200004a4:	4283      	cmp	r3, r0
200004a6:	d0db      	beq.n	20000460 <multicore_lockout_handler+0x1c>
200004a8:	6d0b      	ldr	r3, [r1, #80]	@ 0x50
200004aa:	07da      	lsls	r2, r3, #31
200004ac:	d4f9      	bmi.n	200004a2 <multicore_lockout_handler+0x5e>
200004ae:	f85d 4b04 	ldr.w	r4, [sp], #4
200004b2:	4770      	bx	lr
200004b4:	73a8831e 	.word	0x73a8831e
200004b8:	8c577ce1 	.word	0x8c577ce1

200004bc <reset_non_control_endpoints>:
200004bc:	2100      	movs	r1, #0
200004be:	b508      	push	{r3, lr}
200004c0:	4b13      	ldr	r3, [pc, #76]	@ (20000510 <reset_non_control_endpoints+0x54>)
200004c2:	f44f 7270 	mov.w	r2, #960	@ 0x3c0
200004c6:	6099      	str	r1, [r3, #8]
200004c8:	4812      	ldr	r0, [pc, #72]	@ (20000514 <reset_non_control_endpoints+0x58>)
200004ca:	60d9      	str	r1, [r3, #12]
200004cc:	6119      	str	r1, [r3, #16]
200004ce:	6159      	str	r1, [r3, #20]
200004d0:	6199      	str	r1, [r3, #24]
200004d2:	61d9      	str	r1, [r3, #28]
200004d4:	6219      	str	r1, [r3, #32]
200004d6:	6259      	str	r1, [r3, #36]	@ 0x24
200004d8:	6299      	str	r1, [r3, #40]	@ 0x28
200004da:	62d9      	str	r1, [r3, #44]	@ 0x2c
200004dc:	6319      	str	r1, [r3, #48]	@ 0x30
200004de:	6359      	str	r1, [r3, #52]	@ 0x34
200004e0:	6399      	str	r1, [r3, #56]	@ 0x38
200004e2:	63d9      	str	r1, [r3, #60]	@ 0x3c
200004e4:	6419      	str	r1, [r3, #64]	@ 0x40
200004e6:	6459      	str	r1, [r3, #68]	@ 0x44
200004e8:	6499      	str	r1, [r3, #72]	@ 0x48
200004ea:	64d9      	str	r1, [r3, #76]	@ 0x4c
200004ec:	6519      	str	r1, [r3, #80]	@ 0x50
200004ee:	6559      	str	r1, [r3, #84]	@ 0x54
200004f0:	6599      	str	r1, [r3, #88]	@ 0x58
200004f2:	65d9      	str	r1, [r3, #92]	@ 0x5c
200004f4:	6619      	str	r1, [r3, #96]	@ 0x60
200004f6:	6659      	str	r1, [r3, #100]	@ 0x64
200004f8:	6699      	str	r1, [r3, #104]	@ 0x68
200004fa:	66d9      	str	r1, [r3, #108]	@ 0x6c
200004fc:	6719      	str	r1, [r3, #112]	@ 0x70
200004fe:	6759      	str	r1, [r3, #116]	@ 0x74
20000500:	6799      	str	r1, [r3, #120]	@ 0x78
20000502:	67d9      	str	r1, [r3, #124]	@ 0x7c
20000504:	f001 f83c 	bl	20001580 <__memset_veneer>
20000508:	4b03      	ldr	r3, [pc, #12]	@ (20000518 <reset_non_control_endpoints+0x5c>)
2000050a:	4a04      	ldr	r2, [pc, #16]	@ (2000051c <reset_non_control_endpoints+0x60>)
2000050c:	601a      	str	r2, [r3, #0]
2000050e:	bd08      	pop	{r3, pc}
20000510:	50100000 	.word	0x50100000
20000514:	2004255c 	.word	0x2004255c
20000518:	20042938 	.word	0x20042938
2000051c:	50100180 	.word	0x50100180

20000520 <hw_handle_buff_status>:
20000520:	e92d 4ff0 	stmdb	sp!, {r4, r5, r6, r7, r8, r9, sl, fp, lr}
20000524:	4b21      	ldr	r3, [pc, #132]	@ (200005ac <hw_handle_buff_status+0x8c>)
20000526:	b085      	sub	sp, #20
20000528:	6d9e      	ldr	r6, [r3, #88]	@ 0x58
2000052a:	b30e      	cbz	r6, 20000570 <hw_handle_buff_status+0x50>
2000052c:	2400      	movs	r4, #0
2000052e:	2501      	movs	r5, #1
20000530:	4f1f      	ldr	r7, [pc, #124]	@ (200005b0 <hw_handle_buff_status+0x90>)
20000532:	e001      	b.n	20000538 <hw_handle_buff_status+0x18>
20000534:	2c20      	cmp	r4, #32
20000536:	d01b      	beq.n	20000570 <hw_handle_buff_status+0x50>
20000538:	ea06 0305 	and.w	r3, r6, r5
2000053c:	1c62      	adds	r2, r4, #1
2000053e:	4621      	mov	r1, r4
20000540:	46aa      	mov	sl, r5
20000542:	b2d4      	uxtb	r4, r2
20000544:	006d      	lsls	r5, r5, #1
20000546:	2b00      	cmp	r3, #0
20000548:	d0f4      	beq.n	20000534 <hw_handle_buff_status+0x14>
2000054a:	2302      	movs	r3, #2
2000054c:	f004 0801 	and.w	r8, r4, #1
20000550:	ea4f 0951 	mov.w	r9, r1, lsr #1
20000554:	fb13 8b09 	smlabb	fp, r3, r9, r8
20000558:	4b16      	ldr	r3, [pc, #88]	@ (200005b4 <hw_handle_buff_status+0x94>)
2000055a:	eb07 1b4b 	add.w	fp, r7, fp, lsl #5
2000055e:	4658      	mov	r0, fp
20000560:	f8c3 a058 	str.w	sl, [r3, #88]	@ 0x58
20000564:	f000 fc24 	bl	20000db0 <hw_endpoint_xfer_continue>
20000568:	b928      	cbnz	r0, 20000576 <hw_handle_buff_status+0x56>
2000056a:	ea36 060a 	bics.w	r6, r6, sl
2000056e:	d1e1      	bne.n	20000534 <hw_handle_buff_status+0x14>
20000570:	b005      	add	sp, #20
20000572:	e8bd 8ff0 	ldmia.w	sp!, {r4, r5, r6, r7, r8, r9, sl, fp, pc}
20000576:	2200      	movs	r2, #0
20000578:	f8cd 2006 	str.w	r2, [sp, #6]
2000057c:	f8ad 200a 	strh.w	r2, [sp, #10]
20000580:	f44f 62e0 	mov.w	r2, #1792	@ 0x700
20000584:	eb08 0349 	add.w	r3, r8, r9, lsl #1
20000588:	eb07 1343 	add.w	r3, r7, r3, lsl #5
2000058c:	f8ad 2004 	strh.w	r2, [sp, #4]
20000590:	789a      	ldrb	r2, [r3, #2]
20000592:	8adb      	ldrh	r3, [r3, #22]
20000594:	a801      	add	r0, sp, #4
20000596:	2101      	movs	r1, #1
20000598:	f88d 2008 	strb.w	r2, [sp, #8]
2000059c:	9303      	str	r3, [sp, #12]
2000059e:	f000 fc25 	bl	20000dec <dcd_event_handler>
200005a2:	4658      	mov	r0, fp
200005a4:	f000 fbaa 	bl	20000cfc <hw_endpoint_reset_transfer>
200005a8:	e7df      	b.n	2000056a <hw_handle_buff_status+0x4a>
200005aa:	bf00      	nop
200005ac:	50110000 	.word	0x50110000
200005b0:	2004251c 	.word	0x2004251c
200005b4:	50113000 	.word	0x50113000

200005b8 <dcd_rp2040_irq>:
200005b8:	b5f0      	push	{r4, r5, r6, r7, lr}
200005ba:	4bb8      	ldr	r3, [pc, #736]	@ (2000089c <dcd_rp2040_irq+0x2e4>)
200005bc:	b085      	sub	sp, #20
200005be:	f8d3 5098 	ldr.w	r5, [r3, #152]	@ 0x98
200005c2:	f415 3600 	ands.w	r6, r5, #131072	@ 0x20000
200005c6:	d07b      	beq.n	200006c0 <dcd_rp2040_irq+0x108>
200005c8:	4bb5      	ldr	r3, [pc, #724]	@ (200008a0 <dcd_rp2040_irq+0x2e8>)
200005ca:	4cb6      	ldr	r4, [pc, #728]	@ (200008a4 <dcd_rp2040_irq+0x2ec>)
200005cc:	6a99      	ldr	r1, [r3, #40]	@ 0x28
200005ce:	f894 303b 	ldrb.w	r3, [r4, #59]	@ 0x3b
200005d2:	4ab5      	ldr	r2, [pc, #724]	@ (200008a8 <dcd_rp2040_irq+0x2f0>)
200005d4:	2b02      	cmp	r3, #2
200005d6:	6011      	str	r1, [r2, #0]
200005d8:	f000 8111 	beq.w	200007fe <dcd_rp2040_irq+0x246>
200005dc:	2600      	movs	r6, #0
200005de:	f894 307b 	ldrb.w	r3, [r4, #123]	@ 0x7b
200005e2:	2b02      	cmp	r3, #2
200005e4:	f000 81ec 	beq.w	200009c0 <dcd_rp2040_irq+0x408>
200005e8:	f894 30bb 	ldrb.w	r3, [r4, #187]	@ 0xbb
200005ec:	2b02      	cmp	r3, #2
200005ee:	f000 81dd 	beq.w	200009ac <dcd_rp2040_irq+0x3f4>
200005f2:	f894 30fb 	ldrb.w	r3, [r4, #251]	@ 0xfb
200005f6:	2b02      	cmp	r3, #2
200005f8:	f000 81ce 	beq.w	20000998 <dcd_rp2040_irq+0x3e0>
200005fc:	f894 313b 	ldrb.w	r3, [r4, #315]	@ 0x13b
20000600:	2b02      	cmp	r3, #2
20000602:	f000 81be 	beq.w	20000982 <dcd_rp2040_irq+0x3ca>
20000606:	f894 317b 	ldrb.w	r3, [r4, #379]	@ 0x17b
2000060a:	2b02      	cmp	r3, #2
2000060c:	f000 81ae 	beq.w	2000096c <dcd_rp2040_irq+0x3b4>
20000610:	f894 31bb 	ldrb.w	r3, [r4, #443]	@ 0x1bb
20000614:	2b02      	cmp	r3, #2
20000616:	f000 819e 	beq.w	20000956 <dcd_rp2040_irq+0x39e>
2000061a:	f894 31fb 	ldrb.w	r3, [r4, #507]	@ 0x1fb
2000061e:	2b02      	cmp	r3, #2
20000620:	f000 818e 	beq.w	20000940 <dcd_rp2040_irq+0x388>
20000624:	f894 323b 	ldrb.w	r3, [r4, #571]	@ 0x23b
20000628:	2b02      	cmp	r3, #2
2000062a:	f000 817d 	beq.w	20000928 <dcd_rp2040_irq+0x370>
2000062e:	f894 327b 	ldrb.w	r3, [r4, #635]	@ 0x27b
20000632:	2b02      	cmp	r3, #2
20000634:	f000 816c 	beq.w	20000910 <dcd_rp2040_irq+0x358>
20000638:	f894 32bb 	ldrb.w	r3, [r4, #699]	@ 0x2bb
2000063c:	2b02      	cmp	r3, #2
2000063e:	f000 815b 	beq.w	200008f8 <dcd_rp2040_irq+0x340>
20000642:	f894 32fb 	ldrb.w	r3, [r4, #763]	@ 0x2fb
20000646:	2b02      	cmp	r3, #2
20000648:	f000 814a 	beq.w	200008e0 <dcd_rp2040_irq+0x328>
2000064c:	f894 333b 	ldrb.w	r3, [r4, #827]	@ 0x33b
20000650:	2b02      	cmp	r3, #2
20000652:	f000 8139 	beq.w	200008c8 <dcd_rp2040_irq+0x310>
20000656:	f894 337b 	ldrb.w	r3, [r4, #891]	@ 0x37b
2000065a:	2b02      	cmp	r3, #2
2000065c:	f000 80e1 	beq.w	20000822 <dcd_rp2040_irq+0x26a>
20000660:	f894 33bb 	ldrb.w	r3, [r4, #955]	@ 0x3bb
20000664:	2b02      	cmp	r3, #2
20000666:	f000 8104 	beq.w	20000872 <dcd_rp2040_irq+0x2ba>
2000066a:	f894 33fb 	ldrb.w	r3, [r4, #1019]	@ 0x3fb
2000066e:	2b02      	cmp	r3, #2
20000670:	f000 80ee 	beq.w	20000850 <dcd_rp2040_irq+0x298>
20000674:	b93e      	cbnz	r6, 20000686 <dcd_rp2040_irq+0xce>
20000676:	4b8d      	ldr	r3, [pc, #564]	@ (200008ac <dcd_rp2040_irq+0x2f4>)
20000678:	781b      	ldrb	r3, [r3, #0]
2000067a:	b923      	cbnz	r3, 20000686 <dcd_rp2040_irq+0xce>
2000067c:	f44f 3200 	mov.w	r2, #131072	@ 0x20000
20000680:	4b8b      	ldr	r3, [pc, #556]	@ (200008b0 <dcd_rp2040_irq+0x2f8>)
20000682:	f8c3 2090 	str.w	r2, [r3, #144]	@ 0x90
20000686:	2200      	movs	r2, #0
20000688:	f44f 7440 	mov.w	r4, #768	@ 0x300
2000068c:	4b83      	ldr	r3, [pc, #524]	@ (2000089c <dcd_rp2040_irq+0x2e4>)
2000068e:	2101      	movs	r1, #1
20000690:	6c9b      	ldr	r3, [r3, #72]	@ 0x48
20000692:	a801      	add	r0, sp, #4
20000694:	f3c3 030a 	ubfx	r3, r3, #0, #11
20000698:	f8cd 2006 	str.w	r2, [sp, #6]
2000069c:	f8cd 200a 	str.w	r2, [sp, #10]
200006a0:	f8ad 200e 	strh.w	r2, [sp, #14]
200006a4:	f8ad 4004 	strh.w	r4, [sp, #4]
200006a8:	9302      	str	r3, [sp, #8]
200006aa:	f000 fb9f 	bl	20000dec <dcd_event_handler>
200006ae:	06ea      	lsls	r2, r5, #27
200006b0:	f44f 3600 	mov.w	r6, #131072	@ 0x20000
200006b4:	4c7f      	ldr	r4, [pc, #508]	@ (200008b4 <dcd_rp2040_irq+0x2fc>)
200006b6:	d507      	bpl.n	200006c8 <dcd_rp2040_irq+0x110>
200006b8:	f7ff ff32 	bl	20000520 <hw_handle_buff_status>
200006bc:	4626      	mov	r6, r4
200006be:	e003      	b.n	200006c8 <dcd_rp2040_irq+0x110>
200006c0:	06ea      	lsls	r2, r5, #27
200006c2:	f04f 0410 	mov.w	r4, #16
200006c6:	d4f7      	bmi.n	200006b8 <dcd_rp2040_irq+0x100>
200006c8:	03eb      	lsls	r3, r5, #15
200006ca:	d531      	bpl.n	20000730 <dcd_rp2040_irq+0x178>
200006cc:	4c75      	ldr	r4, [pc, #468]	@ (200008a4 <dcd_rp2040_irq+0x2ec>)
200006ce:	f446 3680 	orr.w	r6, r6, #65536	@ 0x10000
200006d2:	7ea3      	ldrb	r3, [r4, #26]
200006d4:	b19b      	cbz	r3, 200006fe <dcd_rp2040_irq+0x146>
200006d6:	2102      	movs	r1, #2
200006d8:	4b77      	ldr	r3, [pc, #476]	@ (200008b8 <dcd_rp2040_irq+0x300>)
200006da:	4a70      	ldr	r2, [pc, #448]	@ (2000089c <dcd_rp2040_irq+0x2e4>)
200006dc:	6619      	str	r1, [r3, #96]	@ 0x60
200006de:	6e53      	ldr	r3, [r2, #100]	@ 0x64
200006e0:	079f      	lsls	r7, r3, #30
200006e2:	d5fc      	bpl.n	200006de <dcd_rp2040_irq+0x126>
200006e4:	f44f 5240 	mov.w	r2, #12288	@ 0x3000
200006e8:	2100      	movs	r1, #0
200006ea:	486e      	ldr	r0, [pc, #440]	@ (200008a4 <dcd_rp2040_irq+0x2ec>)
200006ec:	f000 fb0c 	bl	20000d08 <_hw_endpoint_buffer_control_update32>
200006f0:	486c      	ldr	r0, [pc, #432]	@ (200008a4 <dcd_rp2040_irq+0x2ec>)
200006f2:	f000 fb03 	bl	20000cfc <hw_endpoint_reset_transfer>
200006f6:	2202      	movs	r2, #2
200006f8:	4b6d      	ldr	r3, [pc, #436]	@ (200008b0 <dcd_rp2040_irq+0x2f8>)
200006fa:	665a      	str	r2, [r3, #100]	@ 0x64
200006fc:	661a      	str	r2, [r3, #96]	@ 0x60
200006fe:	2301      	movs	r3, #1
20000700:	f894 203a 	ldrb.w	r2, [r4, #58]	@ 0x3a
20000704:	70e3      	strb	r3, [r4, #3]
20000706:	b9f2      	cbnz	r2, 20000746 <dcd_rp2040_irq+0x18e>
20000708:	2301      	movs	r3, #1
2000070a:	f44f 61c0 	mov.w	r1, #1536	@ 0x600
2000070e:	4a6b      	ldr	r2, [pc, #428]	@ (200008bc <dcd_rp2040_irq+0x304>)
20000710:	f884 3023 	strb.w	r3, [r4, #35]	@ 0x23
20000714:	9101      	str	r1, [sp, #4]
20000716:	e892 0003 	ldmia.w	r2, {r0, r1}
2000071a:	aa04      	add	r2, sp, #16
2000071c:	e902 0003 	stmdb	r2, {r0, r1}
20000720:	4619      	mov	r1, r3
20000722:	a801      	add	r0, sp, #4
20000724:	f000 fb62 	bl	20000dec <dcd_event_handler>
20000728:	f44f 3200 	mov.w	r2, #131072	@ 0x20000
2000072c:	4b60      	ldr	r3, [pc, #384]	@ (200008b0 <dcd_rp2040_irq+0x2f8>)
2000072e:	651a      	str	r2, [r3, #80]	@ 0x50
20000730:	04e9      	lsls	r1, r5, #19
20000732:	d41d      	bmi.n	20000770 <dcd_rp2040_irq+0x1b8>
20000734:	046a      	lsls	r2, r5, #17
20000736:	d436      	bmi.n	200007a6 <dcd_rp2040_irq+0x1ee>
20000738:	042b      	lsls	r3, r5, #16
2000073a:	d44a      	bmi.n	200007d2 <dcd_rp2040_irq+0x21a>
2000073c:	42ae      	cmp	r6, r5
2000073e:	f040 81b7 	bne.w	20000ab0 <dcd_rp2040_irq+0x4f8>
20000742:	b005      	add	sp, #20
20000744:	bdf0      	pop	{r4, r5, r6, r7, pc}
20000746:	4a5c      	ldr	r2, [pc, #368]	@ (200008b8 <dcd_rp2040_irq+0x300>)
20000748:	6613      	str	r3, [r2, #96]	@ 0x60
2000074a:	f5a2 5200 	sub.w	r2, r2, #8192	@ 0x2000
2000074e:	6e53      	ldr	r3, [r2, #100]	@ 0x64
20000750:	07d8      	lsls	r0, r3, #31
20000752:	d5fc      	bpl.n	2000074e <dcd_rp2040_irq+0x196>
20000754:	f44f 5240 	mov.w	r2, #12288	@ 0x3000
20000758:	2100      	movs	r1, #0
2000075a:	4859      	ldr	r0, [pc, #356]	@ (200008c0 <dcd_rp2040_irq+0x308>)
2000075c:	f000 fad4 	bl	20000d08 <_hw_endpoint_buffer_control_update32>
20000760:	4857      	ldr	r0, [pc, #348]	@ (200008c0 <dcd_rp2040_irq+0x308>)
20000762:	f000 facb 	bl	20000cfc <hw_endpoint_reset_transfer>
20000766:	2201      	movs	r2, #1
20000768:	4b51      	ldr	r3, [pc, #324]	@ (200008b0 <dcd_rp2040_irq+0x2f8>)
2000076a:	665a      	str	r2, [r3, #100]	@ 0x64
2000076c:	661a      	str	r2, [r3, #96]	@ 0x60
2000076e:	e7cb      	b.n	20000708 <dcd_rp2040_irq+0x150>
20000770:	2400      	movs	r4, #0
20000772:	4b4a      	ldr	r3, [pc, #296]	@ (2000089c <dcd_rp2040_irq+0x2e4>)
20000774:	f446 5680 	orr.w	r6, r6, #4096	@ 0x1000
20000778:	601c      	str	r4, [r3, #0]
2000077a:	f7ff fe9f 	bl	200004bc <reset_non_control_endpoints>
2000077e:	f44f 7380 	mov.w	r3, #256	@ 0x100
20000782:	2101      	movs	r1, #1
20000784:	a801      	add	r0, sp, #4
20000786:	f8ad 3004 	strh.w	r3, [sp, #4]
2000078a:	f8ad 400e 	strh.w	r4, [sp, #14]
2000078e:	f8cd 4006 	str.w	r4, [sp, #6]
20000792:	f8cd 400a 	str.w	r4, [sp, #10]
20000796:	f000 fb29 	bl	20000dec <dcd_event_handler>
2000079a:	f44f 2200 	mov.w	r2, #524288	@ 0x80000
2000079e:	4b44      	ldr	r3, [pc, #272]	@ (200008b0 <dcd_rp2040_irq+0x2f8>)
200007a0:	651a      	str	r2, [r3, #80]	@ 0x50
200007a2:	046a      	lsls	r2, r5, #17
200007a4:	d5c8      	bpl.n	20000738 <dcd_rp2040_irq+0x180>
200007a6:	2300      	movs	r3, #0
200007a8:	f44f 6280 	mov.w	r2, #1024	@ 0x400
200007ac:	2101      	movs	r1, #1
200007ae:	a801      	add	r0, sp, #4
200007b0:	f8ad 300e 	strh.w	r3, [sp, #14]
200007b4:	f8cd 3006 	str.w	r3, [sp, #6]
200007b8:	f8cd 300a 	str.w	r3, [sp, #10]
200007bc:	f8ad 2004 	strh.w	r2, [sp, #4]
200007c0:	f000 fb14 	bl	20000dec <dcd_event_handler>
200007c4:	2210      	movs	r2, #16
200007c6:	4b3a      	ldr	r3, [pc, #232]	@ (200008b0 <dcd_rp2040_irq+0x2f8>)
200007c8:	f446 4680 	orr.w	r6, r6, #16384	@ 0x4000
200007cc:	651a      	str	r2, [r3, #80]	@ 0x50
200007ce:	042b      	lsls	r3, r5, #16
200007d0:	d5b4      	bpl.n	2000073c <dcd_rp2040_irq+0x184>
200007d2:	2300      	movs	r3, #0
200007d4:	f44f 62a0 	mov.w	r2, #1280	@ 0x500
200007d8:	2101      	movs	r1, #1
200007da:	a801      	add	r0, sp, #4
200007dc:	f8ad 300e 	strh.w	r3, [sp, #14]
200007e0:	f8cd 3006 	str.w	r3, [sp, #6]
200007e4:	f8cd 300a 	str.w	r3, [sp, #10]
200007e8:	f8ad 2004 	strh.w	r2, [sp, #4]
200007ec:	f000 fafe 	bl	20000dec <dcd_event_handler>
200007f0:	f44f 6200 	mov.w	r2, #2048	@ 0x800
200007f4:	4b2e      	ldr	r3, [pc, #184]	@ (200008b0 <dcd_rp2040_irq+0x2f8>)
200007f6:	f446 4600 	orr.w	r6, r6, #32768	@ 0x8000
200007fa:	651a      	str	r2, [r3, #80]	@ 0x50
200007fc:	e79e      	b.n	2000073c <dcd_rp2040_irq+0x184>
200007fe:	f894 603a 	ldrb.w	r6, [r4, #58]	@ 0x3a
20000802:	2e00      	cmp	r6, #0
20000804:	f43f aeeb 	beq.w	200005de <dcd_rp2040_irq+0x26>
20000808:	f894 303c 	ldrb.w	r3, [r4, #60]	@ 0x3c
2000080c:	2b00      	cmp	r3, #0
2000080e:	f43f aee6 	beq.w	200005de <dcd_rp2040_irq+0x26>
20000812:	2300      	movs	r3, #0
20000814:	f104 0020 	add.w	r0, r4, #32
20000818:	f884 303c 	strb.w	r3, [r4, #60]	@ 0x3c
2000081c:	f000 fa96 	bl	20000d4c <hw_endpoint_start_next_buffer>
20000820:	e6dd      	b.n	200005de <dcd_rp2040_irq+0x26>
20000822:	f894 737a 	ldrb.w	r7, [r4, #890]	@ 0x37a
20000826:	2f00      	cmp	r7, #0
20000828:	f43f af1a 	beq.w	20000660 <dcd_rp2040_irq+0xa8>
2000082c:	f894 337c 	ldrb.w	r3, [r4, #892]	@ 0x37c
20000830:	2b00      	cmp	r3, #0
20000832:	f040 8136 	bne.w	20000aa2 <dcd_rp2040_irq+0x4ea>
20000836:	f894 33bb 	ldrb.w	r3, [r4, #955]	@ 0x3bb
2000083a:	2b02      	cmp	r3, #2
2000083c:	d123      	bne.n	20000886 <dcd_rp2040_irq+0x2ce>
2000083e:	f894 33ba 	ldrb.w	r3, [r4, #954]	@ 0x3ba
20000842:	b9db      	cbnz	r3, 2000087c <dcd_rp2040_irq+0x2c4>
20000844:	f894 33fb 	ldrb.w	r3, [r4, #1019]	@ 0x3fb
20000848:	2b02      	cmp	r3, #2
2000084a:	f47f af1c 	bne.w	20000686 <dcd_rp2040_irq+0xce>
2000084e:	463e      	mov	r6, r7
20000850:	f894 33fa 	ldrb.w	r3, [r4, #1018]	@ 0x3fa
20000854:	2b00      	cmp	r3, #0
20000856:	f43f af0d 	beq.w	20000674 <dcd_rp2040_irq+0xbc>
2000085a:	f894 33fc 	ldrb.w	r3, [r4, #1020]	@ 0x3fc
2000085e:	2b00      	cmp	r3, #0
20000860:	f43f af11 	beq.w	20000686 <dcd_rp2040_irq+0xce>
20000864:	2300      	movs	r3, #0
20000866:	4817      	ldr	r0, [pc, #92]	@ (200008c4 <dcd_rp2040_irq+0x30c>)
20000868:	f884 33fc 	strb.w	r3, [r4, #1020]	@ 0x3fc
2000086c:	f000 fa6e 	bl	20000d4c <hw_endpoint_start_next_buffer>
20000870:	e709      	b.n	20000686 <dcd_rp2040_irq+0xce>
20000872:	f894 33ba 	ldrb.w	r3, [r4, #954]	@ 0x3ba
20000876:	2b00      	cmp	r3, #0
20000878:	f43f aef7 	beq.w	2000066a <dcd_rp2040_irq+0xb2>
2000087c:	f894 33bc 	ldrb.w	r3, [r4, #956]	@ 0x3bc
20000880:	2b00      	cmp	r3, #0
20000882:	f040 80a7 	bne.w	200009d4 <dcd_rp2040_irq+0x41c>
20000886:	f894 33fb 	ldrb.w	r3, [r4, #1019]	@ 0x3fb
2000088a:	2b02      	cmp	r3, #2
2000088c:	f47f aefb 	bne.w	20000686 <dcd_rp2040_irq+0xce>
20000890:	f894 33fa 	ldrb.w	r3, [r4, #1018]	@ 0x3fa
20000894:	2b00      	cmp	r3, #0
20000896:	d1e0      	bne.n	2000085a <dcd_rp2040_irq+0x2a2>
20000898:	e6f5      	b.n	20000686 <dcd_rp2040_irq+0xce>
2000089a:	bf00      	nop
2000089c:	50110000 	.word	0x50110000
200008a0:	400b0000 	.word	0x400b0000
200008a4:	2004251c 	.word	0x2004251c
200008a8:	20042508 	.word	0x20042508
200008ac:	200429c7 	.word	0x200429c7
200008b0:	50113000 	.word	0x50113000
200008b4:	00020010 	.word	0x00020010
200008b8:	50112000 	.word	0x50112000
200008bc:	50100000 	.word	0x50100000
200008c0:	2004253c 	.word	0x2004253c
200008c4:	200428fc 	.word	0x200428fc
200008c8:	f894 733a 	ldrb.w	r7, [r4, #826]	@ 0x33a
200008cc:	2f00      	cmp	r7, #0
200008ce:	f43f aec2 	beq.w	20000656 <dcd_rp2040_irq+0x9e>
200008d2:	f894 333c 	ldrb.w	r3, [r4, #828]	@ 0x33c
200008d6:	2b00      	cmp	r3, #0
200008d8:	f040 80db 	bne.w	20000a92 <dcd_rp2040_irq+0x4da>
200008dc:	463e      	mov	r6, r7
200008de:	e6ba      	b.n	20000656 <dcd_rp2040_irq+0x9e>
200008e0:	f894 72fa 	ldrb.w	r7, [r4, #762]	@ 0x2fa
200008e4:	2f00      	cmp	r7, #0
200008e6:	f43f aeb1 	beq.w	2000064c <dcd_rp2040_irq+0x94>
200008ea:	f894 32fc 	ldrb.w	r3, [r4, #764]	@ 0x2fc
200008ee:	2b00      	cmp	r3, #0
200008f0:	f040 80c7 	bne.w	20000a82 <dcd_rp2040_irq+0x4ca>
200008f4:	463e      	mov	r6, r7
200008f6:	e6a9      	b.n	2000064c <dcd_rp2040_irq+0x94>
200008f8:	f894 72ba 	ldrb.w	r7, [r4, #698]	@ 0x2ba
200008fc:	2f00      	cmp	r7, #0
200008fe:	f43f aea0 	beq.w	20000642 <dcd_rp2040_irq+0x8a>
20000902:	f894 32bc 	ldrb.w	r3, [r4, #700]	@ 0x2bc
20000906:	2b00      	cmp	r3, #0
20000908:	f040 80b3 	bne.w	20000a72 <dcd_rp2040_irq+0x4ba>
2000090c:	463e      	mov	r6, r7
2000090e:	e698      	b.n	20000642 <dcd_rp2040_irq+0x8a>
20000910:	f894 727a 	ldrb.w	r7, [r4, #634]	@ 0x27a
20000914:	2f00      	cmp	r7, #0
20000916:	f43f ae8f 	beq.w	20000638 <dcd_rp2040_irq+0x80>
2000091a:	f894 327c 	ldrb.w	r3, [r4, #636]	@ 0x27c
2000091e:	2b00      	cmp	r3, #0
20000920:	f040 809f 	bne.w	20000a62 <dcd_rp2040_irq+0x4aa>
20000924:	463e      	mov	r6, r7
20000926:	e687      	b.n	20000638 <dcd_rp2040_irq+0x80>
20000928:	f894 723a 	ldrb.w	r7, [r4, #570]	@ 0x23a
2000092c:	2f00      	cmp	r7, #0
2000092e:	f43f ae7e 	beq.w	2000062e <dcd_rp2040_irq+0x76>
20000932:	f894 323c 	ldrb.w	r3, [r4, #572]	@ 0x23c
20000936:	2b00      	cmp	r3, #0
20000938:	f040 808b 	bne.w	20000a52 <dcd_rp2040_irq+0x49a>
2000093c:	463e      	mov	r6, r7
2000093e:	e676      	b.n	2000062e <dcd_rp2040_irq+0x76>
20000940:	f894 71fa 	ldrb.w	r7, [r4, #506]	@ 0x1fa
20000944:	2f00      	cmp	r7, #0
20000946:	f43f ae6d 	beq.w	20000624 <dcd_rp2040_irq+0x6c>
2000094a:	f894 31fc 	ldrb.w	r3, [r4, #508]	@ 0x1fc
2000094e:	2b00      	cmp	r3, #0
20000950:	d177      	bne.n	20000a42 <dcd_rp2040_irq+0x48a>
20000952:	463e      	mov	r6, r7
20000954:	e666      	b.n	20000624 <dcd_rp2040_irq+0x6c>
20000956:	f894 71ba 	ldrb.w	r7, [r4, #442]	@ 0x1ba
2000095a:	2f00      	cmp	r7, #0
2000095c:	f43f ae5d 	beq.w	2000061a <dcd_rp2040_irq+0x62>
20000960:	f894 31bc 	ldrb.w	r3, [r4, #444]	@ 0x1bc
20000964:	2b00      	cmp	r3, #0
20000966:	d164      	bne.n	20000a32 <dcd_rp2040_irq+0x47a>
20000968:	463e      	mov	r6, r7
2000096a:	e656      	b.n	2000061a <dcd_rp2040_irq+0x62>
2000096c:	f894 717a 	ldrb.w	r7, [r4, #378]	@ 0x17a
20000970:	2f00      	cmp	r7, #0
20000972:	f43f ae4d 	beq.w	20000610 <dcd_rp2040_irq+0x58>
20000976:	f894 317c 	ldrb.w	r3, [r4, #380]	@ 0x17c
2000097a:	2b00      	cmp	r3, #0
2000097c:	d151      	bne.n	20000a22 <dcd_rp2040_irq+0x46a>
2000097e:	463e      	mov	r6, r7
20000980:	e646      	b.n	20000610 <dcd_rp2040_irq+0x58>
20000982:	f894 713a 	ldrb.w	r7, [r4, #314]	@ 0x13a
20000986:	2f00      	cmp	r7, #0
20000988:	f43f ae3d 	beq.w	20000606 <dcd_rp2040_irq+0x4e>
2000098c:	f894 313c 	ldrb.w	r3, [r4, #316]	@ 0x13c
20000990:	2b00      	cmp	r3, #0
20000992:	d13e      	bne.n	20000a12 <dcd_rp2040_irq+0x45a>
20000994:	463e      	mov	r6, r7
20000996:	e636      	b.n	20000606 <dcd_rp2040_irq+0x4e>
20000998:	f894 70fa 	ldrb.w	r7, [r4, #250]	@ 0xfa
2000099c:	2f00      	cmp	r7, #0
2000099e:	f43f ae2d 	beq.w	200005fc <dcd_rp2040_irq+0x44>
200009a2:	f894 30fc 	ldrb.w	r3, [r4, #252]	@ 0xfc
200009a6:	bb63      	cbnz	r3, 20000a02 <dcd_rp2040_irq+0x44a>
200009a8:	463e      	mov	r6, r7
200009aa:	e627      	b.n	200005fc <dcd_rp2040_irq+0x44>
200009ac:	f894 70ba 	ldrb.w	r7, [r4, #186]	@ 0xba
200009b0:	2f00      	cmp	r7, #0
200009b2:	f43f ae1e 	beq.w	200005f2 <dcd_rp2040_irq+0x3a>
200009b6:	f894 30bc 	ldrb.w	r3, [r4, #188]	@ 0xbc
200009ba:	b9d3      	cbnz	r3, 200009f2 <dcd_rp2040_irq+0x43a>
200009bc:	463e      	mov	r6, r7
200009be:	e618      	b.n	200005f2 <dcd_rp2040_irq+0x3a>
200009c0:	f894 707a 	ldrb.w	r7, [r4, #122]	@ 0x7a
200009c4:	2f00      	cmp	r7, #0
200009c6:	f43f ae0f 	beq.w	200005e8 <dcd_rp2040_irq+0x30>
200009ca:	f894 307c 	ldrb.w	r3, [r4, #124]	@ 0x7c
200009ce:	b943      	cbnz	r3, 200009e2 <dcd_rp2040_irq+0x42a>
200009d0:	463e      	mov	r6, r7
200009d2:	e609      	b.n	200005e8 <dcd_rp2040_irq+0x30>
200009d4:	2300      	movs	r3, #0
200009d6:	4839      	ldr	r0, [pc, #228]	@ (20000abc <dcd_rp2040_irq+0x504>)
200009d8:	f884 33bc 	strb.w	r3, [r4, #956]	@ 0x3bc
200009dc:	f000 f9b6 	bl	20000d4c <hw_endpoint_start_next_buffer>
200009e0:	e751      	b.n	20000886 <dcd_rp2040_irq+0x2ce>
200009e2:	2300      	movs	r3, #0
200009e4:	4836      	ldr	r0, [pc, #216]	@ (20000ac0 <dcd_rp2040_irq+0x508>)
200009e6:	f884 307c 	strb.w	r3, [r4, #124]	@ 0x7c
200009ea:	463e      	mov	r6, r7
200009ec:	f000 f9ae 	bl	20000d4c <hw_endpoint_start_next_buffer>
200009f0:	e5fa      	b.n	200005e8 <dcd_rp2040_irq+0x30>
200009f2:	2300      	movs	r3, #0
200009f4:	4833      	ldr	r0, [pc, #204]	@ (20000ac4 <dcd_rp2040_irq+0x50c>)
200009f6:	f884 30bc 	strb.w	r3, [r4, #188]	@ 0xbc
200009fa:	463e      	mov	r6, r7
200009fc:	f000 f9a6 	bl	20000d4c <hw_endpoint_start_next_buffer>
20000a00:	e5f7      	b.n	200005f2 <dcd_rp2040_irq+0x3a>
20000a02:	2300      	movs	r3, #0
20000a04:	4830      	ldr	r0, [pc, #192]	@ (20000ac8 <dcd_rp2040_irq+0x510>)
20000a06:	f884 30fc 	strb.w	r3, [r4, #252]	@ 0xfc
20000a0a:	463e      	mov	r6, r7
20000a0c:	f000 f99e 	bl	20000d4c <hw_endpoint_start_next_buffer>
20000a10:	e5f4      	b.n	200005fc <dcd_rp2040_irq+0x44>
20000a12:	2300      	movs	r3, #0
20000a14:	482d      	ldr	r0, [pc, #180]	@ (20000acc <dcd_rp2040_irq+0x514>)
20000a16:	f884 313c 	strb.w	r3, [r4, #316]	@ 0x13c
20000a1a:	463e      	mov	r6, r7
20000a1c:	f000 f996 	bl	20000d4c <hw_endpoint_start_next_buffer>
20000a20:	e5f1      	b.n	20000606 <dcd_rp2040_irq+0x4e>
20000a22:	2300      	movs	r3, #0
20000a24:	482a      	ldr	r0, [pc, #168]	@ (20000ad0 <dcd_rp2040_irq+0x518>)
20000a26:	f884 317c 	strb.w	r3, [r4, #380]	@ 0x17c
20000a2a:	463e      	mov	r6, r7
20000a2c:	f000 f98e 	bl	20000d4c <hw_endpoint_start_next_buffer>
20000a30:	e5ee      	b.n	20000610 <dcd_rp2040_irq+0x58>
20000a32:	2300      	movs	r3, #0
20000a34:	4827      	ldr	r0, [pc, #156]	@ (20000ad4 <dcd_rp2040_irq+0x51c>)
20000a36:	f884 31bc 	strb.w	r3, [r4, #444]	@ 0x1bc
20000a3a:	463e      	mov	r6, r7
20000a3c:	f000 f986 	bl	20000d4c <hw_endpoint_start_next_buffer>
20000a40:	e5eb      	b.n	2000061a <dcd_rp2040_irq+0x62>
20000a42:	2300      	movs	r3, #0
20000a44:	4824      	ldr	r0, [pc, #144]	@ (20000ad8 <dcd_rp2040_irq+0x520>)
20000a46:	f884 31fc 	strb.w	r3, [r4, #508]	@ 0x1fc
20000a4a:	463e      	mov	r6, r7
20000a4c:	f000 f97e 	bl	20000d4c <hw_endpoint_start_next_buffer>
20000a50:	e5e8      	b.n	20000624 <dcd_rp2040_irq+0x6c>
20000a52:	2300      	movs	r3, #0
20000a54:	4821      	ldr	r0, [pc, #132]	@ (20000adc <dcd_rp2040_irq+0x524>)
20000a56:	f884 323c 	strb.w	r3, [r4, #572]	@ 0x23c
20000a5a:	463e      	mov	r6, r7
20000a5c:	f000 f976 	bl	20000d4c <hw_endpoint_start_next_buffer>
20000a60:	e5e5      	b.n	2000062e <dcd_rp2040_irq+0x76>
20000a62:	2300      	movs	r3, #0
20000a64:	481e      	ldr	r0, [pc, #120]	@ (20000ae0 <dcd_rp2040_irq+0x528>)
20000a66:	f884 327c 	strb.w	r3, [r4, #636]	@ 0x27c
20000a6a:	463e      	mov	r6, r7
20000a6c:	f000 f96e 	bl	20000d4c <hw_endpoint_start_next_buffer>
20000a70:	e5e2      	b.n	20000638 <dcd_rp2040_irq+0x80>
20000a72:	2300      	movs	r3, #0
20000a74:	481b      	ldr	r0, [pc, #108]	@ (20000ae4 <dcd_rp2040_irq+0x52c>)
20000a76:	f884 32bc 	strb.w	r3, [r4, #700]	@ 0x2bc
20000a7a:	463e      	mov	r6, r7
20000a7c:	f000 f966 	bl	20000d4c <hw_endpoint_start_next_buffer>
20000a80:	e5df      	b.n	20000642 <dcd_rp2040_irq+0x8a>
20000a82:	2300      	movs	r3, #0
20000a84:	4818      	ldr	r0, [pc, #96]	@ (20000ae8 <dcd_rp2040_irq+0x530>)
20000a86:	f884 32fc 	strb.w	r3, [r4, #764]	@ 0x2fc
20000a8a:	463e      	mov	r6, r7
20000a8c:	f000 f95e 	bl	20000d4c <hw_endpoint_start_next_buffer>
20000a90:	e5dc      	b.n	2000064c <dcd_rp2040_irq+0x94>
20000a92:	2300      	movs	r3, #0
20000a94:	4815      	ldr	r0, [pc, #84]	@ (20000aec <dcd_rp2040_irq+0x534>)
20000a96:	f884 333c 	strb.w	r3, [r4, #828]	@ 0x33c
20000a9a:	463e      	mov	r6, r7
20000a9c:	f000 f956 	bl	20000d4c <hw_endpoint_start_next_buffer>
20000aa0:	e5d9      	b.n	20000656 <dcd_rp2040_irq+0x9e>
20000aa2:	2300      	movs	r3, #0
20000aa4:	4812      	ldr	r0, [pc, #72]	@ (20000af0 <dcd_rp2040_irq+0x538>)
20000aa6:	f884 337c 	strb.w	r3, [r4, #892]	@ 0x37c
20000aaa:	f000 f94f 	bl	20000d4c <hw_endpoint_start_next_buffer>
20000aae:	e6c2      	b.n	20000836 <dcd_rp2040_irq+0x27e>
20000ab0:	4810      	ldr	r0, [pc, #64]	@ (20000af4 <dcd_rp2040_irq+0x53c>)
20000ab2:	ea86 0105 	eor.w	r1, r6, r5
20000ab6:	f000 fd83 	bl	200015c0 <__panic_veneer>
20000aba:	bf00      	nop
20000abc:	200428bc 	.word	0x200428bc
20000ac0:	2004257c 	.word	0x2004257c
20000ac4:	200425bc 	.word	0x200425bc
20000ac8:	200425fc 	.word	0x200425fc
20000acc:	2004263c 	.word	0x2004263c
20000ad0:	2004267c 	.word	0x2004267c
20000ad4:	200426bc 	.word	0x200426bc
20000ad8:	200426fc 	.word	0x200426fc
20000adc:	2004273c 	.word	0x2004273c
20000ae0:	2004277c 	.word	0x2004277c
20000ae4:	200427bc 	.word	0x200427bc
20000ae8:	200427fc 	.word	0x200427fc
20000aec:	2004283c 	.word	0x2004283c
20000af0:	2004287c 	.word	0x2004287c
20000af4:	10007f20 	.word	0x10007f20

20000af8 <prepare_ep_buffer>:
20000af8:	e92d 43f0 	stmdb	sp!, {r4, r5, r6, r7, r8, r9, lr}
20000afc:	8a82      	ldrh	r2, [r0, #20]
20000afe:	8b04      	ldrh	r4, [r0, #24]
20000b00:	4603      	mov	r3, r0
20000b02:	4294      	cmp	r4, r2
20000b04:	78c0      	ldrb	r0, [r0, #3]
20000b06:	bf28      	it	cs
20000b08:	4614      	movcs	r4, r2
20000b0a:	1e05      	subs	r5, r0, #0
20000b0c:	bf18      	it	ne
20000b0e:	2501      	movne	r5, #1
20000b10:	f080 0001 	eor.w	r0, r0, #1
20000b14:	1b12      	subs	r2, r2, r4
20000b16:	785e      	ldrb	r6, [r3, #1]
20000b18:	70d8      	strb	r0, [r3, #3]
20000b1a:	b292      	uxth	r2, r2
20000b1c:	f444 6080 	orr.w	r0, r4, #1024	@ 0x400
20000b20:	829a      	strh	r2, [r3, #20]
20000b22:	ea40 3045 	orr.w	r0, r0, r5, lsl #13
20000b26:	bb06      	cbnz	r6, 20000b6a <prepare_ep_buffer+0x72>
20000b28:	68dd      	ldr	r5, [r3, #12]
20000b2a:	f104 38ff 	add.w	r8, r4, #4294967295
20000b2e:	eb05 1c81 	add.w	ip, r5, r1, lsl #6
20000b32:	691d      	ldr	r5, [r3, #16]
20000b34:	b1ac      	cbz	r4, 20000b62 <prepare_ep_buffer+0x6a>
20000b36:	f1b8 0f05 	cmp.w	r8, #5
20000b3a:	f105 0201 	add.w	r2, r5, #1
20000b3e:	d903      	bls.n	20000b48 <prepare_ep_buffer+0x50>
20000b40:	ebac 0702 	sub.w	r7, ip, r2
20000b44:	2f02      	cmp	r7, #2
20000b46:	d817      	bhi.n	20000b78 <prepare_ep_buffer+0x80>
20000b48:	f10c 3cff 	add.w	ip, ip, #4294967295
20000b4c:	4425      	add	r5, r4
20000b4e:	e000      	b.n	20000b52 <prepare_ep_buffer+0x5a>
20000b50:	3201      	adds	r2, #1
20000b52:	f812 6c01 	ldrb.w	r6, [r2, #-1]
20000b56:	42aa      	cmp	r2, r5
20000b58:	f80c 6f01 	strb.w	r6, [ip, #1]!
20000b5c:	d1f8      	bne.n	20000b50 <prepare_ep_buffer+0x58>
20000b5e:	691d      	ldr	r5, [r3, #16]
20000b60:	8a9a      	ldrh	r2, [r3, #20]
20000b62:	4425      	add	r5, r4
20000b64:	611d      	str	r5, [r3, #16]
20000b66:	f440 4000 	orr.w	r0, r0, #32768	@ 0x8000
20000b6a:	b90a      	cbnz	r2, 20000b70 <prepare_ep_buffer+0x78>
20000b6c:	f440 4080 	orr.w	r0, r0, #16384	@ 0x4000
20000b70:	b101      	cbz	r1, 20000b74 <prepare_ep_buffer+0x7c>
20000b72:	0400      	lsls	r0, r0, #16
20000b74:	e8bd 83f0 	ldmia.w	sp!, {r4, r5, r6, r7, r8, r9, pc}
20000b78:	462f      	mov	r7, r5
20000b7a:	46e6      	mov	lr, ip
20000b7c:	4632      	mov	r2, r6
20000b7e:	1f26      	subs	r6, r4, #4
20000b80:	08b6      	lsrs	r6, r6, #2
20000b82:	3601      	adds	r6, #1
20000b84:	f857 9b04 	ldr.w	r9, [r7], #4
20000b88:	3201      	adds	r2, #1
20000b8a:	4296      	cmp	r6, r2
20000b8c:	f84e 9b04 	str.w	r9, [lr], #4
20000b90:	d8f8      	bhi.n	20000b84 <prepare_ep_buffer+0x8c>
20000b92:	ebb4 0f86 	cmp.w	r4, r6, lsl #2
20000b96:	eba8 0286 	sub.w	r2, r8, r6, lsl #2
20000b9a:	eb05 0e86 	add.w	lr, r5, r6, lsl #2
20000b9e:	eb0c 0786 	add.w	r7, ip, r6, lsl #2
20000ba2:	d0dc      	beq.n	20000b5e <prepare_ep_buffer+0x66>
20000ba4:	f815 5026 	ldrb.w	r5, [r5, r6, lsl #2]
20000ba8:	f80c 5026 	strb.w	r5, [ip, r6, lsl #2]
20000bac:	2a00      	cmp	r2, #0
20000bae:	d0d6      	beq.n	20000b5e <prepare_ep_buffer+0x66>
20000bb0:	f89e 5001 	ldrb.w	r5, [lr, #1]
20000bb4:	2a01      	cmp	r2, #1
20000bb6:	707d      	strb	r5, [r7, #1]
20000bb8:	d0d1      	beq.n	20000b5e <prepare_ep_buffer+0x66>
20000bba:	f89e 2002 	ldrb.w	r2, [lr, #2]
20000bbe:	70ba      	strb	r2, [r7, #2]
20000bc0:	691d      	ldr	r5, [r3, #16]
20000bc2:	8a9a      	ldrh	r2, [r3, #20]
20000bc4:	e7cd      	b.n	20000b62 <prepare_ep_buffer+0x6a>
20000bc6:	bf00      	nop

20000bc8 <sync_ep_buffer>:
20000bc8:	6883      	ldr	r3, [r0, #8]
20000bca:	4602      	mov	r2, r0
20000bcc:	6818      	ldr	r0, [r3, #0]
20000bce:	b101      	cbz	r1, 20000bd2 <sync_ep_buffer+0xa>
20000bd0:	0c00      	lsrs	r0, r0, #16
20000bd2:	7853      	ldrb	r3, [r2, #1]
20000bd4:	f3c0 0009 	ubfx	r0, r0, #0, #10
20000bd8:	b313      	cbz	r3, 20000c20 <sync_ep_buffer+0x58>
20000bda:	b5f0      	push	{r4, r5, r6, r7, lr}
20000bdc:	e9d2 5403 	ldrd	r5, r4, [r2, #12]
20000be0:	018f      	lsls	r7, r1, #6
20000be2:	eb05 1381 	add.w	r3, r5, r1, lsl #6
20000be6:	1e46      	subs	r6, r0, #1
20000be8:	b178      	cbz	r0, 20000c0a <sync_ep_buffer+0x42>
20000bea:	2e05      	cmp	r6, #5
20000bec:	d904      	bls.n	20000bf8 <sync_ep_buffer+0x30>
20000bee:	3701      	adds	r7, #1
20000bf0:	443d      	add	r5, r7
20000bf2:	1b65      	subs	r5, r4, r5
20000bf4:	2d02      	cmp	r5, #2
20000bf6:	d81c      	bhi.n	20000c32 <sync_ep_buffer+0x6a>
20000bf8:	1e61      	subs	r1, r4, #1
20000bfa:	181d      	adds	r5, r3, r0
20000bfc:	f813 4b01 	ldrb.w	r4, [r3], #1
20000c00:	429d      	cmp	r5, r3
20000c02:	f801 4f01 	strb.w	r4, [r1, #1]!
20000c06:	d1f9      	bne.n	20000bfc <sync_ep_buffer+0x34>
20000c08:	6914      	ldr	r4, [r2, #16]
20000c0a:	8ad3      	ldrh	r3, [r2, #22]
20000c0c:	4404      	add	r4, r0
20000c0e:	4403      	add	r3, r0
20000c10:	82d3      	strh	r3, [r2, #22]
20000c12:	8b13      	ldrh	r3, [r2, #24]
20000c14:	6114      	str	r4, [r2, #16]
20000c16:	4283      	cmp	r3, r0
20000c18:	bf84      	itt	hi
20000c1a:	2300      	movhi	r3, #0
20000c1c:	8293      	strhhi	r3, [r2, #20]
20000c1e:	bdf0      	pop	{r4, r5, r6, r7, pc}
20000c20:	8ad3      	ldrh	r3, [r2, #22]
20000c22:	4403      	add	r3, r0
20000c24:	82d3      	strh	r3, [r2, #22]
20000c26:	8b13      	ldrh	r3, [r2, #24]
20000c28:	4283      	cmp	r3, r0
20000c2a:	bf84      	itt	hi
20000c2c:	2300      	movhi	r3, #0
20000c2e:	8293      	strhhi	r3, [r2, #20]
20000c30:	4770      	bx	lr
20000c32:	469e      	mov	lr, r3
20000c34:	4625      	mov	r5, r4
20000c36:	2100      	movs	r1, #0
20000c38:	f1a0 0c04 	sub.w	ip, r0, #4
20000c3c:	ea4f 0c9c 	mov.w	ip, ip, lsr #2
20000c40:	f10c 0c01 	add.w	ip, ip, #1
20000c44:	f85e 7b04 	ldr.w	r7, [lr], #4
20000c48:	3101      	adds	r1, #1
20000c4a:	4561      	cmp	r1, ip
20000c4c:	f845 7b04 	str.w	r7, [r5], #4
20000c50:	d3f8      	bcc.n	20000c44 <sync_ep_buffer+0x7c>
20000c52:	ebb0 0f8c 	cmp.w	r0, ip, lsl #2
20000c56:	eba6 068c 	sub.w	r6, r6, ip, lsl #2
20000c5a:	eb03 058c 	add.w	r5, r3, ip, lsl #2
20000c5e:	eb04 018c 	add.w	r1, r4, ip, lsl #2
20000c62:	d0d1      	beq.n	20000c08 <sync_ep_buffer+0x40>
20000c64:	f813 302c 	ldrb.w	r3, [r3, ip, lsl #2]
20000c68:	f804 302c 	strb.w	r3, [r4, ip, lsl #2]
20000c6c:	2e00      	cmp	r6, #0
20000c6e:	d0cb      	beq.n	20000c08 <sync_ep_buffer+0x40>
20000c70:	786b      	ldrb	r3, [r5, #1]
20000c72:	2e01      	cmp	r6, #1
20000c74:	704b      	strb	r3, [r1, #1]
20000c76:	d0c7      	beq.n	20000c08 <sync_ep_buffer+0x40>
20000c78:	78ab      	ldrb	r3, [r5, #2]
20000c7a:	708b      	strb	r3, [r1, #2]
20000c7c:	6914      	ldr	r4, [r2, #16]
20000c7e:	e7c4      	b.n	20000c0a <sync_ep_buffer+0x42>

20000c80 <_hw_endpoint_xfer_sync>:
20000c80:	b510      	push	{r4, lr}
20000c82:	4604      	mov	r4, r0
20000c84:	6883      	ldr	r3, [r0, #8]
20000c86:	2100      	movs	r1, #0
20000c88:	681b      	ldr	r3, [r3, #0]
20000c8a:	f7ff ff9d 	bl	20000bc8 <sync_ep_buffer>
20000c8e:	6863      	ldr	r3, [r4, #4]
20000c90:	681b      	ldr	r3, [r3, #0]
20000c92:	005b      	lsls	r3, r3, #1
20000c94:	d502      	bpl.n	20000c9c <_hw_endpoint_xfer_sync+0x1c>
20000c96:	8b23      	ldrh	r3, [r4, #24]
20000c98:	4283      	cmp	r3, r0
20000c9a:	d000      	beq.n	20000c9e <_hw_endpoint_xfer_sync+0x1e>
20000c9c:	bd10      	pop	{r4, pc}
20000c9e:	4620      	mov	r0, r4
20000ca0:	e8bd 4010 	ldmia.w	sp!, {r4, lr}
20000ca4:	2101      	movs	r1, #1
20000ca6:	f7ff bf8f 	b.w	20000bc8 <sync_ep_buffer>
20000caa:	bf00      	nop

20000cac <e15_is_bulkin_ep>:
20000cac:	4b08      	ldr	r3, [pc, #32]	@ (20000cd0 <e15_is_bulkin_ep+0x24>)
20000cae:	6c1b      	ldr	r3, [r3, #64]	@ 0x40
20000cb0:	f013 0302 	ands.w	r3, r3, #2
20000cb4:	d102      	bne.n	20000cbc <e15_is_bulkin_ep+0x10>
20000cb6:	7882      	ldrb	r2, [r0, #2]
20000cb8:	09d2      	lsrs	r2, r2, #7
20000cba:	d101      	bne.n	20000cc0 <e15_is_bulkin_ep+0x14>
20000cbc:	2000      	movs	r0, #0
20000cbe:	4770      	bx	lr
20000cc0:	7ec0      	ldrb	r0, [r0, #27]
20000cc2:	f1a0 0002 	sub.w	r0, r0, #2
20000cc6:	fab0 f080 	clz	r0, r0
20000cca:	0940      	lsrs	r0, r0, #5
20000ccc:	4770      	bx	lr
20000cce:	bf00      	nop
20000cd0:	50110000 	.word	0x50110000

20000cd4 <e15_is_critical_frame_period>:
20000cd4:	b508      	push	{r3, lr}
20000cd6:	f7ff ffe9 	bl	20000cac <e15_is_bulkin_ep>
20000cda:	b150      	cbz	r0, 20000cf2 <e15_is_critical_frame_period+0x1e>
20000cdc:	4a05      	ldr	r2, [pc, #20]	@ (20000cf4 <e15_is_critical_frame_period+0x20>)
20000cde:	4b06      	ldr	r3, [pc, #24]	@ (20000cf8 <e15_is_critical_frame_period+0x24>)
20000ce0:	6a90      	ldr	r0, [r2, #40]	@ 0x28
20000ce2:	681b      	ldr	r3, [r3, #0]
20000ce4:	f5a0 7048 	sub.w	r0, r0, #800	@ 0x320
20000ce8:	1ac0      	subs	r0, r0, r3
20000cea:	28c6      	cmp	r0, #198	@ 0xc6
20000cec:	bf8c      	ite	hi
20000cee:	2000      	movhi	r0, #0
20000cf0:	2001      	movls	r0, #1
20000cf2:	bd08      	pop	{r3, pc}
20000cf4:	400b0000 	.word	0x400b0000
20000cf8:	20042508 	.word	0x20042508

20000cfc <hw_endpoint_reset_transfer>:
20000cfc:	2300      	movs	r3, #0
20000cfe:	e9c0 3304 	strd	r3, r3, [r0, #16]
20000d02:	7683      	strb	r3, [r0, #26]
20000d04:	4770      	bx	lr
20000d06:	bf00      	nop

20000d08 <_hw_endpoint_buffer_control_update32>:
20000d08:	b510      	push	{r4, lr}
20000d0a:	6883      	ldr	r3, [r0, #8]
20000d0c:	b109      	cbz	r1, 20000d12 <_hw_endpoint_buffer_control_update32+0xa>
20000d0e:	681c      	ldr	r4, [r3, #0]
20000d10:	4021      	ands	r1, r4
20000d12:	b182      	cbz	r2, 20000d36 <_hw_endpoint_buffer_control_update32+0x2e>
20000d14:	4311      	orrs	r1, r2
20000d16:	0552      	lsls	r2, r2, #21
20000d18:	d50d      	bpl.n	20000d36 <_hw_endpoint_buffer_control_update32+0x2e>
20000d1a:	681a      	ldr	r2, [r3, #0]
20000d1c:	0554      	lsls	r4, r2, #21
20000d1e:	d40c      	bmi.n	20000d3a <_hw_endpoint_buffer_control_update32+0x32>
20000d20:	4a08      	ldr	r2, [pc, #32]	@ (20000d44 <_hw_endpoint_buffer_control_update32+0x3c>)
20000d22:	f421 6480 	bic.w	r4, r1, #1024	@ 0x400
20000d26:	601c      	str	r4, [r3, #0]
20000d28:	6c12      	ldr	r2, [r2, #64]	@ 0x40
20000d2a:	0792      	lsls	r2, r2, #30
20000d2c:	d403      	bmi.n	20000d36 <_hw_endpoint_buffer_control_update32+0x2e>
20000d2e:	230c      	movs	r3, #12
20000d30:	3b03      	subs	r3, #3
20000d32:	d2fd      	bcs.n	20000d30 <_hw_endpoint_buffer_control_update32+0x28>
20000d34:	6883      	ldr	r3, [r0, #8]
20000d36:	6019      	str	r1, [r3, #0]
20000d38:	bd10      	pop	{r4, pc}
20000d3a:	7881      	ldrb	r1, [r0, #2]
20000d3c:	4802      	ldr	r0, [pc, #8]	@ (20000d48 <_hw_endpoint_buffer_control_update32+0x40>)
20000d3e:	f000 fc3f 	bl	200015c0 <__panic_veneer>
20000d42:	bf00      	nop
20000d44:	50110000 	.word	0x50110000
20000d48:	10007f34 	.word	0x10007f34

20000d4c <hw_endpoint_start_next_buffer>:
20000d4c:	b530      	push	{r4, r5, lr}
20000d4e:	6843      	ldr	r3, [r0, #4]
20000d50:	2100      	movs	r1, #0
20000d52:	b083      	sub	sp, #12
20000d54:	4604      	mov	r4, r0
20000d56:	681d      	ldr	r5, [r3, #0]
20000d58:	f7ff fece 	bl	20000af8 <prepare_ep_buffer>
20000d5c:	4b13      	ldr	r3, [pc, #76]	@ (20000dac <hw_endpoint_start_next_buffer+0x60>)
20000d5e:	f440 5280 	orr.w	r2, r0, #4096	@ 0x1000
20000d62:	6c1b      	ldr	r3, [r3, #64]	@ 0x40
20000d64:	f013 0f02 	tst.w	r3, #2
20000d68:	78a3      	ldrb	r3, [r4, #2]
20000d6a:	d00e      	beq.n	20000d8a <hw_endpoint_start_next_buffer+0x3e>
20000d6c:	065b      	lsls	r3, r3, #25
20000d6e:	d00e      	beq.n	20000d8e <hw_endpoint_start_next_buffer+0x42>
20000d70:	f025 45a0 	bic.w	r5, r5, #1342177280	@ 0x50000000
20000d74:	f045 5500 	orr.w	r5, r5, #536870912	@ 0x20000000
20000d78:	2100      	movs	r1, #0
20000d7a:	4620      	mov	r0, r4
20000d7c:	6863      	ldr	r3, [r4, #4]
20000d7e:	601d      	str	r5, [r3, #0]
20000d80:	b003      	add	sp, #12
20000d82:	e8bd 4030 	ldmia.w	sp!, {r4, r5, lr}
20000d86:	f7ff bfbf 	b.w	20000d08 <_hw_endpoint_buffer_control_update32>
20000d8a:	09db      	lsrs	r3, r3, #7
20000d8c:	d0f0      	beq.n	20000d70 <hw_endpoint_start_next_buffer+0x24>
20000d8e:	8aa3      	ldrh	r3, [r4, #20]
20000d90:	2b00      	cmp	r3, #0
20000d92:	d0ed      	beq.n	20000d70 <hw_endpoint_start_next_buffer+0x24>
20000d94:	2101      	movs	r1, #1
20000d96:	4620      	mov	r0, r4
20000d98:	9201      	str	r2, [sp, #4]
20000d9a:	f7ff fead 	bl	20000af8 <prepare_ep_buffer>
20000d9e:	9a01      	ldr	r2, [sp, #4]
20000da0:	f025 5500 	bic.w	r5, r5, #536870912	@ 0x20000000
20000da4:	4302      	orrs	r2, r0
20000da6:	f045 45a0 	orr.w	r5, r5, #1342177280	@ 0x50000000
20000daa:	e7e5      	b.n	20000d78 <hw_endpoint_start_next_buffer+0x2c>
20000dac:	50110000 	.word	0x50110000

20000db0 <hw_endpoint_xfer_continue>:
20000db0:	b538      	push	{r3, r4, r5, lr}
20000db2:	7e85      	ldrb	r5, [r0, #26]
20000db4:	4604      	mov	r4, r0
20000db6:	b195      	cbz	r5, 20000dde <hw_endpoint_xfer_continue+0x2e>
20000db8:	f7ff ff62 	bl	20000c80 <_hw_endpoint_xfer_sync>
20000dbc:	8aa3      	ldrh	r3, [r4, #20]
20000dbe:	b90b      	cbnz	r3, 20000dc4 <hw_endpoint_xfer_continue+0x14>
20000dc0:	4628      	mov	r0, r5
20000dc2:	bd38      	pop	{r3, r4, r5, pc}
20000dc4:	4620      	mov	r0, r4
20000dc6:	f7ff ff85 	bl	20000cd4 <e15_is_critical_frame_period>
20000dca:	b120      	cbz	r0, 20000dd6 <hw_endpoint_xfer_continue+0x26>
20000dcc:	2301      	movs	r3, #1
20000dce:	7723      	strb	r3, [r4, #28]
20000dd0:	2500      	movs	r5, #0
20000dd2:	4628      	mov	r0, r5
20000dd4:	bd38      	pop	{r3, r4, r5, pc}
20000dd6:	4620      	mov	r0, r4
20000dd8:	f7ff ffb8 	bl	20000d4c <hw_endpoint_start_next_buffer>
20000ddc:	e7f8      	b.n	20000dd0 <hw_endpoint_xfer_continue+0x20>
20000dde:	7881      	ldrb	r1, [r0, #2]
20000de0:	4801      	ldr	r0, [pc, #4]	@ (20000de8 <hw_endpoint_xfer_continue+0x38>)
20000de2:	f000 fbed 	bl	200015c0 <__panic_veneer>
20000de6:	bf00      	nop
20000de8:	10007f54 	.word	0x10007f54

20000dec <dcd_event_handler>:
20000dec:	e92d 43f0 	stmdb	sp!, {r4, r5, r6, r7, r8, r9, lr}
20000df0:	7843      	ldrb	r3, [r0, #1]
20000df2:	4604      	mov	r4, r0
20000df4:	3b02      	subs	r3, #2
20000df6:	460d      	mov	r5, r1
20000df8:	b085      	sub	sp, #20
20000dfa:	2b04      	cmp	r3, #4
20000dfc:	d813      	bhi.n	20000e26 <dcd_event_handler+0x3a>
20000dfe:	e8df f003 	tbb	[pc, r3]
20000e02:	4803      	.short	0x4803
20000e04:	7067      	.short	0x7067
20000e06:	42          	.byte	0x42
20000e07:	00          	.byte	0x00
20000e08:	2100      	movs	r1, #0
20000e0a:	4b78      	ldr	r3, [pc, #480]	@ (20000fec <dcd_event_handler+0x200>)
20000e0c:	781a      	ldrb	r2, [r3, #0]
20000e0e:	f022 0201 	bic.w	r2, r2, #1
20000e12:	701a      	strb	r2, [r3, #0]
20000e14:	781a      	ldrb	r2, [r3, #0]
20000e16:	f022 0202 	bic.w	r2, r2, #2
20000e1a:	701a      	strb	r2, [r3, #0]
20000e1c:	7059      	strb	r1, [r3, #1]
20000e1e:	781a      	ldrb	r2, [r3, #0]
20000e20:	f361 0282 	bfi	r2, r1, #2, #1
20000e24:	701a      	strb	r2, [r3, #0]
20000e26:	4b72      	ldr	r3, [pc, #456]	@ (20000ff0 <dcd_event_handler+0x204>)
20000e28:	681e      	ldr	r6, [r3, #0]
20000e2a:	6973      	ldr	r3, [r6, #20]
20000e2c:	f3ef 8210 	mrs	r2, PRIMASK
20000e30:	b672      	cpsid	i
20000e32:	e8d3 0fcf 	ldaexb	r0, [r3]
20000e36:	2101      	movs	r1, #1
20000e38:	2800      	cmp	r0, #0
20000e3a:	d1fa      	bne.n	20000e32 <dcd_event_handler+0x46>
20000e3c:	e8c3 1f40 	strexb	r0, r1, [r3]
20000e40:	2800      	cmp	r0, #0
20000e42:	d1f6      	bne.n	20000e32 <dcd_event_handler+0x46>
20000e44:	f3bf 8f5f 	dmb	sy
20000e48:	61b2      	str	r2, [r6, #24]
20000e4a:	4621      	mov	r1, r4
20000e4c:	4630      	mov	r0, r6
20000e4e:	f000 fb8f 	bl	20001570 <__tu_fifo_write_veneer>
20000e52:	2300      	movs	r3, #0
20000e54:	6972      	ldr	r2, [r6, #20]
20000e56:	e8c2 3f8f 	stlb	r3, [r2]
20000e5a:	69b3      	ldr	r3, [r6, #24]
20000e5c:	f383 8810 	msr	PRIMASK, r3
20000e60:	b948      	cbnz	r0, 20000e76 <dcd_event_handler+0x8a>
20000e62:	f04f 23e0 	mov.w	r3, #3758153728	@ 0xe000e000
20000e66:	f8d3 3df0 	ldr.w	r3, [r3, #3568]	@ 0xdf0
20000e6a:	07db      	lsls	r3, r3, #31
20000e6c:	d508      	bpl.n	20000e80 <dcd_event_handler+0x94>
20000e6e:	be00      	bkpt	0x0000
20000e70:	b005      	add	sp, #20
20000e72:	e8bd 83f0 	ldmia.w	sp!, {r4, r5, r6, r7, r8, r9, pc}
20000e76:	462a      	mov	r2, r5
20000e78:	7861      	ldrb	r1, [r4, #1]
20000e7a:	7820      	ldrb	r0, [r4, #0]
20000e7c:	f000 fb88 	bl	20001590 <__tud_event_hook_cb_veneer>
20000e80:	b005      	add	sp, #20
20000e82:	e8bd 83f0 	ldmia.w	sp!, {r4, r5, r6, r7, r8, r9, pc}
20000e86:	4a5b      	ldr	r2, [pc, #364]	@ (20000ff4 <dcd_event_handler+0x208>)
20000e88:	7813      	ldrb	r3, [r2, #0]
20000e8a:	3301      	adds	r3, #1
20000e8c:	b2db      	uxtb	r3, r3
20000e8e:	7013      	strb	r3, [r2, #0]
20000e90:	e7c9      	b.n	20000e26 <dcd_event_handler+0x3a>
20000e92:	f04f 0900 	mov.w	r9, #0
20000e96:	4e58      	ldr	r6, [pc, #352]	@ (20000ff8 <dcd_event_handler+0x20c>)
20000e98:	464b      	mov	r3, r9
20000e9a:	7831      	ldrb	r1, [r6, #0]
20000e9c:	f8df 8160 	ldr.w	r8, [pc, #352]	@ 20001000 <dcd_event_handler+0x214>
20000ea0:	4f56      	ldr	r7, [pc, #344]	@ (20000ffc <dcd_event_handler+0x210>)
20000ea2:	e00f      	b.n	20000ec4 <dcd_event_handler+0xd8>
20000ea4:	683a      	ldr	r2, [r7, #0]
20000ea6:	eb12 1343 	adds.w	r3, r2, r3, lsl #5
20000eaa:	d005      	beq.n	20000eb8 <dcd_event_handler+0xcc>
20000eac:	69db      	ldr	r3, [r3, #28]
20000eae:	b11b      	cbz	r3, 20000eb8 <dcd_event_handler+0xcc>
20000eb0:	6861      	ldr	r1, [r4, #4]
20000eb2:	7820      	ldrb	r0, [r4, #0]
20000eb4:	4798      	blx	r3
20000eb6:	7831      	ldrb	r1, [r6, #0]
20000eb8:	f109 0901 	add.w	r9, r9, #1
20000ebc:	fa5f f389 	uxtb.w	r3, r9
20000ec0:	428b      	cmp	r3, r1
20000ec2:	d817      	bhi.n	20000ef4 <dcd_event_handler+0x108>
20000ec4:	4299      	cmp	r1, r3
20000ec6:	d8ed      	bhi.n	20000ea4 <dcd_event_handler+0xb8>
20000ec8:	1a5b      	subs	r3, r3, r1
20000eca:	eb08 1343 	add.w	r3, r8, r3, lsl #5
20000ece:	e7ed      	b.n	20000eac <dcd_event_handler+0xc0>
20000ed0:	4b46      	ldr	r3, [pc, #280]	@ (20000fec <dcd_event_handler+0x200>)
20000ed2:	781a      	ldrb	r2, [r3, #0]
20000ed4:	07d7      	lsls	r7, r2, #31
20000ed6:	d5d3      	bpl.n	20000e80 <dcd_event_handler+0x94>
20000ed8:	781a      	ldrb	r2, [r3, #0]
20000eda:	f042 0204 	orr.w	r2, r2, #4
20000ede:	701a      	strb	r2, [r3, #0]
20000ee0:	e7a1      	b.n	20000e26 <dcd_event_handler+0x3a>
20000ee2:	4b42      	ldr	r3, [pc, #264]	@ (20000fec <dcd_event_handler+0x200>)
20000ee4:	781a      	ldrb	r2, [r3, #0]
20000ee6:	07d6      	lsls	r6, r2, #31
20000ee8:	d5ca      	bpl.n	20000e80 <dcd_event_handler+0x94>
20000eea:	781a      	ldrb	r2, [r3, #0]
20000eec:	f022 0204 	bic.w	r2, r2, #4
20000ef0:	701a      	strb	r2, [r3, #0]
20000ef2:	e798      	b.n	20000e26 <dcd_event_handler+0x3a>
20000ef4:	4e3d      	ldr	r6, [pc, #244]	@ (20000fec <dcd_event_handler+0x200>)
20000ef6:	7833      	ldrb	r3, [r6, #0]
20000ef8:	0758      	lsls	r0, r3, #29
20000efa:	d437      	bmi.n	20000f6c <dcd_event_handler+0x180>
20000efc:	78f3      	ldrb	r3, [r6, #3]
20000efe:	07da      	lsls	r2, r3, #31
20000f00:	d5be      	bpl.n	20000e80 <dcd_event_handler+0x94>
20000f02:	2303      	movs	r3, #3
20000f04:	2700      	movs	r7, #0
20000f06:	4a3a      	ldr	r2, [pc, #232]	@ (20000ff0 <dcd_event_handler+0x204>)
20000f08:	7821      	ldrb	r1, [r4, #0]
20000f0a:	6816      	ldr	r6, [r2, #0]
20000f0c:	6862      	ldr	r2, [r4, #4]
20000f0e:	f88d 1004 	strb.w	r1, [sp, #4]
20000f12:	f88d 3005 	strb.w	r3, [sp, #5]
20000f16:	6973      	ldr	r3, [r6, #20]
20000f18:	f8cd 7006 	str.w	r7, [sp, #6]
20000f1c:	f8cd 700a 	str.w	r7, [sp, #10]
20000f20:	f8ad 700e 	strh.w	r7, [sp, #14]
20000f24:	9202      	str	r2, [sp, #8]
20000f26:	f3ef 8210 	mrs	r2, PRIMASK
20000f2a:	b672      	cpsid	i
20000f2c:	e8d3 0fcf 	ldaexb	r0, [r3]
20000f30:	2101      	movs	r1, #1
20000f32:	2800      	cmp	r0, #0
20000f34:	d1fa      	bne.n	20000f2c <dcd_event_handler+0x140>
20000f36:	e8c3 1f40 	strexb	r0, r1, [r3]
20000f3a:	2800      	cmp	r0, #0
20000f3c:	d1f6      	bne.n	20000f2c <dcd_event_handler+0x140>
20000f3e:	f3bf 8f5f 	dmb	sy
20000f42:	4630      	mov	r0, r6
20000f44:	61b2      	str	r2, [r6, #24]
20000f46:	a901      	add	r1, sp, #4
20000f48:	f000 fb12 	bl	20001570 <__tu_fifo_write_veneer>
20000f4c:	6973      	ldr	r3, [r6, #20]
20000f4e:	e8c3 7f8f 	stlb	r7, [r3]
20000f52:	69b3      	ldr	r3, [r6, #24]
20000f54:	f383 8810 	msr	PRIMASK, r3
20000f58:	2800      	cmp	r0, #0
20000f5a:	d082      	beq.n	20000e62 <dcd_event_handler+0x76>
20000f5c:	462a      	mov	r2, r5
20000f5e:	f89d 1005 	ldrb.w	r1, [sp, #5]
20000f62:	f89d 0004 	ldrb.w	r0, [sp, #4]
20000f66:	f000 fb13 	bl	20001590 <__tud_event_hook_cb_veneer>
20000f6a:	e789      	b.n	20000e80 <dcd_event_handler+0x94>
20000f6c:	7833      	ldrb	r3, [r6, #0]
20000f6e:	f04f 0800 	mov.w	r8, #0
20000f72:	f023 0304 	bic.w	r3, r3, #4
20000f76:	7033      	strb	r3, [r6, #0]
20000f78:	2305      	movs	r3, #5
20000f7a:	4a1d      	ldr	r2, [pc, #116]	@ (20000ff0 <dcd_event_handler+0x204>)
20000f7c:	f88d 3005 	strb.w	r3, [sp, #5]
20000f80:	6817      	ldr	r7, [r2, #0]
20000f82:	7822      	ldrb	r2, [r4, #0]
20000f84:	f8ad 800e 	strh.w	r8, [sp, #14]
20000f88:	f88d 2004 	strb.w	r2, [sp, #4]
20000f8c:	697b      	ldr	r3, [r7, #20]
20000f8e:	f8cd 8006 	str.w	r8, [sp, #6]
20000f92:	f8cd 800a 	str.w	r8, [sp, #10]
20000f96:	f3ef 8210 	mrs	r2, PRIMASK
20000f9a:	b672      	cpsid	i
20000f9c:	e8d3 0fcf 	ldaexb	r0, [r3]
20000fa0:	2101      	movs	r1, #1
20000fa2:	2800      	cmp	r0, #0
20000fa4:	d1fa      	bne.n	20000f9c <dcd_event_handler+0x1b0>
20000fa6:	e8c3 1f40 	strexb	r0, r1, [r3]
20000faa:	2800      	cmp	r0, #0
20000fac:	d1f6      	bne.n	20000f9c <dcd_event_handler+0x1b0>
20000fae:	f3bf 8f5f 	dmb	sy
20000fb2:	4638      	mov	r0, r7
20000fb4:	61ba      	str	r2, [r7, #24]
20000fb6:	a901      	add	r1, sp, #4
20000fb8:	f000 fada 	bl	20001570 <__tu_fifo_write_veneer>
20000fbc:	697b      	ldr	r3, [r7, #20]
20000fbe:	e8c3 8f8f 	stlb	r8, [r3]
20000fc2:	69bb      	ldr	r3, [r7, #24]
20000fc4:	f383 8810 	msr	PRIMASK, r3
20000fc8:	b938      	cbnz	r0, 20000fda <dcd_event_handler+0x1ee>
20000fca:	f04f 23e0 	mov.w	r3, #3758153728	@ 0xe000e000
20000fce:	f8d3 3df0 	ldr.w	r3, [r3, #3568]	@ 0xdf0
20000fd2:	07d9      	lsls	r1, r3, #31
20000fd4:	d592      	bpl.n	20000efc <dcd_event_handler+0x110>
20000fd6:	be00      	bkpt	0x0000
20000fd8:	e790      	b.n	20000efc <dcd_event_handler+0x110>
20000fda:	462a      	mov	r2, r5
20000fdc:	f89d 1005 	ldrb.w	r1, [sp, #5]
20000fe0:	f89d 0004 	ldrb.w	r0, [sp, #4]
20000fe4:	f000 fad4 	bl	20001590 <__tud_event_hook_cb_veneer>
20000fe8:	e788      	b.n	20000efc <dcd_event_handler+0x110>
20000fea:	bf00      	nop
20000fec:	2004225c 	.word	0x2004225c
20000ff0:	200422b4 	.word	0x200422b4
20000ff4:	200429c8 	.word	0x200429c8
20000ff8:	200429c6 	.word	0x200429c6
20000ffc:	200421d8 	.word	0x200421d8
20001000:	100082dc 	.word	0x100082dc

20001004 <flash_init_boot2_copyout>:
20001004:	b410      	push	{r4}
20001006:	4c0a      	ldr	r4, [pc, #40]	@ (20001030 <flash_init_boot2_copyout+0x2c>)
20001008:	7823      	ldrb	r3, [r4, #0]
2000100a:	b96b      	cbnz	r3, 20001028 <flash_init_boot2_copyout+0x24>
2000100c:	4b09      	ldr	r3, [pc, #36]	@ (20001034 <flash_init_boot2_copyout+0x30>)
2000100e:	f1c3 4180 	rsb	r1, r3, #1073741824	@ 0x40000000
20001012:	f503 7080 	add.w	r0, r3, #256	@ 0x100
20001016:	f501 2160 	add.w	r1, r1, #917504	@ 0xe0000
2000101a:	58ca      	ldr	r2, [r1, r3]
2000101c:	f843 2f04 	str.w	r2, [r3, #4]!
20001020:	4283      	cmp	r3, r0
20001022:	d1fa      	bne.n	2000101a <flash_init_boot2_copyout+0x16>
20001024:	2301      	movs	r3, #1
20001026:	7023      	strb	r3, [r4, #0]
20001028:	f85d 4b04 	ldr.w	r4, [sp], #4
2000102c:	4770      	bx	lr
2000102e:	bf00      	nop
20001030:	200429cb 	.word	0x200429cb
20001034:	20042398 	.word	0x20042398

20001038 <flash_enable_xip_via_boot2>:
20001038:	4b00      	ldr	r3, [pc, #0]	@ (2000103c <flash_enable_xip_via_boot2+0x4>)
2000103a:	4718      	bx	r3
2000103c:	2004239d 	.word	0x2004239d

20001040 <flash_rp2350_save_qmi_cs1>:
20001040:	4b03      	ldr	r3, [pc, #12]	@ (20001050 <flash_rp2350_save_qmi_cs1+0x10>)
20001042:	6a1a      	ldr	r2, [r3, #32]
20001044:	6002      	str	r2, [r0, #0]
20001046:	6a9a      	ldr	r2, [r3, #40]	@ 0x28
20001048:	6042      	str	r2, [r0, #4]
2000104a:	6a5b      	ldr	r3, [r3, #36]	@ 0x24
2000104c:	6083      	str	r3, [r0, #8]
2000104e:	4770      	bx	lr
20001050:	400d0000 	.word	0x400d0000

20001054 <flash_devinfo_get_cs_size>:
20001054:	b510      	push	{r4, lr}
20001056:	4604      	mov	r4, r0
20001058:	f244 4046 	movw	r0, #17478	@ 0x4446
2000105c:	f000 fa8c 	bl	20001578 <__rom_data_lookup_veneer>
20001060:	b124      	cbz	r4, 2000106c <flash_devinfo_get_cs_size+0x18>
20001062:	6803      	ldr	r3, [r0, #0]
20001064:	8818      	ldrh	r0, [r3, #0]
20001066:	f3c0 3003 	ubfx	r0, r0, #12, #4
2000106a:	bd10      	pop	{r4, pc}
2000106c:	200a      	movs	r0, #10
2000106e:	bd10      	pop	{r4, pc}

20001070 <flash_rp2350_restore_qmi_cs1>:
20001070:	b510      	push	{r4, lr}
20001072:	4604      	mov	r4, r0
20001074:	2001      	movs	r0, #1
20001076:	f7ff ffed 	bl	20001054 <flash_devinfo_get_cs_size>
2000107a:	b938      	cbnz	r0, 2000108c <flash_rp2350_restore_qmi_cs1+0x1c>
2000107c:	6822      	ldr	r2, [r4, #0]
2000107e:	4b07      	ldr	r3, [pc, #28]	@ (2000109c <flash_rp2350_restore_qmi_cs1+0x2c>)
20001080:	621a      	str	r2, [r3, #32]
20001082:	6862      	ldr	r2, [r4, #4]
20001084:	629a      	str	r2, [r3, #40]	@ 0x28
20001086:	68a2      	ldr	r2, [r4, #8]
20001088:	625a      	str	r2, [r3, #36]	@ 0x24
2000108a:	bd10      	pop	{r4, pc}
2000108c:	f44f 5180 	mov.w	r1, #4096	@ 0x1000
20001090:	f24a 0202 	movw	r2, #40962	@ 0xa002
20001094:	4b01      	ldr	r3, [pc, #4]	@ (2000109c <flash_rp2350_restore_qmi_cs1+0x2c>)
20001096:	62d9      	str	r1, [r3, #44]	@ 0x2c
20001098:	631a      	str	r2, [r3, #48]	@ 0x30
2000109a:	bd10      	pop	{r4, pc}
2000109c:	400d0000 	.word	0x400d0000

200010a0 <flash_range_erase>:
200010a0:	e92d 43f0 	stmdb	sp!, {r4, r5, r6, r7, r8, r9, lr}
200010a4:	1843      	adds	r3, r0, r1
200010a6:	f5b3 0f80 	cmp.w	r3, #4194304	@ 0x400000
200010aa:	4604      	mov	r4, r0
200010ac:	460d      	mov	r5, r1
200010ae:	b085      	sub	sp, #20
200010b0:	d84b      	bhi.n	2000114a <flash_range_erase+0xaa>
200010b2:	2300      	movs	r3, #0
200010b4:	8adb      	ldrh	r3, [r3, #22]
200010b6:	2200      	movs	r2, #0
200010b8:	e842 f200 	tt	r2, r2
200010bc:	0256      	lsls	r6, r2, #9
200010be:	bf54      	ite	pl
200010c0:	2110      	movpl	r1, #16
200010c2:	2104      	movmi	r1, #4
200010c4:	f244 6049 	movw	r0, #17993	@ 0x4649
200010c8:	4798      	blx	r3
200010ca:	2300      	movs	r3, #0
200010cc:	4681      	mov	r9, r0
200010ce:	8adb      	ldrh	r3, [r3, #22]
200010d0:	2200      	movs	r2, #0
200010d2:	e842 f200 	tt	r2, r2
200010d6:	0250      	lsls	r0, r2, #9
200010d8:	bf54      	ite	pl
200010da:	2110      	movpl	r1, #16
200010dc:	2104      	movmi	r1, #4
200010de:	f645 0045 	movw	r0, #22597	@ 0x5845
200010e2:	4798      	blx	r3
200010e4:	2300      	movs	r3, #0
200010e6:	4680      	mov	r8, r0
200010e8:	8adb      	ldrh	r3, [r3, #22]
200010ea:	2200      	movs	r2, #0
200010ec:	e842 f200 	tt	r2, r2
200010f0:	0251      	lsls	r1, r2, #9
200010f2:	bf54      	ite	pl
200010f4:	2110      	movpl	r1, #16
200010f6:	2104      	movmi	r1, #4
200010f8:	f244 5052 	movw	r0, #17746	@ 0x4552
200010fc:	4798      	blx	r3
200010fe:	2300      	movs	r3, #0
20001100:	4607      	mov	r7, r0
20001102:	8adb      	ldrh	r3, [r3, #22]
20001104:	2200      	movs	r2, #0
20001106:	e842 f200 	tt	r2, r2
2000110a:	0252      	lsls	r2, r2, #9
2000110c:	bf54      	ite	pl
2000110e:	2110      	movpl	r1, #16
20001110:	2104      	movmi	r1, #4
20001112:	f244 3046 	movw	r0, #17222	@ 0x4346
20001116:	4798      	blx	r3
20001118:	4606      	mov	r6, r0
2000111a:	f7ff ff73 	bl	20001004 <flash_init_boot2_copyout>
2000111e:	f000 f87f 	bl	20001220 <xip_cache_clean_all>
20001122:	a801      	add	r0, sp, #4
20001124:	f7ff ff8c 	bl	20001040 <flash_rp2350_save_qmi_cs1>
20001128:	47c8      	blx	r9
2000112a:	47c0      	blx	r8
2000112c:	23d8      	movs	r3, #216	@ 0xd8
2000112e:	f44f 3280 	mov.w	r2, #65536	@ 0x10000
20001132:	4629      	mov	r1, r5
20001134:	4620      	mov	r0, r4
20001136:	47b8      	blx	r7
20001138:	47b0      	blx	r6
2000113a:	f7ff ff7d 	bl	20001038 <flash_enable_xip_via_boot2>
2000113e:	a801      	add	r0, sp, #4
20001140:	f7ff ff96 	bl	20001070 <flash_rp2350_restore_qmi_cs1>
20001144:	b005      	add	sp, #20
20001146:	e8bd 83f0 	ldmia.w	sp!, {r4, r5, r6, r7, r8, r9, pc}
2000114a:	f000 fa2d 	bl	200015a8 <__hard_assertion_failure_veneer>
2000114e:	e7b0      	b.n	200010b2 <flash_range_erase+0x12>

20001150 <flash_range_program>:
20001150:	e92d 47f0 	stmdb	sp!, {r4, r5, r6, r7, r8, r9, sl, lr}
20001154:	1883      	adds	r3, r0, r2
20001156:	f5b3 0f80 	cmp.w	r3, #4194304	@ 0x400000
2000115a:	4604      	mov	r4, r0
2000115c:	4615      	mov	r5, r2
2000115e:	4688      	mov	r8, r1
20001160:	b084      	sub	sp, #16
20001162:	d849      	bhi.n	200011f8 <flash_range_program+0xa8>
20001164:	2300      	movs	r3, #0
20001166:	8adb      	ldrh	r3, [r3, #22]
20001168:	2200      	movs	r2, #0
2000116a:	e842 f200 	tt	r2, r2
2000116e:	0256      	lsls	r6, r2, #9
20001170:	bf54      	ite	pl
20001172:	2110      	movpl	r1, #16
20001174:	2104      	movmi	r1, #4
20001176:	f244 6049 	movw	r0, #17993	@ 0x4649
2000117a:	4798      	blx	r3
2000117c:	2300      	movs	r3, #0
2000117e:	4682      	mov	sl, r0
20001180:	8adb      	ldrh	r3, [r3, #22]
20001182:	2200      	movs	r2, #0
20001184:	e842 f200 	tt	r2, r2
20001188:	0250      	lsls	r0, r2, #9
2000118a:	bf54      	ite	pl
2000118c:	2110      	movpl	r1, #16
2000118e:	2104      	movmi	r1, #4
20001190:	f645 0045 	movw	r0, #22597	@ 0x5845
20001194:	4798      	blx	r3
20001196:	2300      	movs	r3, #0
20001198:	4681      	mov	r9, r0
2000119a:	8adb      	ldrh	r3, [r3, #22]
2000119c:	2200      	movs	r2, #0
2000119e:	e842 f200 	tt	r2, r2
200011a2:	0251      	lsls	r1, r2, #9
200011a4:	bf54      	ite	pl
200011a6:	2110      	movpl	r1, #16
200011a8:	2104      	movmi	r1, #4
200011aa:	f245 0052 	movw	r0, #20562	@ 0x5052
200011ae:	4798      	blx	r3
200011b0:	2300      	movs	r3, #0
200011b2:	4607      	mov	r7, r0
200011b4:	8adb      	ldrh	r3, [r3, #22]
200011b6:	2200      	movs	r2, #0
200011b8:	e842 f200 	tt	r2, r2
200011bc:	0252      	lsls	r2, r2, #9
200011be:	bf54      	ite	pl
200011c0:	2110      	movpl	r1, #16
200011c2:	2104      	movmi	r1, #4
200011c4:	f244 3046 	movw	r0, #17222	@ 0x4346
200011c8:	4798      	blx	r3
200011ca:	4606      	mov	r6, r0
200011cc:	f7ff ff1a 	bl	20001004 <flash_init_boot2_copyout>
200011d0:	f000 f826 	bl	20001220 <xip_cache_clean_all>
200011d4:	a801      	add	r0, sp, #4
200011d6:	f7ff ff33 	bl	20001040 <flash_rp2350_save_qmi_cs1>
200011da:	47d0      	blx	sl
200011dc:	47c8      	blx	r9
200011de:	462a      	mov	r2, r5
200011e0:	4641      	mov	r1, r8
200011e2:	4620      	mov	r0, r4
200011e4:	47b8      	blx	r7
200011e6:	47b0      	blx	r6
200011e8:	f7ff ff26 	bl	20001038 <flash_enable_xip_via_boot2>
200011ec:	a801      	add	r0, sp, #4
200011ee:	f7ff ff3f 	bl	20001070 <flash_rp2350_restore_qmi_cs1>
200011f2:	b004      	add	sp, #16
200011f4:	e8bd 87f0 	ldmia.w	sp!, {r4, r5, r6, r7, r8, r9, sl, pc}
200011f8:	f000 f9d6 	bl	200015a8 <__hard_assertion_failure_veneer>
200011fc:	e7b2      	b.n	20001164 <flash_range_program+0x14>
200011fe:	bf00      	nop

20001200 <xip_cache_maintain>:
20001200:	4401      	add	r1, r0
20001202:	4288      	cmp	r0, r1
20001204:	d206      	bcs.n	20001214 <xip_cache_maintain+0x14>
20001206:	2300      	movs	r3, #0
20001208:	f102 52c0 	add.w	r2, r2, #402653184	@ 0x18000000
2000120c:	5413      	strb	r3, [r2, r0]
2000120e:	3008      	adds	r0, #8
20001210:	4281      	cmp	r1, r0
20001212:	d8fb      	bhi.n	2000120c <xip_cache_maintain+0xc>
20001214:	f3bf 8f4f 	dsb	sy
20001218:	f3bf 8f6f 	isb	sy
2000121c:	4770      	bx	lr
2000121e:	bf00      	nop

20001220 <xip_cache_clean_all>:
20001220:	2201      	movs	r2, #1
20001222:	f44f 4180 	mov.w	r1, #16384	@ 0x4000
20001226:	4801      	ldr	r0, [pc, #4]	@ (2000122c <xip_cache_clean_all+0xc>)
20001228:	f7ff bfea 	b.w	20001200 <xip_cache_maintain>
2000122c:	03ffc000 	.word	0x03ffc000

20001230 <__aeabi_uldivmod>:
20001230:	b953      	cbnz	r3, 20001248 <__aeabi_uldivmod+0x18>
20001232:	b94a      	cbnz	r2, 20001248 <__aeabi_uldivmod+0x18>
20001234:	2900      	cmp	r1, #0
20001236:	bf08      	it	eq
20001238:	2800      	cmpeq	r0, #0
2000123a:	bf1c      	itt	ne
2000123c:	f04f 31ff 	movne.w	r1, #4294967295
20001240:	f04f 30ff 	movne.w	r0, #4294967295
20001244:	f000 b98c 	b.w	20001560 <__aeabi_idiv0>
20001248:	f1ad 0c08 	sub.w	ip, sp, #8
2000124c:	e96d ce04 	strd	ip, lr, [sp, #-16]!
20001250:	f000 f806 	bl	20001260 <__udivmoddi4>
20001254:	f8dd e004 	ldr.w	lr, [sp, #4]
20001258:	e9dd 2302 	ldrd	r2, r3, [sp, #8]
2000125c:	b004      	add	sp, #16
2000125e:	4770      	bx	lr

20001260 <__udivmoddi4>:
20001260:	e92d 4ff0 	stmdb	sp!, {r4, r5, r6, r7, r8, r9, sl, fp, lr}
20001264:	9d09      	ldr	r5, [sp, #36]	@ 0x24
20001266:	460e      	mov	r6, r1
20001268:	4604      	mov	r4, r0
2000126a:	460f      	mov	r7, r1
2000126c:	2b00      	cmp	r3, #0
2000126e:	d147      	bne.n	20001300 <__udivmoddi4+0xa0>
20001270:	428a      	cmp	r2, r1
20001272:	4694      	mov	ip, r2
20001274:	fab2 f382 	clz	r3, r2
20001278:	d95a      	bls.n	20001330 <__udivmoddi4+0xd0>
2000127a:	b143      	cbz	r3, 2000128e <__udivmoddi4+0x2e>
2000127c:	fa02 fc03 	lsl.w	ip, r2, r3
20001280:	f1c3 0220 	rsb	r2, r3, #32
20001284:	409f      	lsls	r7, r3
20001286:	409c      	lsls	r4, r3
20001288:	fa20 f202 	lsr.w	r2, r0, r2
2000128c:	4317      	orrs	r7, r2
2000128e:	ea4f 461c 	mov.w	r6, ip, lsr #16
20001292:	fa1f fe8c 	uxth.w	lr, ip
20001296:	0c22      	lsrs	r2, r4, #16
20001298:	fbb7 f1f6 	udiv	r1, r7, r6
2000129c:	fb06 7711 	mls	r7, r6, r1, r7
200012a0:	fb01 f00e 	mul.w	r0, r1, lr
200012a4:	ea42 4207 	orr.w	r2, r2, r7, lsl #16
200012a8:	4290      	cmp	r0, r2
200012aa:	d908      	bls.n	200012be <__udivmoddi4+0x5e>
200012ac:	eb1c 0202 	adds.w	r2, ip, r2
200012b0:	f101 37ff 	add.w	r7, r1, #4294967295
200012b4:	d202      	bcs.n	200012bc <__udivmoddi4+0x5c>
200012b6:	4290      	cmp	r0, r2
200012b8:	f200 813c 	bhi.w	20001534 <__udivmoddi4+0x2d4>
200012bc:	4639      	mov	r1, r7
200012be:	1a12      	subs	r2, r2, r0
200012c0:	b2a4      	uxth	r4, r4
200012c2:	fbb2 f0f6 	udiv	r0, r2, r6
200012c6:	fb06 2210 	mls	r2, r6, r0, r2
200012ca:	fb00 fe0e 	mul.w	lr, r0, lr
200012ce:	ea44 4402 	orr.w	r4, r4, r2, lsl #16
200012d2:	45a6      	cmp	lr, r4
200012d4:	d908      	bls.n	200012e8 <__udivmoddi4+0x88>
200012d6:	eb1c 0404 	adds.w	r4, ip, r4
200012da:	f100 32ff 	add.w	r2, r0, #4294967295
200012de:	d202      	bcs.n	200012e6 <__udivmoddi4+0x86>
200012e0:	45a6      	cmp	lr, r4
200012e2:	f200 812a 	bhi.w	2000153a <__udivmoddi4+0x2da>
200012e6:	4610      	mov	r0, r2
200012e8:	ea40 4001 	orr.w	r0, r0, r1, lsl #16
200012ec:	eba4 040e 	sub.w	r4, r4, lr
200012f0:	2100      	movs	r1, #0
200012f2:	b11d      	cbz	r5, 200012fc <__udivmoddi4+0x9c>
200012f4:	40dc      	lsrs	r4, r3
200012f6:	2300      	movs	r3, #0
200012f8:	e9c5 4300 	strd	r4, r3, [r5]
200012fc:	e8bd 8ff0 	ldmia.w	sp!, {r4, r5, r6, r7, r8, r9, sl, fp, pc}
20001300:	428b      	cmp	r3, r1
20001302:	d905      	bls.n	20001310 <__udivmoddi4+0xb0>
20001304:	b10d      	cbz	r5, 2000130a <__udivmoddi4+0xaa>
20001306:	e9c5 0100 	strd	r0, r1, [r5]
2000130a:	2100      	movs	r1, #0
2000130c:	4608      	mov	r0, r1
2000130e:	e7f5      	b.n	200012fc <__udivmoddi4+0x9c>
20001310:	fab3 f183 	clz	r1, r3
20001314:	2900      	cmp	r1, #0
20001316:	d14f      	bne.n	200013b8 <__udivmoddi4+0x158>
20001318:	42b3      	cmp	r3, r6
2000131a:	f0c0 8102 	bcc.w	20001522 <__udivmoddi4+0x2c2>
2000131e:	4282      	cmp	r2, r0
20001320:	f240 80ff 	bls.w	20001522 <__udivmoddi4+0x2c2>
20001324:	4608      	mov	r0, r1
20001326:	2d00      	cmp	r5, #0
20001328:	d0e8      	beq.n	200012fc <__udivmoddi4+0x9c>
2000132a:	e9c5 4700 	strd	r4, r7, [r5]
2000132e:	e7e5      	b.n	200012fc <__udivmoddi4+0x9c>
20001330:	2b00      	cmp	r3, #0
20001332:	f040 80af 	bne.w	20001494 <__udivmoddi4+0x234>
20001336:	1a8a      	subs	r2, r1, r2
20001338:	ea4f 4e1c 	mov.w	lr, ip, lsr #16
2000133c:	fa1f f78c 	uxth.w	r7, ip
20001340:	2101      	movs	r1, #1
20001342:	fbb2 f6fe 	udiv	r6, r2, lr
20001346:	fb0e 2016 	mls	r0, lr, r6, r2
2000134a:	0c22      	lsrs	r2, r4, #16
2000134c:	ea42 4200 	orr.w	r2, r2, r0, lsl #16
20001350:	fb07 f006 	mul.w	r0, r7, r6
20001354:	4290      	cmp	r0, r2
20001356:	d90f      	bls.n	20001378 <__udivmoddi4+0x118>
20001358:	eb1c 0202 	adds.w	r2, ip, r2
2000135c:	f106 38ff 	add.w	r8, r6, #4294967295
20001360:	bf2c      	ite	cs
20001362:	f04f 0901 	movcs.w	r9, #1
20001366:	f04f 0900 	movcc.w	r9, #0
2000136a:	4290      	cmp	r0, r2
2000136c:	d903      	bls.n	20001376 <__udivmoddi4+0x116>
2000136e:	f1b9 0f00 	cmp.w	r9, #0
20001372:	f000 80dc 	beq.w	2000152e <__udivmoddi4+0x2ce>
20001376:	4646      	mov	r6, r8
20001378:	1a12      	subs	r2, r2, r0
2000137a:	b2a4      	uxth	r4, r4
2000137c:	fbb2 f0fe 	udiv	r0, r2, lr
20001380:	fb0e 2210 	mls	r2, lr, r0, r2
20001384:	fb00 f707 	mul.w	r7, r0, r7
20001388:	ea44 4402 	orr.w	r4, r4, r2, lsl #16
2000138c:	42a7      	cmp	r7, r4
2000138e:	d90f      	bls.n	200013b0 <__udivmoddi4+0x150>
20001390:	eb1c 0404 	adds.w	r4, ip, r4
20001394:	f100 32ff 	add.w	r2, r0, #4294967295
20001398:	bf2c      	ite	cs
2000139a:	f04f 0e01 	movcs.w	lr, #1
2000139e:	f04f 0e00 	movcc.w	lr, #0
200013a2:	42a7      	cmp	r7, r4
200013a4:	d903      	bls.n	200013ae <__udivmoddi4+0x14e>
200013a6:	f1be 0f00 	cmp.w	lr, #0
200013aa:	f000 80c9 	beq.w	20001540 <__udivmoddi4+0x2e0>
200013ae:	4610      	mov	r0, r2
200013b0:	1be4      	subs	r4, r4, r7
200013b2:	ea40 4006 	orr.w	r0, r0, r6, lsl #16
200013b6:	e79c      	b.n	200012f2 <__udivmoddi4+0x92>
200013b8:	f1c1 0420 	rsb	r4, r1, #32
200013bc:	408b      	lsls	r3, r1
200013be:	fa06 fc01 	lsl.w	ip, r6, r1
200013c2:	fa00 fe01 	lsl.w	lr, r0, r1
200013c6:	fa22 f704 	lsr.w	r7, r2, r4
200013ca:	40e6      	lsrs	r6, r4
200013cc:	408a      	lsls	r2, r1
200013ce:	431f      	orrs	r7, r3
200013d0:	fa20 f304 	lsr.w	r3, r0, r4
200013d4:	ea4f 4817 	mov.w	r8, r7, lsr #16
200013d8:	ea43 030c 	orr.w	r3, r3, ip
200013dc:	fa1f fc87 	uxth.w	ip, r7
200013e0:	ea4f 4913 	mov.w	r9, r3, lsr #16
200013e4:	fbb6 f0f8 	udiv	r0, r6, r8
200013e8:	fb08 6610 	mls	r6, r8, r0, r6
200013ec:	ea49 4606 	orr.w	r6, r9, r6, lsl #16
200013f0:	fb00 f90c 	mul.w	r9, r0, ip
200013f4:	45b1      	cmp	r9, r6
200013f6:	d90e      	bls.n	20001416 <__udivmoddi4+0x1b6>
200013f8:	19be      	adds	r6, r7, r6
200013fa:	f100 3aff 	add.w	sl, r0, #4294967295
200013fe:	bf2c      	ite	cs
20001400:	f04f 0b01 	movcs.w	fp, #1
20001404:	f04f 0b00 	movcc.w	fp, #0
20001408:	45b1      	cmp	r9, r6
2000140a:	d903      	bls.n	20001414 <__udivmoddi4+0x1b4>
2000140c:	f1bb 0f00 	cmp.w	fp, #0
20001410:	f000 80a2 	beq.w	20001558 <__udivmoddi4+0x2f8>
20001414:	4650      	mov	r0, sl
20001416:	eba6 0609 	sub.w	r6, r6, r9
2000141a:	fa1f f983 	uxth.w	r9, r3
2000141e:	fbb6 f3f8 	udiv	r3, r6, r8
20001422:	fb08 6613 	mls	r6, r8, r3, r6
20001426:	fb03 fc0c 	mul.w	ip, r3, ip
2000142a:	ea49 4606 	orr.w	r6, r9, r6, lsl #16
2000142e:	45b4      	cmp	ip, r6
20001430:	d90e      	bls.n	20001450 <__udivmoddi4+0x1f0>
20001432:	19be      	adds	r6, r7, r6
20001434:	f103 38ff 	add.w	r8, r3, #4294967295
20001438:	bf2c      	ite	cs
2000143a:	f04f 0901 	movcs.w	r9, #1
2000143e:	f04f 0900 	movcc.w	r9, #0
20001442:	45b4      	cmp	ip, r6
20001444:	d903      	bls.n	2000144e <__udivmoddi4+0x1ee>
20001446:	f1b9 0f00 	cmp.w	r9, #0
2000144a:	f000 8082 	beq.w	20001552 <__udivmoddi4+0x2f2>
2000144e:	4643      	mov	r3, r8
20001450:	ea43 4000 	orr.w	r0, r3, r0, lsl #16
20001454:	eba6 060c 	sub.w	r6, r6, ip
20001458:	fba0 8c02 	umull	r8, ip, r0, r2
2000145c:	4566      	cmp	r6, ip
2000145e:	4643      	mov	r3, r8
20001460:	46e1      	mov	r9, ip
20001462:	d302      	bcc.n	2000146a <__udivmoddi4+0x20a>
20001464:	d107      	bne.n	20001476 <__udivmoddi4+0x216>
20001466:	45c6      	cmp	lr, r8
20001468:	d205      	bcs.n	20001476 <__udivmoddi4+0x216>
2000146a:	ebb8 0302 	subs.w	r3, r8, r2
2000146e:	eb6c 0c07 	sbc.w	ip, ip, r7
20001472:	3801      	subs	r0, #1
20001474:	46e1      	mov	r9, ip
20001476:	b15d      	cbz	r5, 20001490 <__udivmoddi4+0x230>
20001478:	ebbe 0203 	subs.w	r2, lr, r3
2000147c:	eb66 0609 	sbc.w	r6, r6, r9
20001480:	fa06 f404 	lsl.w	r4, r6, r4
20001484:	fa22 f301 	lsr.w	r3, r2, r1
20001488:	40ce      	lsrs	r6, r1
2000148a:	431c      	orrs	r4, r3
2000148c:	e9c5 4600 	strd	r4, r6, [r5]
20001490:	2100      	movs	r1, #0
20001492:	e733      	b.n	200012fc <__udivmoddi4+0x9c>
20001494:	fa02 fc03 	lsl.w	ip, r2, r3
20001498:	f1c3 0220 	rsb	r2, r3, #32
2000149c:	4099      	lsls	r1, r3
2000149e:	409c      	lsls	r4, r3
200014a0:	40d6      	lsrs	r6, r2
200014a2:	ea4f 4e1c 	mov.w	lr, ip, lsr #16
200014a6:	fa20 f202 	lsr.w	r2, r0, r2
200014aa:	fa1f f78c 	uxth.w	r7, ip
200014ae:	fbb6 f0fe 	udiv	r0, r6, lr
200014b2:	430a      	orrs	r2, r1
200014b4:	fb0e 6610 	mls	r6, lr, r0, r6
200014b8:	0c11      	lsrs	r1, r2, #16
200014ba:	ea41 4106 	orr.w	r1, r1, r6, lsl #16
200014be:	fb00 f607 	mul.w	r6, r0, r7
200014c2:	428e      	cmp	r6, r1
200014c4:	d90e      	bls.n	200014e4 <__udivmoddi4+0x284>
200014c6:	eb1c 0101 	adds.w	r1, ip, r1
200014ca:	f100 38ff 	add.w	r8, r0, #4294967295
200014ce:	bf2c      	ite	cs
200014d0:	f04f 0901 	movcs.w	r9, #1
200014d4:	f04f 0900 	movcc.w	r9, #0
200014d8:	428e      	cmp	r6, r1
200014da:	d902      	bls.n	200014e2 <__udivmoddi4+0x282>
200014dc:	f1b9 0f00 	cmp.w	r9, #0
200014e0:	d034      	beq.n	2000154c <__udivmoddi4+0x2ec>
200014e2:	4640      	mov	r0, r8
200014e4:	1b89      	subs	r1, r1, r6
200014e6:	b292      	uxth	r2, r2
200014e8:	fbb1 f6fe 	udiv	r6, r1, lr
200014ec:	fb0e 1116 	mls	r1, lr, r6, r1
200014f0:	ea42 4201 	orr.w	r2, r2, r1, lsl #16
200014f4:	fb06 f107 	mul.w	r1, r6, r7
200014f8:	4291      	cmp	r1, r2
200014fa:	d90e      	bls.n	2000151a <__udivmoddi4+0x2ba>
200014fc:	eb1c 0202 	adds.w	r2, ip, r2
20001500:	f106 38ff 	add.w	r8, r6, #4294967295
20001504:	bf2c      	ite	cs
20001506:	f04f 0901 	movcs.w	r9, #1
2000150a:	f04f 0900 	movcc.w	r9, #0
2000150e:	4291      	cmp	r1, r2
20001510:	d902      	bls.n	20001518 <__udivmoddi4+0x2b8>
20001512:	f1b9 0f00 	cmp.w	r9, #0
20001516:	d016      	beq.n	20001546 <__udivmoddi4+0x2e6>
20001518:	4646      	mov	r6, r8
2000151a:	1a52      	subs	r2, r2, r1
2000151c:	ea46 4100 	orr.w	r1, r6, r0, lsl #16
20001520:	e70f      	b.n	20001342 <__udivmoddi4+0xe2>
20001522:	1a84      	subs	r4, r0, r2
20001524:	eb66 0203 	sbc.w	r2, r6, r3
20001528:	2001      	movs	r0, #1
2000152a:	4617      	mov	r7, r2
2000152c:	e6fb      	b.n	20001326 <__udivmoddi4+0xc6>
2000152e:	3e02      	subs	r6, #2
20001530:	4462      	add	r2, ip
20001532:	e721      	b.n	20001378 <__udivmoddi4+0x118>
20001534:	3902      	subs	r1, #2
20001536:	4462      	add	r2, ip
20001538:	e6c1      	b.n	200012be <__udivmoddi4+0x5e>
2000153a:	4464      	add	r4, ip
2000153c:	3802      	subs	r0, #2
2000153e:	e6d3      	b.n	200012e8 <__udivmoddi4+0x88>
20001540:	4464      	add	r4, ip
20001542:	3802      	subs	r0, #2
20001544:	e734      	b.n	200013b0 <__udivmoddi4+0x150>
20001546:	3e02      	subs	r6, #2
20001548:	4462      	add	r2, ip
2000154a:	e7e6      	b.n	2000151a <__udivmoddi4+0x2ba>
2000154c:	3802      	subs	r0, #2
2000154e:	4461      	add	r1, ip
20001550:	e7c8      	b.n	200014e4 <__udivmoddi4+0x284>
20001552:	3b02      	subs	r3, #2
20001554:	443e      	add	r6, r7
20001556:	e77b      	b.n	20001450 <__udivmoddi4+0x1f0>
20001558:	3802      	subs	r0, #2
2000155a:	443e      	add	r6, r7
2000155c:	e75b      	b.n	20001416 <__udivmoddi4+0x1b6>
2000155e:	bf00      	nop

20001560 <__aeabi_idiv0>:
20001560:	4770      	bx	lr
20001562:	bf00      	nop
20001564:	0000      	movs	r0, r0
	...

20001568 <__time_us_64_veneer>:
20001568:	f85f f000 	ldr.w	pc, [pc]	@ 2000156c <__time_us_64_veneer+0x4>
2000156c:	100028d5 	.word	0x100028d5

20001570 <__tu_fifo_write_veneer>:
20001570:	f85f f000 	ldr.w	pc, [pc]	@ 20001574 <__tu_fifo_write_veneer+0x4>
20001574:	10006df1 	.word	0x10006df1

20001578 <__rom_data_lookup_veneer>:
20001578:	f85f f000 	ldr.w	pc, [pc]	@ 2000157c <__rom_data_lookup_veneer+0x4>
2000157c:	1000306d 	.word	0x1000306d

20001580 <__memset_veneer>:
20001580:	f85f f000 	ldr.w	pc, [pc]	@ 20001584 <__memset_veneer+0x4>
20001584:	1000778d 	.word	0x1000778d

20001588 <__best_effort_wfe_or_timeout_veneer>:
20001588:	f85f f000 	ldr.w	pc, [pc]	@ 2000158c <__best_effort_wfe_or_timeout_veneer+0x4>
2000158c:	100027f1 	.word	0x100027f1

20001590 <__tud_event_hook_cb_veneer>:
20001590:	f85f f000 	ldr.w	pc, [pc]	@ 20001594 <__tud_event_hook_cb_veneer+0x4>
20001594:	100056e5 	.word	0x100056e5

20001598 <__rom_reset_usb_boot_veneer>:
20001598:	f85f f000 	ldr.w	pc, [pc]	@ 2000159c <__rom_reset_usb_boot_veneer+0x4>
2000159c:	10003075 	.word	0x10003075

200015a0 <__gpio_deinit_veneer>:
200015a0:	f85f f000 	ldr.w	pc, [pc]	@ 200015a4 <__gpio_deinit_veneer+0x4>
200015a4:	10001b59 	.word	0x10001b59

200015a8 <__hard_assertion_failure_veneer>:
200015a8:	f85f f000 	ldr.w	pc, [pc]	@ 200015ac <__hard_assertion_failure_veneer+0x4>
200015ac:	100030f1 	.word	0x100030f1

200015b0 <__sleep_ms_veneer>:
200015b0:	f85f f000 	ldr.w	pc, [pc]	@ 200015b4 <__sleep_ms_veneer+0x4>
200015b4:	100027c5 	.word	0x100027c5

200015b8 <__gpio_init_veneer>:
200015b8:	f85f f000 	ldr.w	pc, [pc]	@ 200015bc <__gpio_init_veneer+0x4>
200015bc:	10001b11 	.word	0x10001b11

200015c0 <__panic_veneer>:
200015c0:	f85f f000 	ldr.w	pc, [pc]	@ 200015c4 <__panic_veneer+0x4>
200015c4:	10001b99 	.word	0x10001b99

200015c8 <vendor_id>:
200015c8:	00000001                                ....

200015cc <version_n>:
200015cc:	004f0914                                ..O.

200015d0 <serial_id>:
200015d0:	03020100 07060504                        ..........

200015da <striped_spin_lock_num>:
200015da:	                                         ..

200015dc <irq_handler_chain_slots>:
200015dc:	00000000 	.word	0x00000000
200015e0:	00010000 	.word	0x00010000
	...
200015ec:	00020000 	.word	0x00020000
	...
200015f8:	00030000 	.word	0x00030000
	...
20001604:	00ff0000 	.word	0x00ff0000
20001608:	00000000 	.word	0x00000000

2000160c <irq_handler_chain_first_slot>:
2000160c:	b501      	push	{r0, lr}
2000160e:	6848      	ldr	r0, [r1, #4]
20001610:	3101      	adds	r1, #1
20001612:	468e      	mov	lr, r1
20001614:	4700      	bx	r0

20001616 <irq_handler_chain_remove_tail>:
20001616:	4670      	mov	r0, lr
20001618:	3809      	subs	r0, #9
2000161a:	4901      	ldr	r1, [pc, #4]	@ (20001620 <irq_handler_chain_remove_tail+0xa>)
2000161c:	4788      	blx	r1
2000161e:	bd01      	pop	{r0, pc}
20001620:	10002029 	.word	0x10002029

20001624 <default_alarm_pool>:
	...
20001638:	20041ee8                                ... 

2000163c <_usbd_qdef>:
2000163c:	200422b8 000c0010 00000000 00000000     .". ............
	...

20001658 <_usbd_rhport>:
20001658:	000000ff                                ....

2000165c <__malloc_sbrk_base>:
2000165c:	ffffffff                                ....

20001660 <__malloc_trim_threshold>:
20001660:	00020000 00000000                       ........

20001668 <__malloc_av_>:
	...
20001670:	20001668 20001668 20001670 20001670     h.. h.. p.. p.. 
20001680:	20001678 20001678 20001680 20001680     x.. x.. ... ... 
20001690:	20001688 20001688 20001690 20001690     ... ... ... ... 
200016a0:	20001698 20001698 200016a0 200016a0     ... ... ... ... 
200016b0:	200016a8 200016a8 200016b0 200016b0     ... ... ... ... 
200016c0:	200016b8 200016b8 200016c0 200016c0     ... ... ... ... 
200016d0:	200016c8 200016c8 200016d0 200016d0     ... ... ... ... 
200016e0:	200016d8 200016d8 200016e0 200016e0     ... ... ... ... 
200016f0:	200016e8 200016e8 200016f0 200016f0     ... ... ... ... 
20001700:	200016f8 200016f8 20001700 20001700     ... ... ... ... 
20001710:	20001708 20001708 20001710 20001710     ... ... ... ... 
20001720:	20001718 20001718 20001720 20001720     ... ...  ..  .. 
20001730:	20001728 20001728 20001730 20001730     (.. (.. 0.. 0.. 
20001740:	20001738 20001738 20001740 20001740     8.. 8.. @.. @.. 
20001750:	20001748 20001748 20001750 20001750     H.. H.. P.. P.. 
20001760:	20001758 20001758 20001760 20001760     X.. X.. `.. `.. 
20001770:	20001768 20001768 20001770 20001770     h.. h.. p.. p.. 
20001780:	20001778 20001778 20001780 20001780     x.. x.. ... ... 
20001790:	20001788 20001788 20001790 20001790     ... ... ... ... 
200017a0:	20001798 20001798 200017a0 200017a0     ... ... ... ... 
200017b0:	200017a8 200017a8 200017b0 200017b0     ... ... ... ... 
200017c0:	200017b8 200017b8 200017c0 200017c0     ... ... ... ... 
200017d0:	200017c8 200017c8 200017d0 200017d0     ... ... ... ... 
200017e0:	200017d8 200017d8 200017e0 200017e0     ... ... ... ... 
200017f0:	200017e8 200017e8 200017f0 200017f0     ... ... ... ... 
20001800:	200017f8 200017f8 20001800 20001800     ... ... ... ... 
20001810:	20001808 20001808 20001810 20001810     ... ... ... ... 
20001820:	20001818 20001818 20001820 20001820     ... ...  ..  .. 
20001830:	20001828 20001828 20001830 20001830     (.. (.. 0.. 0.. 
20001840:	20001838 20001838 20001840 20001840     8.. 8.. @.. @.. 
20001850:	20001848 20001848 20001850 20001850     H.. H.. P.. P.. 
20001860:	20001858 20001858 20001860 20001860     X.. X.. `.. `.. 
20001870:	20001868 20001868 20001870 20001870     h.. h.. p.. p.. 
20001880:	20001878 20001878 20001880 20001880     x.. x.. ... ... 
20001890:	20001888 20001888 20001890 20001890     ... ... ... ... 
200018a0:	20001898 20001898 200018a0 200018a0     ... ... ... ... 
200018b0:	200018a8 200018a8 200018b0 200018b0     ... ... ... ... 
200018c0:	200018b8 200018b8 200018c0 200018c0     ... ... ... ... 
200018d0:	200018c8 200018c8 200018d0 200018d0     ... ... ... ... 
200018e0:	200018d8 200018d8 200018e0 200018e0     ... ... ... ... 
200018f0:	200018e8 200018e8 200018f0 200018f0     ... ... ... ... 
20001900:	200018f8 200018f8 20001900 20001900     ... ... ... ... 
20001910:	20001908 20001908 20001910 20001910     ... ... ... ... 
20001920:	20001918 20001918 20001920 20001920     ... ...  ..  .. 
20001930:	20001928 20001928 20001930 20001930     (.. (.. 0.. 0.. 
20001940:	20001938 20001938 20001940 20001940     8.. 8.. @.. @.. 
20001950:	20001948 20001948 20001950 20001950     H.. H.. P.. P.. 
20001960:	20001958 20001958 20001960 20001960     X.. X.. `.. `.. 
20001970:	20001968 20001968 20001970 20001970     h.. h.. p.. p.. 
20001980:	20001978 20001978 20001980 20001980     x.. x.. ... ... 
20001990:	20001988 20001988 20001990 20001990     ... ... ... ... 
200019a0:	20001998 20001998 200019a0 200019a0     ... ... ... ... 
200019b0:	200019a8 200019a8 200019b0 200019b0     ... ... ... ... 
200019c0:	200019b8 200019b8 200019c0 200019c0     ... ... ... ... 
200019d0:	200019c8 200019c8 200019d0 200019d0     ... ... ... ... 
200019e0:	200019d8 200019d8 200019e0 200019e0     ... ... ... ... 
200019f0:	200019e8 200019e8 200019f0 200019f0     ... ... ... ... 
20001a00:	200019f8 200019f8 20001a00 20001a00     ... ... ... ... 
20001a10:	20001a08 20001a08 20001a10 20001a10     ... ... ... ... 
20001a20:	20001a18 20001a18 20001a20 20001a20     ... ...  ..  .. 
20001a30:	20001a28 20001a28 20001a30 20001a30     (.. (.. 0.. 0.. 
20001a40:	20001a38 20001a38 20001a40 20001a40     8.. 8.. @.. @.. 
20001a50:	20001a48 20001a48 20001a50 20001a50     H.. H.. P.. P.. 
20001a60:	20001a58 20001a58 20001a60 20001a60     X.. X.. `.. `.. 

20001a70 <_impure_ptr>:
20001a70:	20001a78 00000000                       x.. ....

20001a78 <_impure_data>:
20001a78:	00000000 200420a0 20042108 20042170     ..... . .!. p!. 
	...
20001b10:	00000001 00000000 abcd330e e66d1234     .........3..4.m.
20001b20:	0005deec 0000000b 00000000 00000000     ................
	...

20001bb8 <malloc_mutex>:
	...

20001bc0 <print_mutex>:
	...
